
tmc_temperature_readout.elf:     file format elf32-littlenios2
tmc_temperature_readout.elf
architecture: nios2:r1, flags 0x00000112:
EXEC_P, HAS_SYMS, D_PAGED
start address 0x0000022c

Program Header:
    LOAD off    0x00001020 vaddr 0x00000020 paddr 0x00000020 align 2**12
         filesz 0x00006174 memsz 0x00006298 flags rwx
    LOAD off    0x00008000 vaddr 0x00080000 paddr 0x00080000 align 2**12
         filesz 0x00000000 memsz 0x00000000 flags r-x

Sections:
Idx Name          Size      VMA       LMA       File off  Algn
  0 .entry        00000000  00080000  00080000  00008000  2**5
                  CONTENTS, ALLOC, LOAD, READONLY, CODE
  1 .exceptions   0000020c  00000020  00000020  00001020  2**2
                  CONTENTS, ALLOC, LOAD, READONLY, CODE
  2 .text         0000562c  0000022c  0000022c  0000122c  2**2
                  CONTENTS, ALLOC, LOAD, READONLY, CODE
  3 .rodata       00000508  00005858  00005858  00006858  2**2
                  CONTENTS, ALLOC, LOAD, READONLY, DATA
  4 .rwdata       00000434  00005d60  00005d60  00006d60  2**2
                  CONTENTS, ALLOC, LOAD, DATA, SMALL_DATA
  5 .bss          00000124  00006194  00006194  00007194  2**2
                  ALLOC, SMALL_DATA
  6 .onchip_memory2_0 00000000  000062b8  000062b8  00008000  2**0
                  CONTENTS
  7 .onchip_flash_0_data 00000000  00080020  00080020  00008000  2**0
                  CONTENTS
  8 .comment      00000023  00000000  00000000  00008000  2**0
                  CONTENTS, READONLY
  9 .debug_aranges 000008b8  00000000  00000000  00008028  2**3
                  CONTENTS, READONLY, DEBUGGING
 10 .debug_info   0000dde2  00000000  00000000  000088e0  2**0
                  CONTENTS, READONLY, DEBUGGING
 11 .debug_abbrev 00004720  00000000  00000000  000166c2  2**0
                  CONTENTS, READONLY, DEBUGGING
 12 .debug_line   00005274  00000000  00000000  0001ade2  2**0
                  CONTENTS, READONLY, DEBUGGING
 13 .debug_frame  000013d8  00000000  00000000  00020058  2**2
                  CONTENTS, READONLY, DEBUGGING
 14 .debug_str    00002aa5  00000000  00000000  00021430  2**0
                  CONTENTS, READONLY, DEBUGGING
 15 .debug_loc    00001f9c  00000000  00000000  00023ed5  2**0
                  CONTENTS, READONLY, DEBUGGING
 16 .debug_alt_sim_info 00000040  00000000  00000000  00025e74  2**2
                  CONTENTS, READONLY, DEBUGGING
 17 .debug_ranges 00000348  00000000  00000000  00025eb8  2**3
                  CONTENTS, READONLY, DEBUGGING
 18 .thread_model 00000003  00000000  00000000  000286e3  2**0
                  CONTENTS, READONLY
 19 .cpu          0000000c  00000000  00000000  000286e6  2**0
                  CONTENTS, READONLY
 20 .qsys         00000001  00000000  00000000  000286f2  2**0
                  CONTENTS, READONLY
 21 .simulation_enabled 00000001  00000000  00000000  000286f3  2**0
                  CONTENTS, READONLY
 22 .sysid_hash   00000004  00000000  00000000  000286f4  2**0
                  CONTENTS, READONLY
 23 .sysid_base   00000004  00000000  00000000  000286f8  2**0
                  CONTENTS, READONLY
 24 .sysid_time   00000004  00000000  00000000  000286fc  2**0
                  CONTENTS, READONLY
 25 .stderr_dev   00000006  00000000  00000000  00028700  2**0
                  CONTENTS, READONLY
 26 .stdin_dev    00000006  00000000  00000000  00028706  2**0
                  CONTENTS, READONLY
 27 .stdout_dev   00000006  00000000  00000000  0002870c  2**0
                  CONTENTS, READONLY
 28 .sopc_system_name 00000009  00000000  00000000  00028712  2**0
                  CONTENTS, READONLY
 29 .sopcinfo     0007291c  00000000  00000000  0002871b  2**0
                  CONTENTS, READONLY
SYMBOL TABLE:
00080000 l    d  .entry	00000000 .entry
00000020 l    d  .exceptions	00000000 .exceptions
0000022c l    d  .text	00000000 .text
00005858 l    d  .rodata	00000000 .rodata
00005d60 l    d  .rwdata	00000000 .rwdata
00006194 l    d  .bss	00000000 .bss
000062b8 l    d  .onchip_memory2_0	00000000 .onchip_memory2_0
00080020 l    d  .onchip_flash_0_data	00000000 .onchip_flash_0_data
00000000 l    d  .comment	00000000 .comment
00000000 l    d  .debug_aranges	00000000 .debug_aranges
00000000 l    d  .debug_info	00000000 .debug_info
00000000 l    d  .debug_abbrev	00000000 .debug_abbrev
00000000 l    d  .debug_line	00000000 .debug_line
00000000 l    d  .debug_frame	00000000 .debug_frame
00000000 l    d  .debug_str	00000000 .debug_str
00000000 l    d  .debug_loc	00000000 .debug_loc
00000000 l    d  .debug_alt_sim_info	00000000 .debug_alt_sim_info
00000000 l    d  .debug_ranges	00000000 .debug_ranges
00000000 l    df *ABS*	00000000 ../nios2_sw_bsp//obj/HAL/src/crt0.o
00000260 l       .text	00000000 alt_after_alt_main
00000000 l    df *ABS*	00000000 alt_irq_handler.c
00000000 l    df *ABS*	00000000 alt_instruction_exception_entry.c
00000000 l    df *ABS*	00000000 i2c_opencores.c
00000000 l    df *ABS*	00000000 tmc_temperature_readout_main.c
000004dc l     F .text	00000038 handle_timer_interrupts
00006157 l     O .rwdata	00000001 x.3490
00000000 l    df *ABS*	00000000 lib2-divmod.c
00001a54 l     F .text	0000006c udivmodsi4
00000000 l    df *ABS*	00000000 lib2-mul.c
00000000 l    df *ABS*	00000000 atoi.c
00000000 l    df *ABS*	00000000 printf.c
00000000 l    df *ABS*	00000000 putchar.c
00000000 l    df *ABS*	00000000 puts.c
00000000 l    df *ABS*	00000000 strlen.c
00000000 l    df *ABS*	00000000 strtok.c
00000000 l    df *ABS*	00000000 strtok_r.c
00000000 l    df *ABS*	00000000 strtol.c
00000000 l    df *ABS*	00000000 vfprintf.c
000020c4 l     F .text	0000006c print_repeat
00000000 l    df *ABS*	00000000 ctype_.c
00005b89 l     O .rodata	00000180 _ctype_b
00000000 l    df *ABS*	00000000 fvwrite_small_dev.c
00000000 l    df *ABS*	00000000 impure.c
00005d60 l     O .rwdata	000000e0 impure_data
00000000 l    df *ABS*	00000000 malloc.c
00000000 l    df *ABS*	00000000 nano-mallocr.c
00000000 l    df *ABS*	00000000 nano-mallocr.c
00000000 l    df *ABS*	00000000 putc.c
00000000 l    df *ABS*	00000000 sbrkr.c
00000000 l    df *ABS*	00000000 writer.c
00000000 l    df *ABS*	00000000 int_errno.c
00000000 l    df *ABS*	00000000 alt_iic.c
00000000 l    df *ABS*	00000000 alt_iic_isr_register.c
00000000 l    df *ABS*	00000000 alt_irq_vars.c
00000000 l    df *ABS*	00000000 alt_main.c
00000000 l    df *ABS*	00000000 alt_sbrk.c
00006168 l     O .rwdata	00000004 heap_end
00000000 l    df *ABS*	00000000 alt_usleep.c
00000000 l    df *ABS*	00000000 alt_write.c
00002f50 l     F .text	00000050 alt_get_errno
00000000 l    df *ABS*	00000000 alt_sys_init.c
000030a0 l     F .text	00000038 alt_dev_reg
00005e40 l     O .rwdata	0000002c jtag_uart_0
00005e6c l     O .rwdata	0000002c uart_0
00005e98 l     O .rwdata	00000100 onchip_flash_0
00000000 l    df *ABS*	00000000 altera_avalon_jtag_uart_fd.c
00000000 l    df *ABS*	00000000 altera_avalon_jtag_uart_read.c
00000000 l    df *ABS*	00000000 altera_avalon_jtag_uart_write.c
00000000 l    df *ABS*	00000000 altera_avalon_spi.c
00000000 l    df *ABS*	00000000 altera_avalon_uart_fd.c
00000000 l    df *ABS*	00000000 altera_avalon_uart_read.c
00003658 l     F .text	00000050 alt_get_errno
00000000 l    df *ABS*	00000000 altera_avalon_uart_write.c
0000376c l     F .text	00000050 alt_get_errno
00000000 l    df *ABS*	00000000 altera_onchip_flash.c
0000389c l     F .text	00000038 alt_flash_device_register
00000000 l    df *ABS*	00000000 alt_busy_sleep.c
00000000 l    df *ABS*	00000000 alt_close.c
00004920 l     F .text	00000050 alt_get_errno
00000000 l    df *ABS*	00000000 alt_dcache_flush.c
00000000 l    df *ABS*	00000000 alt_dev.c
00004a6c l     F .text	0000002c alt_dev_null_write
00000000 l    df *ABS*	00000000 alt_dev_llist_insert.c
00004a98 l     F .text	00000050 alt_get_errno
00000000 l    df *ABS*	00000000 alt_do_ctors.c
00000000 l    df *ABS*	00000000 alt_do_dtors.c
00000000 l    df *ABS*	00000000 alt_errno.c
00000000 l    df *ABS*	00000000 alt_flash_dev.c
00000000 l    df *ABS*	00000000 alt_io_redirect.c
00004d98 l     F .text	000000e0 alt_open_fd
00000000 l    df *ABS*	00000000 alt_open.c
00004ef0 l     F .text	00000050 alt_get_errno
00004f40 l     F .text	000000f4 alt_file_locked
00000000 l    df *ABS*	00000000 alt_release_fd.c
00000000 l    df *ABS*	00000000 altera_nios2_gen2_irq.c
00000000 l    df *ABS*	00000000 alt_find_dev.c
00000000 l    df *ABS*	00000000 alt_find_file.c
00000000 l    df *ABS*	00000000 alt_get_fd.c
00000000 l    df *ABS*	00000000 atexit.c
00000000 l    df *ABS*	00000000 exit.c
00000000 l    df *ABS*	00000000 memcmp.c
00000000 l    df *ABS*	00000000 memcpy.c
00000000 l    df *ABS*	00000000 __atexit.c
00000000 l    df *ABS*	00000000 __call_atexit.c
00000000 l    df *ABS*	00000000 alt_exit.c
000061b4 g     O .bss	00000004 alt_instruction_exception_handler
00001c50 g     F .text	00000018 putchar
00002df8 g     F .text	00000078 alt_main
00001c68 g     F .text	00000080 _puts_r
000061b8 g     O .bss	00000100 alt_irq
000062b8 g       *ABS*	00000000 __alt_heap_start
00001e70 g     F .text	00000008 strtok_r
00001bfc g     F .text	0000004c printf
00006146 g     O .rwdata	00000001 nchan_2n2222
000008f0 g     F .text	000001b0 setup_conv
00001de4 g     F .text	0000008c __strtok_r
00006194 g     O .bss	00000001 loop_done
00005214 g     F .text	00000020 altera_nios2_gen2_irq_init
00000000  w      *UND*	00000000 __errno
00080000 g     F .entry	00000000 __reset
000061a0 g     O .bss	00000004 errno
000061ac g     O .bss	00000004 alt_argv
0000e140 g       *ABS*	00000000 _gp
00002f20 g     F .text	00000030 usleep
0000614d g     O .rwdata	00000006 nchan_current
00004738 g     F .text	00000090 alt_onchip_flash_poll_for_status_write_passed
00005fc0 g     O .rwdata	00000180 alt_fd_list
00001c48 g     F .text	00000008 _putchar_r
00005234 g     F .text	00000090 alt_find_dev
00005510 g     F .text	00000028 memcpy
00080000 g       *ABS*	00000000 __alt_mem_onchip_flash_0_data
00004e78 g     F .text	00000078 alt_io_redirect
00005858 g       *ABS*	00000000 __DTOR_END__
00000c84 g     F .text	00000074 read_rx_fifo_char
00001ce8 g     F .text	00000014 puts
00004cfc g     F .text	0000009c alt_exception_cause_generated_bad_addr
00000318 g     F .text	0000009c I2C_start
00006154 g     O .rwdata	00000001 nchan_board_temp
00000610 g     F .text	00000194 ad7124_read_reg
0000321c g     F .text	000000e4 altera_avalon_jtag_uart_read
0000276c g     F .text	00000014 malloc
00001bc0 g     F .text	0000003c _printf_r
00000000 g       *ABS*	00000000 __alt_mem_onchip_memory2_0
00001b70 g     F .text	00000008 .hidden __udivsi3
000046a8 g     F .text	00000090 alt_onchip_flash_poll_for_status_erase_passed
0000616c g     O .rwdata	00000008 altera_onchip_flash_list
00000cf8 g     F .text	00000108 read_rx_fifo
00002a80 g     F .text	00000050 _sbrk_r
00000eb4 g     F .text	00000140 execute_cmd
00004a48 g     F .text	00000024 alt_dcache_flush
00003a3c g     F .text	00000168 alt_onchip_flash_erase_block
00006184 g     O .rwdata	00000004 alt_max_fd
00006147 g     O .rwdata	00000006 pchan_current
0000615c g     O .rwdata	00000004 _global_impure_ptr
00000888 g     F .text	00000034 set_led
000062b8 g       *ABS*	00000000 __bss_end
00002d08 g     F .text	000000f0 alt_iic_isr_register
00002cbc g     F .text	0000004c alt_ic_irq_enabled
000020a0 g     F .text	00000024 strtol
000061a4 g     O .bss	00000004 alt_irq_active
000000fc g     F .exceptions	000000d0 alt_irq_handler
00005f98 g     O .rwdata	00000028 alt_dev_null
0000617c g     O .rwdata	00000008 alt_dev_list
00002fa0 g     F .text	00000100 write
00002a28 g     F .text	00000058 _putc_r
00001b78 g     F .text	00000008 .hidden __umodsi3
00000ff4 g     F .text	000004f4 print_table
000007a4 g     F .text	000000a4 read_chan
00006140 g     O .rwdata	00000006 pchan_2n2222
000062b8 g       *ABS*	00000000 end
00001bb4 g     F .text	0000000c _atoi_r
000037bc g     F .text	000000e0 altera_avalon_uart_write
000001cc g     F .exceptions	00000060 alt_instruction_exception_entry
00005858 g       *ABS*	00000000 __CTOR_LIST__
00008d98 g       *ABS*	00000000 __alt_stack_pointer
000035f8 g     F .text	00000060 altera_avalon_uart_write_fd
00003300 g     F .text	00000094 altera_avalon_jtag_uart_write
00002130 g     F .text	0000056c ___vfprintf_internal_r
000039a0 g     F .text	0000009c alt_onchip_flash_get_info
00002794 g     F .text	000000e4 _free_r
00005688 g     F .text	0000019c __call_exitprocs
0000022c g     F .text	00000038 _start
00000848 g     F .text	00000040 flip_led
00003394 g     F .text	00000204 alt_avalon_spi_command
0000310c g     F .text	00000050 alt_sys_init
00005538 g     F .text	00000150 __register_exitproc
00001b80 g     F .text	00000028 .hidden __mulsi3
00000aa0 g     F .text	000001e4 calibrate_ad7124_8
0000315c g     F .text	00000060 altera_avalon_jtag_uart_read_fd
000053d8 g     F .text	000000d4 alt_get_fd
000047c8 g     F .text	00000158 alt_busy_sleep
00001d18 g     F .text	000000cc strtok
000054e0 g     F .text	00000030 memcmp
000062b8 g       *ABS*	00000000 __alt_stack_base
000038d4 g     F .text	000000cc alt_onchip_flash_read
000008bc g     F .text	00000034 clear_led
00006155 g     O .rwdata	00000001 pchan_adc_temp
000052c4 g     F .text	00000114 alt_find_file
00004ae8 g     F .text	000000a4 alt_dev_llist_insert
00002e70 g     F .text	000000b0 sbrk
0000618c g     O .rwdata	00000008 alt_flash_dev_list
000026c0 g     F .text	000000ac __sfvwrite_small_dev
00006194 g       *ABS*	00000000 __bss_start
000014e8 g     F .text	0000056c main
000061b0 g     O .bss	00000004 alt_envp
000031bc g     F .text	00000060 altera_avalon_jtag_uart_write_fd
00008d98 g       *ABS*	00000000 __alt_heap_limit
00001e78 g     F .text	00000228 _strtol_r
00002878 g     F .text	0000015c _malloc_r
00006188 g     O .rwdata	00000004 alt_errno
00004618 g     F .text	00000090 alt_onchip_flash_poll_for_status_to_go_idle
000029d4 g     F .text	00000054 putc
00001ac0 g     F .text	00000054 .hidden __divsi3
00005858 g       *ABS*	00000000 __CTOR_END__
00004140 g     F .text	000004d8 altera_onchip_flash_init
000003b4 g     F .text	0000007c I2C_read
00005858 g       *ABS*	00000000 __DTOR_LIST__
000030d8 g     F .text	00000034 alt_irq_init
00005194 g     F .text	00000080 alt_release_fd
00006153 g     O .rwdata	00000001 pchan_board_temp
000054ac g     F .text	00000014 atexit
00002ad0 g     F .text	00000058 _write_r
00000e00 g     F .text	000000b4 write_ltc2605
00000514 g     F .text	000000fc ad7124_write_reg
00006156 g     O .rwdata	00000001 nchan_adc_temp
00006160 g     O .rwdata	00000004 _impure_ptr
000061a8 g     O .bss	00000004 alt_argc
00004be8 g     F .text	0000005c _do_dtors
00000020 g       .exceptions	00000000 alt_irq_entry
00006174 g     O .rwdata	00000008 alt_fs_list
00003ba4 g     F .text	000002c4 alt_onchip_flash_write_block
00000264 g     F .text	000000b4 I2C_init
00002b28 g     F .text	00000050 alt_ic_isr_register
00006194 g       *ABS*	00000000 _edata
00003598 g     F .text	00000060 altera_avalon_uart_read_fd
00003e68 g     F .text	000002d8 alt_onchip_flash_write
000062b8 g       *ABS*	00000000 _end
00004c44 g     F .text	00000068 alt_flash_open_dev
00002c18 g     F .text	000000a4 alt_ic_irq_disable
000054c0 g     F .text	00000020 exit
00004cac g     F .text	00000050 alt_flash_close_dev
00001b14 g     F .text	0000005c .hidden __modsi3
00006158 g     O .rwdata	00000004 __ctype_ptr__
00008d98 g       *ABS*	00000000 __alt_data_end
00000020 g     F .exceptions	00000000 alt_exception
00001ba8 g     F .text	0000000c atoi
00005a88 g     O .rodata	00000101 _ctype_
00005824 g     F .text	00000034 _exit
00001cfc g     F .text	0000001c strlen
00005034 g     F .text	00000160 open
00006198 g     O .bss	00000004 __malloc_sbrk_start
00006164 g     O .rwdata	00000004 alt_priority_mask
0000619c g     O .bss	00000004 __malloc_free_list
00002b78 g     F .text	000000a0 alt_ic_irq_enable
0000269c g     F .text	00000024 __vfprintf_internal
000036a8 g     F .text	000000c4 altera_avalon_uart_read
00004b8c g     F .text	0000005c _do_ctors
00004970 g     F .text	000000d8 close
00000430 g     F .text	000000ac I2C_write
00002780 g     F .text	00000014 free



Disassembly of section .exceptions:

00000020 <alt_exception>:
  20:	deffed04 	addi	sp,sp,-76
  24:	dfc00015 	stw	ra,0(sp)
  28:	d8400215 	stw	at,8(sp)
  2c:	d8800315 	stw	r2,12(sp)
  30:	d8c00415 	stw	r3,16(sp)
  34:	d9000515 	stw	r4,20(sp)
  38:	d9400615 	stw	r5,24(sp)
  3c:	d9800715 	stw	r6,28(sp)
  40:	d9c00815 	stw	r7,32(sp)
  44:	000b307a 	rdctl	r5,estatus
  48:	da000915 	stw	r8,36(sp)
  4c:	da400a15 	stw	r9,40(sp)
  50:	da800b15 	stw	r10,44(sp)
  54:	dac00c15 	stw	r11,48(sp)
  58:	db000d15 	stw	r12,52(sp)
  5c:	db400e15 	stw	r13,56(sp)
  60:	db800f15 	stw	r14,60(sp)
  64:	dbc01015 	stw	r15,64(sp)
  68:	d9401115 	stw	r5,68(sp)
  6c:	ebffff04 	addi	r15,ea,-4
  70:	dbc01215 	stw	r15,72(sp)
  74:	0009313a 	rdctl	r4,ipending
  78:	2880004c 	andi	r2,r5,1
  7c:	10000326 	beq	r2,zero,8c <alt_exception+0x6c>
  80:	20000226 	beq	r4,zero,8c <alt_exception+0x6c>
  84:	00000fc0 	call	fc <alt_irq_handler>
  88:	00000706 	br	a8 <alt_exception+0x88>
  8c:	df401215 	stw	ea,72(sp)
  90:	e8bfff17 	ldw	r2,-4(ea)
  94:	e93fff04 	addi	r4,ea,-4
  98:	00001cc0 	call	1cc <alt_instruction_exception_entry>
  9c:	1000021e 	bne	r2,zero,a8 <alt_exception+0x88>
  a0:	ebffff04 	addi	r15,ea,-4
  a4:	dbc01215 	stw	r15,72(sp)
  a8:	d9401117 	ldw	r5,68(sp)
  ac:	df401217 	ldw	ea,72(sp)
  b0:	dfc00017 	ldw	ra,0(sp)
  b4:	2801707a 	wrctl	estatus,r5
  b8:	d8400217 	ldw	at,8(sp)
  bc:	d8800317 	ldw	r2,12(sp)
  c0:	d8c00417 	ldw	r3,16(sp)
  c4:	d9000517 	ldw	r4,20(sp)
  c8:	d9400617 	ldw	r5,24(sp)
  cc:	d9800717 	ldw	r6,28(sp)
  d0:	d9c00817 	ldw	r7,32(sp)
  d4:	da000917 	ldw	r8,36(sp)
  d8:	da400a17 	ldw	r9,40(sp)
  dc:	da800b17 	ldw	r10,44(sp)
  e0:	dac00c17 	ldw	r11,48(sp)
  e4:	db000d17 	ldw	r12,52(sp)
  e8:	db400e17 	ldw	r13,56(sp)
  ec:	db800f17 	ldw	r14,60(sp)
  f0:	dbc01017 	ldw	r15,64(sp)
  f4:	dec01304 	addi	sp,sp,76
  f8:	ef80083a 	eret

000000fc <alt_irq_handler>:
  fc:	defff904 	addi	sp,sp,-28
 100:	dfc00615 	stw	ra,24(sp)
 104:	df000515 	stw	fp,20(sp)
 108:	df000504 	addi	fp,sp,20
 10c:	0001883a 	nop
 110:	0005313a 	rdctl	r2,ipending
 114:	e0bffe15 	stw	r2,-8(fp)
 118:	e0bffe17 	ldw	r2,-8(fp)
 11c:	e0bffb15 	stw	r2,-20(fp)
 120:	e03ffd15 	stw	zero,-12(fp)
 124:	00800044 	movi	r2,1
 128:	e0bffc15 	stw	r2,-16(fp)
 12c:	e0fffb17 	ldw	r3,-20(fp)
 130:	e0bffc17 	ldw	r2,-16(fp)
 134:	1884703a 	and	r2,r3,r2
 138:	10001426 	beq	r2,zero,18c <alt_irq_handler+0x90>
 13c:	00800034 	movhi	r2,0
 140:	10986e04 	addi	r2,r2,25016
 144:	e0fffd17 	ldw	r3,-12(fp)
 148:	180690fa 	slli	r3,r3,3
 14c:	10c5883a 	add	r2,r2,r3
 150:	10c00017 	ldw	r3,0(r2)
 154:	00800034 	movhi	r2,0
 158:	10986e04 	addi	r2,r2,25016
 15c:	e13ffd17 	ldw	r4,-12(fp)
 160:	200890fa 	slli	r4,r4,3
 164:	21000104 	addi	r4,r4,4
 168:	1105883a 	add	r2,r2,r4
 16c:	10800017 	ldw	r2,0(r2)
 170:	1009883a 	mov	r4,r2
 174:	183ee83a 	callr	r3
 178:	0001883a 	nop
 17c:	0005313a 	rdctl	r2,ipending
 180:	e0bfff15 	stw	r2,-4(fp)
 184:	e0bfff17 	ldw	r2,-4(fp)
 188:	00000706 	br	1a8 <alt_irq_handler+0xac>
 18c:	e0bffc17 	ldw	r2,-16(fp)
 190:	1085883a 	add	r2,r2,r2
 194:	e0bffc15 	stw	r2,-16(fp)
 198:	e0bffd17 	ldw	r2,-12(fp)
 19c:	10800044 	addi	r2,r2,1
 1a0:	e0bffd15 	stw	r2,-12(fp)
 1a4:	003fe106 	br	12c <alt_irq_handler+0x30>
 1a8:	e0bffb15 	stw	r2,-20(fp)
 1ac:	e0bffb17 	ldw	r2,-20(fp)
 1b0:	103fdb1e 	bne	r2,zero,120 <alt_irq_handler+0x24>
 1b4:	0001883a 	nop
 1b8:	e037883a 	mov	sp,fp
 1bc:	dfc00117 	ldw	ra,4(sp)
 1c0:	df000017 	ldw	fp,0(sp)
 1c4:	dec00204 	addi	sp,sp,8
 1c8:	f800283a 	ret

000001cc <alt_instruction_exception_entry>:
 1cc:	defffb04 	addi	sp,sp,-20
 1d0:	dfc00415 	stw	ra,16(sp)
 1d4:	df000315 	stw	fp,12(sp)
 1d8:	df000304 	addi	fp,sp,12
 1dc:	e13fff15 	stw	r4,-4(fp)
 1e0:	00bfffc4 	movi	r2,-1
 1e4:	e0bffd15 	stw	r2,-12(fp)
 1e8:	e03ffe15 	stw	zero,-8(fp)
 1ec:	d0a01d17 	ldw	r2,-32652(gp)
 1f0:	10000726 	beq	r2,zero,210 <alt_instruction_exception_entry+0x44>
 1f4:	d0a01d17 	ldw	r2,-32652(gp)
 1f8:	e0fffd17 	ldw	r3,-12(fp)
 1fc:	1809883a 	mov	r4,r3
 200:	e17fff17 	ldw	r5,-4(fp)
 204:	e1bffe17 	ldw	r6,-8(fp)
 208:	103ee83a 	callr	r2
 20c:	00000206 	br	218 <alt_instruction_exception_entry+0x4c>
 210:	003da03a 	break	0
 214:	0005883a 	mov	r2,zero
 218:	e037883a 	mov	sp,fp
 21c:	dfc00117 	ldw	ra,4(sp)
 220:	df000017 	ldw	fp,0(sp)
 224:	dec00204 	addi	sp,sp,8
 228:	f800283a 	ret

Disassembly of section .text:

0000022c <_start>:
     22c:	06c00034 	movhi	sp,0
     230:	dee36614 	ori	sp,sp,36248
     234:	06800034 	movhi	gp,0
     238:	d6b85014 	ori	gp,gp,57664
     23c:	00800034 	movhi	r2,0
     240:	10986514 	ori	r2,r2,24980
     244:	00c00034 	movhi	r3,0
     248:	18d8ae14 	ori	r3,r3,25272
     24c:	10c00326 	beq	r2,r3,25c <_start+0x30>
     250:	10000015 	stw	zero,0(r2)
     254:	10800104 	addi	r2,r2,4
     258:	10fffd36 	bltu	r2,r3,250 <_start+0x24>
     25c:	0002df80 	call	2df8 <alt_main>

00000260 <alt_after_alt_main>:
     260:	003fff06 	br	260 <alt_after_alt_main>

00000264 <I2C_init>:
     264:	defffa04 	addi	sp,sp,-24
     268:	dfc00515 	stw	ra,20(sp)
     26c:	df000415 	stw	fp,16(sp)
     270:	df000404 	addi	fp,sp,16
     274:	e13ffd15 	stw	r4,-12(fp)
     278:	e17ffe15 	stw	r5,-8(fp)
     27c:	e1bfff15 	stw	r6,-4(fp)
     280:	e13fff17 	ldw	r4,-4(fp)
     284:	01400144 	movi	r5,5
     288:	0001b800 	call	1b80 <__mulsi3>
     28c:	e13ffe17 	ldw	r4,-8(fp)
     290:	100b883a 	mov	r5,r2
     294:	0001b700 	call	1b70 <__udivsi3>
     298:	10bfffc4 	addi	r2,r2,-1
     29c:	e0bffc15 	stw	r2,-16(fp)
     2a0:	e0bffd17 	ldw	r2,-12(fp)
     2a4:	10800204 	addi	r2,r2,8
     2a8:	0007883a 	mov	r3,zero
     2ac:	10c00035 	stwio	r3,0(r2)
     2b0:	e0bffd17 	ldw	r2,-12(fp)
     2b4:	10800404 	addi	r2,r2,16
     2b8:	1007883a 	mov	r3,r2
     2bc:	00800044 	movi	r2,1
     2c0:	18800035 	stwio	r2,0(r3)
     2c4:	e0bffd17 	ldw	r2,-12(fp)
     2c8:	e0fffc17 	ldw	r3,-16(fp)
     2cc:	18c03fcc 	andi	r3,r3,255
     2d0:	10c00035 	stwio	r3,0(r2)
     2d4:	e0bffd17 	ldw	r2,-12(fp)
     2d8:	10800104 	addi	r2,r2,4
     2dc:	1007883a 	mov	r3,r2
     2e0:	e0bffc17 	ldw	r2,-16(fp)
     2e4:	1004d23a 	srli	r2,r2,8
     2e8:	10803fcc 	andi	r2,r2,255
     2ec:	18800035 	stwio	r2,0(r3)
     2f0:	e0bffd17 	ldw	r2,-12(fp)
     2f4:	10800204 	addi	r2,r2,8
     2f8:	1007883a 	mov	r3,r2
     2fc:	00802004 	movi	r2,128
     300:	18800035 	stwio	r2,0(r3)
     304:	e037883a 	mov	sp,fp
     308:	dfc00117 	ldw	ra,4(sp)
     30c:	df000017 	ldw	fp,0(sp)
     310:	dec00204 	addi	sp,sp,8
     314:	f800283a 	ret

00000318 <I2C_start>:
     318:	defffc04 	addi	sp,sp,-16
     31c:	df000315 	stw	fp,12(sp)
     320:	df000304 	addi	fp,sp,12
     324:	e13ffd15 	stw	r4,-12(fp)
     328:	e17ffe15 	stw	r5,-8(fp)
     32c:	e1bfff15 	stw	r6,-4(fp)
     330:	e0bffd17 	ldw	r2,-12(fp)
     334:	10800304 	addi	r2,r2,12
     338:	1007883a 	mov	r3,r2
     33c:	e0bffe17 	ldw	r2,-8(fp)
     340:	1085883a 	add	r2,r2,r2
     344:	1009883a 	mov	r4,r2
     348:	e0bfff17 	ldw	r2,-4(fp)
     34c:	1080004c 	andi	r2,r2,1
     350:	2085883a 	add	r2,r4,r2
     354:	18800035 	stwio	r2,0(r3)
     358:	e0bffd17 	ldw	r2,-12(fp)
     35c:	10800404 	addi	r2,r2,16
     360:	1007883a 	mov	r3,r2
     364:	00802404 	movi	r2,144
     368:	18800035 	stwio	r2,0(r3)
     36c:	0001883a 	nop
     370:	e0bffd17 	ldw	r2,-12(fp)
     374:	10800404 	addi	r2,r2,16
     378:	10800037 	ldwio	r2,0(r2)
     37c:	1080008c 	andi	r2,r2,2
     380:	103ffb1e 	bne	r2,zero,370 <I2C_start+0x58>
     384:	e0bffd17 	ldw	r2,-12(fp)
     388:	10800404 	addi	r2,r2,16
     38c:	10800037 	ldwio	r2,0(r2)
     390:	1080200c 	andi	r2,r2,128
     394:	10000226 	beq	r2,zero,3a0 <I2C_start+0x88>
     398:	00800044 	movi	r2,1
     39c:	00000106 	br	3a4 <I2C_start+0x8c>
     3a0:	0005883a 	mov	r2,zero
     3a4:	e037883a 	mov	sp,fp
     3a8:	df000017 	ldw	fp,0(sp)
     3ac:	dec00104 	addi	sp,sp,4
     3b0:	f800283a 	ret

000003b4 <I2C_read>:
     3b4:	defffd04 	addi	sp,sp,-12
     3b8:	df000215 	stw	fp,8(sp)
     3bc:	df000204 	addi	fp,sp,8
     3c0:	e13ffe15 	stw	r4,-8(fp)
     3c4:	e17fff15 	stw	r5,-4(fp)
     3c8:	e0bfff17 	ldw	r2,-4(fp)
     3cc:	10000626 	beq	r2,zero,3e8 <I2C_read+0x34>
     3d0:	e0bffe17 	ldw	r2,-8(fp)
     3d4:	10800404 	addi	r2,r2,16
     3d8:	1007883a 	mov	r3,r2
     3dc:	00801a04 	movi	r2,104
     3e0:	18800035 	stwio	r2,0(r3)
     3e4:	00000506 	br	3fc <I2C_read+0x48>
     3e8:	e0bffe17 	ldw	r2,-8(fp)
     3ec:	10800404 	addi	r2,r2,16
     3f0:	1007883a 	mov	r3,r2
     3f4:	00800804 	movi	r2,32
     3f8:	18800035 	stwio	r2,0(r3)
     3fc:	0001883a 	nop
     400:	e0bffe17 	ldw	r2,-8(fp)
     404:	10800404 	addi	r2,r2,16
     408:	10800037 	ldwio	r2,0(r2)
     40c:	1080008c 	andi	r2,r2,2
     410:	103ffb1e 	bne	r2,zero,400 <I2C_read+0x4c>
     414:	e0bffe17 	ldw	r2,-8(fp)
     418:	10800304 	addi	r2,r2,12
     41c:	10800037 	ldwio	r2,0(r2)
     420:	e037883a 	mov	sp,fp
     424:	df000017 	ldw	fp,0(sp)
     428:	dec00104 	addi	sp,sp,4
     42c:	f800283a 	ret

00000430 <I2C_write>:
     430:	defffc04 	addi	sp,sp,-16
     434:	df000315 	stw	fp,12(sp)
     438:	df000304 	addi	fp,sp,12
     43c:	e13ffd15 	stw	r4,-12(fp)
     440:	2805883a 	mov	r2,r5
     444:	e1bfff15 	stw	r6,-4(fp)
     448:	e0bffe05 	stb	r2,-8(fp)
     44c:	e0bffd17 	ldw	r2,-12(fp)
     450:	10800304 	addi	r2,r2,12
     454:	1007883a 	mov	r3,r2
     458:	e0bffe03 	ldbu	r2,-8(fp)
     45c:	18800035 	stwio	r2,0(r3)
     460:	e0bfff17 	ldw	r2,-4(fp)
     464:	10000626 	beq	r2,zero,480 <I2C_write+0x50>
     468:	e0bffd17 	ldw	r2,-12(fp)
     46c:	10800404 	addi	r2,r2,16
     470:	1007883a 	mov	r3,r2
     474:	00801404 	movi	r2,80
     478:	18800035 	stwio	r2,0(r3)
     47c:	00000506 	br	494 <I2C_write+0x64>
     480:	e0bffd17 	ldw	r2,-12(fp)
     484:	10800404 	addi	r2,r2,16
     488:	1007883a 	mov	r3,r2
     48c:	00800404 	movi	r2,16
     490:	18800035 	stwio	r2,0(r3)
     494:	0001883a 	nop
     498:	e0bffd17 	ldw	r2,-12(fp)
     49c:	10800404 	addi	r2,r2,16
     4a0:	10800037 	ldwio	r2,0(r2)
     4a4:	1080008c 	andi	r2,r2,2
     4a8:	103ffb1e 	bne	r2,zero,498 <I2C_write+0x68>
     4ac:	e0bffd17 	ldw	r2,-12(fp)
     4b0:	10800404 	addi	r2,r2,16
     4b4:	10800037 	ldwio	r2,0(r2)
     4b8:	1080200c 	andi	r2,r2,128
     4bc:	10000226 	beq	r2,zero,4c8 <I2C_write+0x98>
     4c0:	00800044 	movi	r2,1
     4c4:	00000106 	br	4cc <I2C_write+0x9c>
     4c8:	0005883a 	mov	r2,zero
     4cc:	e037883a 	mov	sp,fp
     4d0:	df000017 	ldw	fp,0(sp)
     4d4:	dec00104 	addi	sp,sp,4
     4d8:	f800283a 	ret

000004dc <handle_timer_interrupts>:
     4dc:	defffe04 	addi	sp,sp,-8
     4e0:	df000115 	stw	fp,4(sp)
     4e4:	df000104 	addi	fp,sp,4
     4e8:	e13fff15 	stw	r4,-4(fp)
     4ec:	0007883a 	mov	r3,zero
     4f0:	00800134 	movhi	r2,4
     4f4:	10824004 	addi	r2,r2,2304
     4f8:	10c00035 	stwio	r3,0(r2)
     4fc:	00800044 	movi	r2,1
     500:	d0a01505 	stb	r2,-32684(gp)
     504:	e037883a 	mov	sp,fp
     508:	df000017 	ldw	fp,0(sp)
     50c:	dec00104 	addi	sp,sp,4
     510:	f800283a 	ret

00000514 <ad7124_write_reg>:
     514:	defff504 	addi	sp,sp,-44
     518:	dfc00a15 	stw	ra,40(sp)
     51c:	df000915 	stw	fp,36(sp)
     520:	df000904 	addi	fp,sp,36
     524:	2807883a 	mov	r3,r5
     528:	e1bffe15 	stw	r6,-8(fp)
     52c:	3805883a 	mov	r2,r7
     530:	e13ffc05 	stb	r4,-16(fp)
     534:	e0fffd05 	stb	r3,-12(fp)
     538:	e0bfff05 	stb	r2,-4(fp)
     53c:	e03ffa05 	stb	zero,-24(fp)
     540:	e0bffd03 	ldbu	r2,-12(fp)
     544:	10800fcc 	andi	r2,r2,63
     548:	e0bffa45 	stb	r2,-23(fp)
     54c:	e03ffa05 	stb	zero,-24(fp)
     550:	00001906 	br	5b8 <ad7124_write_reg+0xa4>
     554:	e0fffa03 	ldbu	r3,-24(fp)
     558:	e0bfff03 	ldbu	r2,-4(fp)
     55c:	18800e2e 	bgeu	r3,r2,598 <ad7124_write_reg+0x84>
     560:	e0bffa03 	ldbu	r2,-24(fp)
     564:	10800044 	addi	r2,r2,1
     568:	e13fff03 	ldbu	r4,-4(fp)
     56c:	e0fffa03 	ldbu	r3,-24(fp)
     570:	20c7c83a 	sub	r3,r4,r3
     574:	18ffffc4 	addi	r3,r3,-1
     578:	180690fa 	slli	r3,r3,3
     57c:	e13ffe17 	ldw	r4,-8(fp)
     580:	20c6d83a 	srl	r3,r4,r3
     584:	1809883a 	mov	r4,r3
     588:	e0fffa44 	addi	r3,fp,-23
     58c:	1885883a 	add	r2,r3,r2
     590:	11000005 	stb	r4,0(r2)
     594:	00000506 	br	5ac <ad7124_write_reg+0x98>
     598:	e0bffa03 	ldbu	r2,-24(fp)
     59c:	10800044 	addi	r2,r2,1
     5a0:	e0fffa44 	addi	r3,fp,-23
     5a4:	1885883a 	add	r2,r3,r2
     5a8:	10000005 	stb	zero,0(r2)
     5ac:	e0bffa03 	ldbu	r2,-24(fp)
     5b0:	10800044 	addi	r2,r2,1
     5b4:	e0bffa05 	stb	r2,-24(fp)
     5b8:	e0bffa03 	ldbu	r2,-24(fp)
     5bc:	10800130 	cmpltui	r2,r2,4
     5c0:	103fe41e 	bne	r2,zero,554 <ad7124_write_reg+0x40>
     5c4:	e0fffc03 	ldbu	r3,-16(fp)
     5c8:	e0bfff03 	ldbu	r2,-4(fp)
     5cc:	10800044 	addi	r2,r2,1
     5d0:	100d883a 	mov	r6,r2
     5d4:	e0bffa44 	addi	r2,fp,-23
     5d8:	d8000015 	stw	zero,0(sp)
     5dc:	d8000115 	stw	zero,4(sp)
     5e0:	d8000215 	stw	zero,8(sp)
     5e4:	01000134 	movhi	r4,4
     5e8:	21020804 	addi	r4,r4,2080
     5ec:	180b883a 	mov	r5,r3
     5f0:	100f883a 	mov	r7,r2
     5f4:	00033940 	call	3394 <alt_avalon_spi_command>
     5f8:	0005883a 	mov	r2,zero
     5fc:	e037883a 	mov	sp,fp
     600:	dfc00117 	ldw	ra,4(sp)
     604:	df000017 	ldw	fp,0(sp)
     608:	dec00204 	addi	sp,sp,8
     60c:	f800283a 	ret

00000610 <ad7124_read_reg>:
     610:	defff504 	addi	sp,sp,-44
     614:	dfc00a15 	stw	ra,40(sp)
     618:	df000915 	stw	fp,36(sp)
     61c:	df000904 	addi	fp,sp,36
     620:	2807883a 	mov	r3,r5
     624:	e1bffe15 	stw	r6,-8(fp)
     628:	3805883a 	mov	r2,r7
     62c:	e13ffc05 	stb	r4,-16(fp)
     630:	e0fffd05 	stb	r3,-12(fp)
     634:	e0bfff05 	stb	r2,-4(fp)
     638:	e03ffa45 	stb	zero,-23(fp)
     63c:	e03ffa05 	stb	zero,-24(fp)
     640:	e0bffd03 	ldbu	r2,-12(fp)
     644:	10800fcc 	andi	r2,r2,63
     648:	10801014 	ori	r2,r2,64
     64c:	e0bffa85 	stb	r2,-22(fp)
     650:	e17ffc03 	ldbu	r5,-16(fp)
     654:	e0bfff03 	ldbu	r2,-4(fp)
     658:	e0fffa84 	addi	r3,fp,-22
     65c:	d8800015 	stw	r2,0(sp)
     660:	e0bffac4 	addi	r2,fp,-21
     664:	d8800115 	stw	r2,4(sp)
     668:	d8000215 	stw	zero,8(sp)
     66c:	01000134 	movhi	r4,4
     670:	21020804 	addi	r4,r4,2080
     674:	01800044 	movi	r6,1
     678:	180f883a 	mov	r7,r3
     67c:	00033940 	call	3394 <alt_avalon_spi_command>
     680:	e0bffa45 	stb	r2,-23(fp)
     684:	e0bffe17 	ldw	r2,-8(fp)
     688:	10000015 	stw	zero,0(r2)
     68c:	e03ffa05 	stb	zero,-24(fp)
     690:	00001306 	br	6e0 <ad7124_read_reg+0xd0>
     694:	e0bffe17 	ldw	r2,-8(fp)
     698:	10c00017 	ldw	r3,0(r2)
     69c:	e0bffa03 	ldbu	r2,-24(fp)
     6a0:	e13ffac4 	addi	r4,fp,-21
     6a4:	2085883a 	add	r2,r4,r2
     6a8:	10800003 	ldbu	r2,0(r2)
     6ac:	11003fcc 	andi	r4,r2,255
     6b0:	e17fff03 	ldbu	r5,-4(fp)
     6b4:	e0bffa03 	ldbu	r2,-24(fp)
     6b8:	2885c83a 	sub	r2,r5,r2
     6bc:	10bfffc4 	addi	r2,r2,-1
     6c0:	100490fa 	slli	r2,r2,3
     6c4:	2084983a 	sll	r2,r4,r2
     6c8:	1886b03a 	or	r3,r3,r2
     6cc:	e0bffe17 	ldw	r2,-8(fp)
     6d0:	10c00015 	stw	r3,0(r2)
     6d4:	e0bffa03 	ldbu	r2,-24(fp)
     6d8:	10800044 	addi	r2,r2,1
     6dc:	e0bffa05 	stb	r2,-24(fp)
     6e0:	e0fffa03 	ldbu	r3,-24(fp)
     6e4:	e0bfff03 	ldbu	r2,-4(fp)
     6e8:	18bfea36 	bltu	r3,r2,694 <ad7124_read_reg+0x84>
     6ec:	e0bfff03 	ldbu	r2,-4(fp)
     6f0:	10c000a0 	cmpeqi	r3,r2,2
     6f4:	1800101e 	bne	r3,zero,738 <ad7124_read_reg+0x128>
     6f8:	10c000c8 	cmpgei	r3,r2,3
     6fc:	1800031e 	bne	r3,zero,70c <ad7124_read_reg+0xfc>
     700:	10800060 	cmpeqi	r2,r2,1
     704:	1000061e 	bne	r2,zero,720 <ad7124_read_reg+0x110>
     708:	00001e06 	br	784 <ad7124_read_reg+0x174>
     70c:	10c000e0 	cmpeqi	r3,r2,3
     710:	18000f1e 	bne	r3,zero,750 <ad7124_read_reg+0x140>
     714:	10800120 	cmpeqi	r2,r2,4
     718:	1000151e 	bne	r2,zero,770 <ad7124_read_reg+0x160>
     71c:	00001906 	br	784 <ad7124_read_reg+0x174>
     720:	e0bffe17 	ldw	r2,-8(fp)
     724:	10800017 	ldw	r2,0(r2)
     728:	10c03fcc 	andi	r3,r2,255
     72c:	e0bffe17 	ldw	r2,-8(fp)
     730:	10c00015 	stw	r3,0(r2)
     734:	00001506 	br	78c <ad7124_read_reg+0x17c>
     738:	e0bffe17 	ldw	r2,-8(fp)
     73c:	10800017 	ldw	r2,0(r2)
     740:	10ffffcc 	andi	r3,r2,65535
     744:	e0bffe17 	ldw	r2,-8(fp)
     748:	10c00015 	stw	r3,0(r2)
     74c:	00000f06 	br	78c <ad7124_read_reg+0x17c>
     750:	e0bffe17 	ldw	r2,-8(fp)
     754:	10c00017 	ldw	r3,0(r2)
     758:	00804034 	movhi	r2,256
     75c:	10bfffc4 	addi	r2,r2,-1
     760:	1886703a 	and	r3,r3,r2
     764:	e0bffe17 	ldw	r2,-8(fp)
     768:	10c00015 	stw	r3,0(r2)
     76c:	00000706 	br	78c <ad7124_read_reg+0x17c>
     770:	e0bffe17 	ldw	r2,-8(fp)
     774:	10c00017 	ldw	r3,0(r2)
     778:	e0bffe17 	ldw	r2,-8(fp)
     77c:	10c00015 	stw	r3,0(r2)
     780:	00000206 	br	78c <ad7124_read_reg+0x17c>
     784:	e0bffe17 	ldw	r2,-8(fp)
     788:	10000015 	stw	zero,0(r2)
     78c:	e0bffa43 	ldbu	r2,-23(fp)
     790:	e037883a 	mov	sp,fp
     794:	dfc00117 	ldw	ra,4(sp)
     798:	df000017 	ldw	fp,0(sp)
     79c:	dec00204 	addi	sp,sp,8
     7a0:	f800283a 	ret

000007a4 <read_chan>:
     7a4:	defff904 	addi	sp,sp,-28
     7a8:	dfc00615 	stw	ra,24(sp)
     7ac:	df000515 	stw	fp,20(sp)
     7b0:	df000504 	addi	fp,sp,20
     7b4:	e13ffd15 	stw	r4,-12(fp)
     7b8:	e17ffe15 	stw	r5,-8(fp)
     7bc:	3005883a 	mov	r2,r6
     7c0:	e0bfff05 	stb	r2,-4(fp)
     7c4:	e03ffb05 	stb	zero,-20(fp)
     7c8:	e03ffc15 	stw	zero,-16(fp)
     7cc:	e03ffb05 	stb	zero,-20(fp)
     7d0:	00001406 	br	824 <read_chan+0x80>
     7d4:	e03ffc15 	stw	zero,-16(fp)
     7d8:	e13ffb03 	ldbu	r4,-20(fp)
     7dc:	e0bffe17 	ldw	r2,-8(fp)
     7e0:	11403fcc 	andi	r5,r2,255
     7e4:	e0bfff03 	ldbu	r2,-4(fp)
     7e8:	e0fffc04 	addi	r3,fp,-16
     7ec:	180d883a 	mov	r6,r3
     7f0:	100f883a 	mov	r7,r2
     7f4:	00006100 	call	610 <ad7124_read_reg>
     7f8:	e0bffb03 	ldbu	r2,-20(fp)
     7fc:	1085883a 	add	r2,r2,r2
     800:	1085883a 	add	r2,r2,r2
     804:	1007883a 	mov	r3,r2
     808:	e0bffd17 	ldw	r2,-12(fp)
     80c:	10c5883a 	add	r2,r2,r3
     810:	e0fffc17 	ldw	r3,-16(fp)
     814:	10c00015 	stw	r3,0(r2)
     818:	e0bffb03 	ldbu	r2,-20(fp)
     81c:	10800044 	addi	r2,r2,1
     820:	e0bffb05 	stb	r2,-20(fp)
     824:	e0bffb03 	ldbu	r2,-20(fp)
     828:	10800330 	cmpltui	r2,r2,12
     82c:	103fe91e 	bne	r2,zero,7d4 <read_chan+0x30>
     830:	0005883a 	mov	r2,zero
     834:	e037883a 	mov	sp,fp
     838:	dfc00117 	ldw	ra,4(sp)
     83c:	df000017 	ldw	fp,0(sp)
     840:	dec00204 	addi	sp,sp,8
     844:	f800283a 	ret

00000848 <flip_led>:
     848:	deffff04 	addi	sp,sp,-4
     84c:	df000015 	stw	fp,0(sp)
     850:	d839883a 	mov	fp,sp
     854:	d0a005c3 	ldbu	r2,-32745(gp)
     858:	10c03fcc 	andi	r3,r2,255
     85c:	00800134 	movhi	r2,4
     860:	10821c04 	addi	r2,r2,2160
     864:	10c00035 	stwio	r3,0(r2)
     868:	d0e005c3 	ldbu	r3,-32745(gp)
     86c:	00bfe004 	movi	r2,-128
     870:	1884f03a 	xor	r2,r3,r2
     874:	d0a005c5 	stb	r2,-32745(gp)
     878:	e037883a 	mov	sp,fp
     87c:	df000017 	ldw	fp,0(sp)
     880:	dec00104 	addi	sp,sp,4
     884:	f800283a 	ret

00000888 <set_led>:
     888:	defffe04 	addi	sp,sp,-8
     88c:	df000115 	stw	fp,4(sp)
     890:	df000104 	addi	fp,sp,4
     894:	00801fc4 	movi	r2,127
     898:	e0bfff05 	stb	r2,-4(fp)
     89c:	e0ffff03 	ldbu	r3,-4(fp)
     8a0:	00800134 	movhi	r2,4
     8a4:	10821c04 	addi	r2,r2,2160
     8a8:	10c00035 	stwio	r3,0(r2)
     8ac:	e037883a 	mov	sp,fp
     8b0:	df000017 	ldw	fp,0(sp)
     8b4:	dec00104 	addi	sp,sp,4
     8b8:	f800283a 	ret

000008bc <clear_led>:
     8bc:	defffe04 	addi	sp,sp,-8
     8c0:	df000115 	stw	fp,4(sp)
     8c4:	df000104 	addi	fp,sp,4
     8c8:	00bfffc4 	movi	r2,-1
     8cc:	e0bfff05 	stb	r2,-4(fp)
     8d0:	e0ffff03 	ldbu	r3,-4(fp)
     8d4:	00800134 	movhi	r2,4
     8d8:	10821c04 	addi	r2,r2,2160
     8dc:	10c00035 	stwio	r3,0(r2)
     8e0:	e037883a 	mov	sp,fp
     8e4:	df000017 	ldw	fp,0(sp)
     8e8:	dec00104 	addi	sp,sp,4
     8ec:	f800283a 	ret

000008f0 <setup_conv>:
     8f0:	defff504 	addi	sp,sp,-44
     8f4:	dfc00a15 	stw	ra,40(sp)
     8f8:	df000915 	stw	fp,36(sp)
     8fc:	df000904 	addi	fp,sp,36
     900:	2015883a 	mov	r10,r4
     904:	2813883a 	mov	r9,r5
     908:	3011883a 	mov	r8,r6
     90c:	380d883a 	mov	r6,r7
     910:	e1400217 	ldw	r5,8(fp)
     914:	e1000317 	ldw	r4,12(fp)
     918:	e0c00417 	ldw	r3,16(fp)
     91c:	e0800517 	ldw	r2,20(fp)
     920:	e2bff805 	stb	r10,-32(fp)
     924:	e27ff905 	stb	r9,-28(fp)
     928:	e23ffa05 	stb	r8,-24(fp)
     92c:	e1bffb05 	stb	r6,-20(fp)
     930:	e17ffc0d 	sth	r5,-16(fp)
     934:	e13ffd05 	stb	r4,-12(fp)
     938:	e0fffe05 	stb	r3,-8(fp)
     93c:	e0bfff05 	stb	r2,-4(fp)
     940:	e03ff715 	stw	zero,-36(fp)
     944:	e0bff903 	ldbu	r2,-28(fp)
     948:	108007cc 	andi	r2,r2,31
     94c:	1004917a 	slli	r2,r2,5
     950:	10e00014 	ori	r3,r2,32768
     954:	e0bffa03 	ldbu	r2,-24(fp)
     958:	108007cc 	andi	r2,r2,31
     95c:	1884b03a 	or	r2,r3,r2
     960:	e0bff715 	stw	r2,-36(fp)
     964:	e0fff803 	ldbu	r3,-32(fp)
     968:	e0bff717 	ldw	r2,-36(fp)
     96c:	1809883a 	mov	r4,r3
     970:	01400244 	movi	r5,9
     974:	100d883a 	mov	r6,r2
     978:	01c00084 	movi	r7,2
     97c:	00005140 	call	514 <ad7124_write_reg>
     980:	e0bffb03 	ldbu	r2,-20(fp)
     984:	108001cc 	andi	r2,r2,7
     988:	10827c14 	ori	r2,r2,2544
     98c:	e0bff715 	stw	r2,-36(fp)
     990:	e0fff803 	ldbu	r3,-32(fp)
     994:	e0bff717 	ldw	r2,-36(fp)
     998:	1809883a 	mov	r4,r3
     99c:	01400644 	movi	r5,25
     9a0:	100d883a 	mov	r6,r2
     9a4:	01c00084 	movi	r7,2
     9a8:	00005140 	call	514 <ad7124_write_reg>
     9ac:	e0bffc0b 	ldhu	r2,-16(fp)
     9b0:	1081ffcc 	andi	r2,r2,2047
     9b4:	108005b4 	orhi	r2,r2,22
     9b8:	e0bff715 	stw	r2,-36(fp)
     9bc:	e0fff803 	ldbu	r3,-32(fp)
     9c0:	e0bff717 	ldw	r2,-36(fp)
     9c4:	1809883a 	mov	r4,r3
     9c8:	01400844 	movi	r5,33
     9cc:	100d883a 	mov	r6,r2
     9d0:	01c000c4 	movi	r7,3
     9d4:	00005140 	call	514 <ad7124_write_reg>
     9d8:	e0bfff03 	ldbu	r2,-4(fp)
     9dc:	10000926 	beq	r2,zero,a04 <setup_conv+0x114>
     9e0:	00802034 	movhi	r2,128
     9e4:	e0bff715 	stw	r2,-36(fp)
     9e8:	e0fff803 	ldbu	r3,-32(fp)
     9ec:	e0bff717 	ldw	r2,-36(fp)
     9f0:	1809883a 	mov	r4,r3
     9f4:	01400a44 	movi	r5,41
     9f8:	100d883a 	mov	r6,r2
     9fc:	01c000c4 	movi	r7,3
     a00:	00005140 	call	514 <ad7124_write_reg>
     a04:	008001f4 	movhi	r2,7
     a08:	10820604 	addi	r2,r2,2072
     a0c:	e0bff715 	stw	r2,-36(fp)
     a10:	e0fff803 	ldbu	r3,-32(fp)
     a14:	e0bff717 	ldw	r2,-36(fp)
     a18:	1809883a 	mov	r4,r3
     a1c:	014001c4 	movi	r5,7
     a20:	100d883a 	mov	r6,r2
     a24:	01c000c4 	movi	r7,3
     a28:	00005140 	call	514 <ad7124_write_reg>
     a2c:	e0bffd03 	ldbu	r2,-12(fp)
     a30:	100491ba 	slli	r2,r2,6
     a34:	10c03fcc 	andi	r3,r2,255
     a38:	e0bffe03 	ldbu	r2,-8(fp)
     a3c:	108003cc 	andi	r2,r2,15
     a40:	1085883a 	add	r2,r2,r2
     a44:	1085883a 	add	r2,r2,r2
     a48:	1884b03a 	or	r2,r3,r2
     a4c:	10804014 	ori	r2,r2,256
     a50:	e0bff715 	stw	r2,-36(fp)
     a54:	e0fff803 	ldbu	r3,-32(fp)
     a58:	e0bff717 	ldw	r2,-36(fp)
     a5c:	1809883a 	mov	r4,r3
     a60:	01400044 	movi	r5,1
     a64:	100d883a 	mov	r6,r2
     a68:	01c00084 	movi	r7,2
     a6c:	00005140 	call	514 <ad7124_write_reg>
     a70:	e0bff803 	ldbu	r2,-32(fp)
     a74:	1009883a 	mov	r4,r2
     a78:	01400184 	movi	r5,6
     a7c:	e1bff704 	addi	r6,fp,-36
     a80:	01c000c4 	movi	r7,3
     a84:	00006100 	call	610 <ad7124_read_reg>
     a88:	0005883a 	mov	r2,zero
     a8c:	e037883a 	mov	sp,fp
     a90:	dfc00117 	ldw	ra,4(sp)
     a94:	df000017 	ldw	fp,0(sp)
     a98:	dec00204 	addi	sp,sp,8
     a9c:	f800283a 	ret

00000aa0 <calibrate_ad7124_8>:
     aa0:	defff804 	addi	sp,sp,-32
     aa4:	dfc00715 	stw	ra,28(sp)
     aa8:	df000615 	stw	fp,24(sp)
     aac:	df000604 	addi	fp,sp,24
     ab0:	e03fff15 	stw	zero,-4(fp)
     ab4:	e03ffe05 	stb	zero,-8(fp)
     ab8:	01000034 	movhi	r4,0
     abc:	21161604 	addi	r4,r4,22616
     ac0:	0001bfc0 	call	1bfc <printf>
     ac4:	01000034 	movhi	r4,0
     ac8:	21161904 	addi	r4,r4,22628
     acc:	0001ce80 	call	1ce8 <puts>
     ad0:	e03ffe05 	stb	zero,-8(fp)
     ad4:	00001106 	br	b1c <calibrate_ad7124_8+0x7c>
     ad8:	e0fffe03 	ldbu	r3,-8(fp)
     adc:	0081ffc4 	movi	r2,2047
     ae0:	d8800015 	stw	r2,0(sp)
     ae4:	00800044 	movi	r2,1
     ae8:	d8800115 	stw	r2,4(sp)
     aec:	00800184 	movi	r2,6
     af0:	d8800215 	stw	r2,8(sp)
     af4:	00800044 	movi	r2,1
     af8:	d8800315 	stw	r2,12(sp)
     afc:	1809883a 	mov	r4,r3
     b00:	01400204 	movi	r5,8
     b04:	018001c4 	movi	r6,7
     b08:	01c00084 	movi	r7,2
     b0c:	00008f00 	call	8f0 <setup_conv>
     b10:	e0bffe03 	ldbu	r2,-8(fp)
     b14:	10800044 	addi	r2,r2,1
     b18:	e0bffe05 	stb	r2,-8(fp)
     b1c:	e0bffe03 	ldbu	r2,-8(fp)
     b20:	10800330 	cmpltui	r2,r2,12
     b24:	103fec1e 	bne	r2,zero,ad8 <calibrate_ad7124_8+0x38>
     b28:	01001eb4 	movhi	r4,122
     b2c:	21048004 	addi	r4,r4,4608
     b30:	0002f200 	call	2f20 <usleep>
     b34:	e03ffe05 	stb	zero,-8(fp)
     b38:	00001006 	br	b7c <calibrate_ad7124_8+0xdc>
     b3c:	e0fffe03 	ldbu	r3,-8(fp)
     b40:	0081ffc4 	movi	r2,2047
     b44:	d8800015 	stw	r2,0(sp)
     b48:	00800044 	movi	r2,1
     b4c:	d8800115 	stw	r2,4(sp)
     b50:	00800144 	movi	r2,5
     b54:	d8800215 	stw	r2,8(sp)
     b58:	d8000315 	stw	zero,12(sp)
     b5c:	1809883a 	mov	r4,r3
     b60:	01400204 	movi	r5,8
     b64:	018001c4 	movi	r6,7
     b68:	01c00084 	movi	r7,2
     b6c:	00008f00 	call	8f0 <setup_conv>
     b70:	e0bffe03 	ldbu	r2,-8(fp)
     b74:	10800044 	addi	r2,r2,1
     b78:	e0bffe05 	stb	r2,-8(fp)
     b7c:	e0bffe03 	ldbu	r2,-8(fp)
     b80:	10800330 	cmpltui	r2,r2,12
     b84:	103fed1e 	bne	r2,zero,b3c <calibrate_ad7124_8+0x9c>
     b88:	01000bb4 	movhi	r4,46
     b8c:	2131b004 	addi	r4,r4,-14656
     b90:	0002f200 	call	2f20 <usleep>
     b94:	01000034 	movhi	r4,0
     b98:	21163a04 	addi	r4,r4,22760
     b9c:	0001bfc0 	call	1bfc <printf>
     ba0:	e03ffe05 	stb	zero,-8(fp)
     ba4:	00001206 	br	bf0 <calibrate_ad7124_8+0x150>
     ba8:	e0fffe03 	ldbu	r3,-8(fp)
     bac:	e0bfff04 	addi	r2,fp,-4
     bb0:	1809883a 	mov	r4,r3
     bb4:	01400c44 	movi	r5,49
     bb8:	100d883a 	mov	r6,r2
     bbc:	01c000c4 	movi	r7,3
     bc0:	00006100 	call	610 <ad7124_read_reg>
     bc4:	e0ffff17 	ldw	r3,-4(fp)
     bc8:	00804034 	movhi	r2,256
     bcc:	10bfffc4 	addi	r2,r2,-1
     bd0:	1884703a 	and	r2,r3,r2
     bd4:	01000034 	movhi	r4,0
     bd8:	21163d04 	addi	r4,r4,22772
     bdc:	100b883a 	mov	r5,r2
     be0:	0001bfc0 	call	1bfc <printf>
     be4:	e0bffe03 	ldbu	r2,-8(fp)
     be8:	10800044 	addi	r2,r2,1
     bec:	e0bffe05 	stb	r2,-8(fp)
     bf0:	e0bffe03 	ldbu	r2,-8(fp)
     bf4:	10800330 	cmpltui	r2,r2,12
     bf8:	103feb1e 	bne	r2,zero,ba8 <calibrate_ad7124_8+0x108>
     bfc:	01000034 	movhi	r4,0
     c00:	21163f04 	addi	r4,r4,22780
     c04:	0001bfc0 	call	1bfc <printf>
     c08:	e03ffe05 	stb	zero,-8(fp)
     c0c:	00001206 	br	c58 <calibrate_ad7124_8+0x1b8>
     c10:	e0fffe03 	ldbu	r3,-8(fp)
     c14:	e0bfff04 	addi	r2,fp,-4
     c18:	1809883a 	mov	r4,r3
     c1c:	01400a44 	movi	r5,41
     c20:	100d883a 	mov	r6,r2
     c24:	01c000c4 	movi	r7,3
     c28:	00006100 	call	610 <ad7124_read_reg>
     c2c:	e0ffff17 	ldw	r3,-4(fp)
     c30:	00804034 	movhi	r2,256
     c34:	10bfffc4 	addi	r2,r2,-1
     c38:	1884703a 	and	r2,r3,r2
     c3c:	01000034 	movhi	r4,0
     c40:	21163d04 	addi	r4,r4,22772
     c44:	100b883a 	mov	r5,r2
     c48:	0001bfc0 	call	1bfc <printf>
     c4c:	e0bffe03 	ldbu	r2,-8(fp)
     c50:	10800044 	addi	r2,r2,1
     c54:	e0bffe05 	stb	r2,-8(fp)
     c58:	e0bffe03 	ldbu	r2,-8(fp)
     c5c:	10800330 	cmpltui	r2,r2,12
     c60:	103feb1e 	bne	r2,zero,c10 <calibrate_ad7124_8+0x170>
     c64:	01000284 	movi	r4,10
     c68:	0001c500 	call	1c50 <putchar>
     c6c:	0005883a 	mov	r2,zero
     c70:	e037883a 	mov	sp,fp
     c74:	dfc00117 	ldw	ra,4(sp)
     c78:	df000017 	ldw	fp,0(sp)
     c7c:	dec00204 	addi	sp,sp,8
     c80:	f800283a 	ret

00000c84 <read_rx_fifo_char>:
     c84:	defffd04 	addi	sp,sp,-12
     c88:	dfc00215 	stw	ra,8(sp)
     c8c:	df000115 	stw	fp,4(sp)
     c90:	df000104 	addi	fp,sp,4
     c94:	00800044 	movi	r2,1
     c98:	e0bfff05 	stb	r2,-4(fp)
     c9c:	e0ffff03 	ldbu	r3,-4(fp)
     ca0:	00800134 	movhi	r2,4
     ca4:	10824c04 	addi	r2,r2,2352
     ca8:	10c00035 	stwio	r3,0(r2)
     cac:	e03fff05 	stb	zero,-4(fp)
     cb0:	e0ffff03 	ldbu	r3,-4(fp)
     cb4:	00800134 	movhi	r2,4
     cb8:	10824c04 	addi	r2,r2,2352
     cbc:	10c00035 	stwio	r3,0(r2)
     cc0:	00800134 	movhi	r2,4
     cc4:	10824804 	addi	r2,r2,2336
     cc8:	10800037 	ldwio	r2,0(r2)
     ccc:	e0bfff45 	stb	r2,-3(fp)
     cd0:	e0bfff47 	ldb	r2,-3(fp)
     cd4:	10801858 	cmpnei	r2,r2,97
     cd8:	1000011e 	bne	r2,zero,ce0 <read_rx_fifo_char+0x5c>
     cdc:	0000aa00 	call	aa0 <calibrate_ad7124_8>
     ce0:	e0bfff43 	ldbu	r2,-3(fp)
     ce4:	e037883a 	mov	sp,fp
     ce8:	dfc00117 	ldw	ra,4(sp)
     cec:	df000017 	ldw	fp,0(sp)
     cf0:	dec00204 	addi	sp,sp,8
     cf4:	f800283a 	ret

00000cf8 <read_rx_fifo>:
     cf8:	defffb04 	addi	sp,sp,-20
     cfc:	dfc00415 	stw	ra,16(sp)
     d00:	df000315 	stw	fp,12(sp)
     d04:	dc000215 	stw	r16,8(sp)
     d08:	df000304 	addi	fp,sp,12
     d0c:	e13ffe15 	stw	r4,-8(fp)
     d10:	e03ffd15 	stw	zero,-12(fp)
     d14:	e0bffe17 	ldw	r2,-8(fp)
     d18:	10000005 	stb	zero,0(r2)
     d1c:	00800134 	movhi	r2,4
     d20:	10825004 	addi	r2,r2,2368
     d24:	10800037 	ldwio	r2,0(r2)
     d28:	10002a1e 	bne	r2,zero,dd4 <read_rx_fifo+0xdc>
     d2c:	00800134 	movhi	r2,4
     d30:	10825004 	addi	r2,r2,2368
     d34:	10800037 	ldwio	r2,0(r2)
     d38:	1000201e 	bne	r2,zero,dbc <read_rx_fifo+0xc4>
     d3c:	e0fffe17 	ldw	r3,-8(fp)
     d40:	e0bffd17 	ldw	r2,-12(fp)
     d44:	18a1883a 	add	r16,r3,r2
     d48:	0000c840 	call	c84 <read_rx_fifo_char>
     d4c:	80800005 	stb	r2,0(r16)
     d50:	e0bffd17 	ldw	r2,-12(fp)
     d54:	10800044 	addi	r2,r2,1
     d58:	e0bffd15 	stw	r2,-12(fp)
     d5c:	e0bffd17 	ldw	r2,-12(fp)
     d60:	10810018 	cmpnei	r2,r2,1024
     d64:	1000051e 	bne	r2,zero,d7c <read_rx_fifo+0x84>
     d68:	01000034 	movhi	r4,0
     d6c:	21164204 	addi	r4,r4,22792
     d70:	0001ce80 	call	1ce8 <puts>
     d74:	e0bffd17 	ldw	r2,-12(fp)
     d78:	00001b06 	br	de8 <read_rx_fifo+0xf0>
     d7c:	e0bffd17 	ldw	r2,-12(fp)
     d80:	10bfffc4 	addi	r2,r2,-1
     d84:	e0fffe17 	ldw	r3,-8(fp)
     d88:	1885883a 	add	r2,r3,r2
     d8c:	10800003 	ldbu	r2,0(r2)
     d90:	10803fcc 	andi	r2,r2,255
     d94:	1080201c 	xori	r2,r2,128
     d98:	10bfe004 	addi	r2,r2,-128
     d9c:	10800298 	cmpnei	r2,r2,10
     da0:	1000061e 	bne	r2,zero,dbc <read_rx_fifo+0xc4>
     da4:	e0fffe17 	ldw	r3,-8(fp)
     da8:	e0bffd17 	ldw	r2,-12(fp)
     dac:	1885883a 	add	r2,r3,r2
     db0:	10000005 	stb	zero,0(r2)
     db4:	e0bffd17 	ldw	r2,-12(fp)
     db8:	00000b06 	br	de8 <read_rx_fifo+0xf0>
     dbc:	d0a01503 	ldbu	r2,-32684(gp)
     dc0:	10803fcc 	andi	r2,r2,255
     dc4:	10000226 	beq	r2,zero,dd0 <read_rx_fifo+0xd8>
     dc8:	e0bffd17 	ldw	r2,-12(fp)
     dcc:	00000606 	br	de8 <read_rx_fifo+0xf0>
     dd0:	003fd606 	br	d2c <read_rx_fifo+0x34>
     dd4:	e0fffe17 	ldw	r3,-8(fp)
     dd8:	e0bffd17 	ldw	r2,-12(fp)
     ddc:	1885883a 	add	r2,r3,r2
     de0:	10000005 	stb	zero,0(r2)
     de4:	e0bffd17 	ldw	r2,-12(fp)
     de8:	e6ffff04 	addi	sp,fp,-4
     dec:	dfc00217 	ldw	ra,8(sp)
     df0:	df000117 	ldw	fp,4(sp)
     df4:	dc000017 	ldw	r16,0(sp)
     df8:	dec00304 	addi	sp,sp,12
     dfc:	f800283a 	ret

00000e00 <write_ltc2605>:
     e00:	defffb04 	addi	sp,sp,-20
     e04:	dfc00415 	stw	ra,16(sp)
     e08:	df000315 	stw	fp,12(sp)
     e0c:	df000304 	addi	fp,sp,12
     e10:	2807883a 	mov	r3,r5
     e14:	3005883a 	mov	r2,r6
     e18:	e13ffd05 	stb	r4,-12(fp)
     e1c:	e0fffe05 	stb	r3,-8(fp)
     e20:	e0bfff0d 	sth	r2,-4(fp)
     e24:	e0bffd03 	ldbu	r2,-12(fp)
     e28:	01000134 	movhi	r4,4
     e2c:	21025804 	addi	r4,r4,2400
     e30:	100b883a 	mov	r5,r2
     e34:	000d883a 	mov	r6,zero
     e38:	00003180 	call	318 <I2C_start>
     e3c:	e0bffe03 	ldbu	r2,-8(fp)
     e40:	108003cc 	andi	r2,r2,15
     e44:	10800c14 	ori	r2,r2,48
     e48:	10803fcc 	andi	r2,r2,255
     e4c:	01000134 	movhi	r4,4
     e50:	21025804 	addi	r4,r4,2400
     e54:	100b883a 	mov	r5,r2
     e58:	000d883a 	mov	r6,zero
     e5c:	00004300 	call	430 <I2C_write>
     e60:	e0bfff0b 	ldhu	r2,-4(fp)
     e64:	1004d23a 	srli	r2,r2,8
     e68:	10803fcc 	andi	r2,r2,255
     e6c:	01000134 	movhi	r4,4
     e70:	21025804 	addi	r4,r4,2400
     e74:	100b883a 	mov	r5,r2
     e78:	000d883a 	mov	r6,zero
     e7c:	00004300 	call	430 <I2C_write>
     e80:	e0bfff0b 	ldhu	r2,-4(fp)
     e84:	10803fcc 	andi	r2,r2,255
     e88:	01000134 	movhi	r4,4
     e8c:	21025804 	addi	r4,r4,2400
     e90:	100b883a 	mov	r5,r2
     e94:	01800044 	movi	r6,1
     e98:	00004300 	call	430 <I2C_write>
     e9c:	0005883a 	mov	r2,zero
     ea0:	e037883a 	mov	sp,fp
     ea4:	dfc00117 	ldw	ra,4(sp)
     ea8:	df000017 	ldw	fp,0(sp)
     eac:	dec00204 	addi	sp,sp,8
     eb0:	f800283a 	ret

00000eb4 <execute_cmd>:
     eb4:	defff704 	addi	sp,sp,-36
     eb8:	dfc00815 	stw	ra,32(sp)
     ebc:	df000715 	stw	fp,28(sp)
     ec0:	df000704 	addi	fp,sp,28
     ec4:	e13ffe15 	stw	r4,-8(fp)
     ec8:	e17fff15 	stw	r5,-4(fp)
     ecc:	e03ff905 	stb	zero,-28(fp)
     ed0:	e03ff945 	stb	zero,-27(fp)
     ed4:	e03ffd0d 	sth	zero,-12(fp)
     ed8:	00800804 	movi	r2,32
     edc:	e0bffd8d 	sth	r2,-10(fp)
     ee0:	e03ffb05 	stb	zero,-20(fp)
     ee4:	e03ffc15 	stw	zero,-16(fp)
     ee8:	e0bffd84 	addi	r2,fp,-10
     eec:	e13ffe17 	ldw	r4,-8(fp)
     ef0:	100b883a 	mov	r5,r2
     ef4:	0001d180 	call	1d18 <strtok>
     ef8:	e0bffa15 	stw	r2,-24(fp)
     efc:	00003506 	br	fd4 <execute_cmd+0x120>
     f00:	e0bffb03 	ldbu	r2,-20(fp)
     f04:	10000c1e 	bne	r2,zero,f38 <execute_cmd+0x84>
     f08:	e0bffa17 	ldw	r2,-24(fp)
     f0c:	10800003 	ldbu	r2,0(r2)
     f10:	10803fcc 	andi	r2,r2,255
     f14:	1080201c 	xori	r2,r2,128
     f18:	10bfe004 	addi	r2,r2,-128
     f1c:	108018e0 	cmpeqi	r2,r2,99
     f20:	1000021e 	bne	r2,zero,f2c <execute_cmd+0x78>
     f24:	e03ffb05 	stb	zero,-20(fp)
     f28:	00002506 	br	fc0 <execute_cmd+0x10c>
     f2c:	00800044 	movi	r2,1
     f30:	e0bffb05 	stb	r2,-20(fp)
     f34:	00002206 	br	fc0 <execute_cmd+0x10c>
     f38:	e0bffb03 	ldbu	r2,-20(fp)
     f3c:	10800058 	cmpnei	r2,r2,1
     f40:	1000061e 	bne	r2,zero,f5c <execute_cmd+0xa8>
     f44:	e13ffa17 	ldw	r4,-24(fp)
     f48:	0001ba80 	call	1ba8 <atoi>
     f4c:	e0bff905 	stb	r2,-28(fp)
     f50:	00800084 	movi	r2,2
     f54:	e0bffb05 	stb	r2,-20(fp)
     f58:	00001906 	br	fc0 <execute_cmd+0x10c>
     f5c:	e0bffb03 	ldbu	r2,-20(fp)
     f60:	10800098 	cmpnei	r2,r2,2
     f64:	1000061e 	bne	r2,zero,f80 <execute_cmd+0xcc>
     f68:	e13ffa17 	ldw	r4,-24(fp)
     f6c:	0001ba80 	call	1ba8 <atoi>
     f70:	e0bff945 	stb	r2,-27(fp)
     f74:	008000c4 	movi	r2,3
     f78:	e0bffb05 	stb	r2,-20(fp)
     f7c:	00001006 	br	fc0 <execute_cmd+0x10c>
     f80:	e0bffb03 	ldbu	r2,-20(fp)
     f84:	108000d8 	cmpnei	r2,r2,3
     f88:	10000d1e 	bne	r2,zero,fc0 <execute_cmd+0x10c>
     f8c:	e13ffa17 	ldw	r4,-24(fp)
     f90:	0001ba80 	call	1ba8 <atoi>
     f94:	e0bffd0d 	sth	r2,-12(fp)
     f98:	e13ff903 	ldbu	r4,-28(fp)
     f9c:	e0fff943 	ldbu	r3,-27(fp)
     fa0:	e0bffd0b 	ldhu	r2,-12(fp)
     fa4:	180b883a 	mov	r5,r3
     fa8:	100d883a 	mov	r6,r2
     fac:	0000e000 	call	e00 <write_ltc2605>
     fb0:	e0bffc17 	ldw	r2,-16(fp)
     fb4:	10800044 	addi	r2,r2,1
     fb8:	e0bffc15 	stw	r2,-16(fp)
     fbc:	e03ffb05 	stb	zero,-20(fp)
     fc0:	e0bffd84 	addi	r2,fp,-10
     fc4:	0009883a 	mov	r4,zero
     fc8:	100b883a 	mov	r5,r2
     fcc:	0001d180 	call	1d18 <strtok>
     fd0:	e0bffa15 	stw	r2,-24(fp)
     fd4:	e0bffa17 	ldw	r2,-24(fp)
     fd8:	103fc91e 	bne	r2,zero,f00 <execute_cmd+0x4c>
     fdc:	e0bffc17 	ldw	r2,-16(fp)
     fe0:	e037883a 	mov	sp,fp
     fe4:	dfc00117 	ldw	ra,4(sp)
     fe8:	df000017 	ldw	fp,0(sp)
     fec:	dec00204 	addi	sp,sp,8
     ff0:	f800283a 	ret

00000ff4 <print_table>:
     ff4:	defff904 	addi	sp,sp,-28
     ff8:	dfc00615 	stw	ra,24(sp)
     ffc:	df000515 	stw	fp,20(sp)
    1000:	df000504 	addi	fp,sp,20
    1004:	e13ffc15 	stw	r4,-16(fp)
    1008:	e17ffd15 	stw	r5,-12(fp)
    100c:	e1bffe15 	stw	r6,-8(fp)
    1010:	e1ffff15 	stw	r7,-4(fp)
    1014:	e03ffb05 	stb	zero,-20(fp)
    1018:	e03ffb45 	stb	zero,-19(fp)
    101c:	01000284 	movi	r4,10
    1020:	0001c500 	call	1c50 <putchar>
    1024:	01000034 	movhi	r4,0
    1028:	21164b04 	addi	r4,r4,22828
    102c:	01400044 	movi	r5,1
    1030:	018004c4 	movi	r6,19
    1034:	0001bfc0 	call	1bfc <printf>
    1038:	01000034 	movhi	r4,0
    103c:	21161604 	addi	r4,r4,22616
    1040:	0001bfc0 	call	1bfc <printf>
    1044:	e03ffb05 	stb	zero,-20(fp)
    1048:	00000806 	br	106c <print_table+0x78>
    104c:	e0bffb03 	ldbu	r2,-20(fp)
    1050:	01000034 	movhi	r4,0
    1054:	21165604 	addi	r4,r4,22872
    1058:	100b883a 	mov	r5,r2
    105c:	0001bfc0 	call	1bfc <printf>
    1060:	e0bffb03 	ldbu	r2,-20(fp)
    1064:	10800044 	addi	r2,r2,1
    1068:	e0bffb05 	stb	r2,-20(fp)
    106c:	e0bffb03 	ldbu	r2,-20(fp)
    1070:	10800330 	cmpltui	r2,r2,12
    1074:	103ff51e 	bne	r2,zero,104c <print_table+0x58>
    1078:	01000284 	movi	r4,10
    107c:	0001c500 	call	1c50 <putchar>
    1080:	01000034 	movhi	r4,0
    1084:	21165a04 	addi	r4,r4,22888
    1088:	0001bfc0 	call	1bfc <printf>
    108c:	e03ffb05 	stb	zero,-20(fp)
    1090:	00001106 	br	10d8 <print_table+0xe4>
    1094:	e0bffb03 	ldbu	r2,-20(fp)
    1098:	1085883a 	add	r2,r2,r2
    109c:	1085883a 	add	r2,r2,r2
    10a0:	1007883a 	mov	r3,r2
    10a4:	e0bffc17 	ldw	r2,-16(fp)
    10a8:	10c5883a 	add	r2,r2,r3
    10ac:	10c00017 	ldw	r3,0(r2)
    10b0:	00804034 	movhi	r2,256
    10b4:	10bfffc4 	addi	r2,r2,-1
    10b8:	1884703a 	and	r2,r3,r2
    10bc:	01000034 	movhi	r4,0
    10c0:	21163d04 	addi	r4,r4,22772
    10c4:	100b883a 	mov	r5,r2
    10c8:	0001bfc0 	call	1bfc <printf>
    10cc:	e0bffb03 	ldbu	r2,-20(fp)
    10d0:	10800044 	addi	r2,r2,1
    10d4:	e0bffb05 	stb	r2,-20(fp)
    10d8:	e0bffb03 	ldbu	r2,-20(fp)
    10dc:	10800330 	cmpltui	r2,r2,12
    10e0:	103fec1e 	bne	r2,zero,1094 <print_table+0xa0>
    10e4:	01000284 	movi	r4,10
    10e8:	0001c500 	call	1c50 <putchar>
    10ec:	01000034 	movhi	r4,0
    10f0:	21165d04 	addi	r4,r4,22900
    10f4:	0001bfc0 	call	1bfc <printf>
    10f8:	e03ffb05 	stb	zero,-20(fp)
    10fc:	00001106 	br	1144 <print_table+0x150>
    1100:	e0bffb03 	ldbu	r2,-20(fp)
    1104:	1085883a 	add	r2,r2,r2
    1108:	1085883a 	add	r2,r2,r2
    110c:	1007883a 	mov	r3,r2
    1110:	e0bffd17 	ldw	r2,-12(fp)
    1114:	10c5883a 	add	r2,r2,r3
    1118:	10c00017 	ldw	r3,0(r2)
    111c:	00804034 	movhi	r2,256
    1120:	10bfffc4 	addi	r2,r2,-1
    1124:	1884703a 	and	r2,r3,r2
    1128:	01000034 	movhi	r4,0
    112c:	21163d04 	addi	r4,r4,22772
    1130:	100b883a 	mov	r5,r2
    1134:	0001bfc0 	call	1bfc <printf>
    1138:	e0bffb03 	ldbu	r2,-20(fp)
    113c:	10800044 	addi	r2,r2,1
    1140:	e0bffb05 	stb	r2,-20(fp)
    1144:	e0bffb03 	ldbu	r2,-20(fp)
    1148:	10800330 	cmpltui	r2,r2,12
    114c:	103fec1e 	bne	r2,zero,1100 <print_table+0x10c>
    1150:	01000284 	movi	r4,10
    1154:	0001c500 	call	1c50 <putchar>
    1158:	e03ffb45 	stb	zero,-19(fp)
    115c:	00002506 	br	11f4 <print_table+0x200>
    1160:	e0bffb43 	ldbu	r2,-19(fp)
    1164:	01000034 	movhi	r4,0
    1168:	21166004 	addi	r4,r4,22912
    116c:	100b883a 	mov	r5,r2
    1170:	0001bfc0 	call	1bfc <printf>
    1174:	e03ffb05 	stb	zero,-20(fp)
    1178:	00001606 	br	11d4 <print_table+0x1e0>
    117c:	e0bffb43 	ldbu	r2,-19(fp)
    1180:	1009883a 	mov	r4,r2
    1184:	01400c04 	movi	r5,48
    1188:	0001b800 	call	1b80 <__mulsi3>
    118c:	1007883a 	mov	r3,r2
    1190:	e0800217 	ldw	r2,8(fp)
    1194:	10c7883a 	add	r3,r2,r3
    1198:	e0bffb03 	ldbu	r2,-20(fp)
    119c:	1085883a 	add	r2,r2,r2
    11a0:	1085883a 	add	r2,r2,r2
    11a4:	1885883a 	add	r2,r3,r2
    11a8:	10c00017 	ldw	r3,0(r2)
    11ac:	00804034 	movhi	r2,256
    11b0:	10bfffc4 	addi	r2,r2,-1
    11b4:	1884703a 	and	r2,r3,r2
    11b8:	01000034 	movhi	r4,0
    11bc:	21163d04 	addi	r4,r4,22772
    11c0:	100b883a 	mov	r5,r2
    11c4:	0001bfc0 	call	1bfc <printf>
    11c8:	e0bffb03 	ldbu	r2,-20(fp)
    11cc:	10800044 	addi	r2,r2,1
    11d0:	e0bffb05 	stb	r2,-20(fp)
    11d4:	e0bffb03 	ldbu	r2,-20(fp)
    11d8:	10800330 	cmpltui	r2,r2,12
    11dc:	103fe71e 	bne	r2,zero,117c <print_table+0x188>
    11e0:	01000284 	movi	r4,10
    11e4:	0001c500 	call	1c50 <putchar>
    11e8:	e0bffb43 	ldbu	r2,-19(fp)
    11ec:	10800044 	addi	r2,r2,1
    11f0:	e0bffb45 	stb	r2,-19(fp)
    11f4:	e0bffb43 	ldbu	r2,-19(fp)
    11f8:	108001b0 	cmpltui	r2,r2,6
    11fc:	103fd81e 	bne	r2,zero,1160 <print_table+0x16c>
    1200:	e03ffb45 	stb	zero,-19(fp)
    1204:	00002506 	br	129c <print_table+0x2a8>
    1208:	e0bffb43 	ldbu	r2,-19(fp)
    120c:	01000034 	movhi	r4,0
    1210:	21166304 	addi	r4,r4,22924
    1214:	100b883a 	mov	r5,r2
    1218:	0001bfc0 	call	1bfc <printf>
    121c:	e03ffb05 	stb	zero,-20(fp)
    1220:	00001606 	br	127c <print_table+0x288>
    1224:	e0bffb43 	ldbu	r2,-19(fp)
    1228:	1009883a 	mov	r4,r2
    122c:	01400c04 	movi	r5,48
    1230:	0001b800 	call	1b80 <__mulsi3>
    1234:	1007883a 	mov	r3,r2
    1238:	e0bffe17 	ldw	r2,-8(fp)
    123c:	10c7883a 	add	r3,r2,r3
    1240:	e0bffb03 	ldbu	r2,-20(fp)
    1244:	1085883a 	add	r2,r2,r2
    1248:	1085883a 	add	r2,r2,r2
    124c:	1885883a 	add	r2,r3,r2
    1250:	10c00017 	ldw	r3,0(r2)
    1254:	00804034 	movhi	r2,256
    1258:	10bfffc4 	addi	r2,r2,-1
    125c:	1884703a 	and	r2,r3,r2
    1260:	01000034 	movhi	r4,0
    1264:	21166604 	addi	r4,r4,22936
    1268:	100b883a 	mov	r5,r2
    126c:	0001bfc0 	call	1bfc <printf>
    1270:	e0bffb03 	ldbu	r2,-20(fp)
    1274:	10800044 	addi	r2,r2,1
    1278:	e0bffb05 	stb	r2,-20(fp)
    127c:	e0bffb03 	ldbu	r2,-20(fp)
    1280:	10800330 	cmpltui	r2,r2,12
    1284:	103fe71e 	bne	r2,zero,1224 <print_table+0x230>
    1288:	01000284 	movi	r4,10
    128c:	0001c500 	call	1c50 <putchar>
    1290:	e0bffb43 	ldbu	r2,-19(fp)
    1294:	10800044 	addi	r2,r2,1
    1298:	e0bffb45 	stb	r2,-19(fp)
    129c:	e0bffb43 	ldbu	r2,-19(fp)
    12a0:	108001b0 	cmpltui	r2,r2,6
    12a4:	103fd81e 	bne	r2,zero,1208 <print_table+0x214>
    12a8:	e03ffb45 	stb	zero,-19(fp)
    12ac:	00002506 	br	1344 <print_table+0x350>
    12b0:	e0bffb43 	ldbu	r2,-19(fp)
    12b4:	01000034 	movhi	r4,0
    12b8:	21166904 	addi	r4,r4,22948
    12bc:	100b883a 	mov	r5,r2
    12c0:	0001bfc0 	call	1bfc <printf>
    12c4:	e03ffb05 	stb	zero,-20(fp)
    12c8:	00001606 	br	1324 <print_table+0x330>
    12cc:	e0bffb43 	ldbu	r2,-19(fp)
    12d0:	1009883a 	mov	r4,r2
    12d4:	01400c04 	movi	r5,48
    12d8:	0001b800 	call	1b80 <__mulsi3>
    12dc:	1007883a 	mov	r3,r2
    12e0:	e0800317 	ldw	r2,12(fp)
    12e4:	10c7883a 	add	r3,r2,r3
    12e8:	e0bffb03 	ldbu	r2,-20(fp)
    12ec:	1085883a 	add	r2,r2,r2
    12f0:	1085883a 	add	r2,r2,r2
    12f4:	1885883a 	add	r2,r3,r2
    12f8:	10c00017 	ldw	r3,0(r2)
    12fc:	00804034 	movhi	r2,256
    1300:	10bfffc4 	addi	r2,r2,-1
    1304:	1884703a 	and	r2,r3,r2
    1308:	01000034 	movhi	r4,0
    130c:	21163d04 	addi	r4,r4,22772
    1310:	100b883a 	mov	r5,r2
    1314:	0001bfc0 	call	1bfc <printf>
    1318:	e0bffb03 	ldbu	r2,-20(fp)
    131c:	10800044 	addi	r2,r2,1
    1320:	e0bffb05 	stb	r2,-20(fp)
    1324:	e0bffb03 	ldbu	r2,-20(fp)
    1328:	10800330 	cmpltui	r2,r2,12
    132c:	103fe71e 	bne	r2,zero,12cc <print_table+0x2d8>
    1330:	01000284 	movi	r4,10
    1334:	0001c500 	call	1c50 <putchar>
    1338:	e0bffb43 	ldbu	r2,-19(fp)
    133c:	10800044 	addi	r2,r2,1
    1340:	e0bffb45 	stb	r2,-19(fp)
    1344:	e0bffb43 	ldbu	r2,-19(fp)
    1348:	108001b0 	cmpltui	r2,r2,6
    134c:	103fd81e 	bne	r2,zero,12b0 <print_table+0x2bc>
    1350:	e03ffb45 	stb	zero,-19(fp)
    1354:	00002506 	br	13ec <print_table+0x3f8>
    1358:	e0bffb43 	ldbu	r2,-19(fp)
    135c:	01000034 	movhi	r4,0
    1360:	21166c04 	addi	r4,r4,22960
    1364:	100b883a 	mov	r5,r2
    1368:	0001bfc0 	call	1bfc <printf>
    136c:	e03ffb05 	stb	zero,-20(fp)
    1370:	00001606 	br	13cc <print_table+0x3d8>
    1374:	e0bffb43 	ldbu	r2,-19(fp)
    1378:	1009883a 	mov	r4,r2
    137c:	01400c04 	movi	r5,48
    1380:	0001b800 	call	1b80 <__mulsi3>
    1384:	1007883a 	mov	r3,r2
    1388:	e0bfff17 	ldw	r2,-4(fp)
    138c:	10c7883a 	add	r3,r2,r3
    1390:	e0bffb03 	ldbu	r2,-20(fp)
    1394:	1085883a 	add	r2,r2,r2
    1398:	1085883a 	add	r2,r2,r2
    139c:	1885883a 	add	r2,r3,r2
    13a0:	10c00017 	ldw	r3,0(r2)
    13a4:	00804034 	movhi	r2,256
    13a8:	10bfffc4 	addi	r2,r2,-1
    13ac:	1884703a 	and	r2,r3,r2
    13b0:	01000034 	movhi	r4,0
    13b4:	21166604 	addi	r4,r4,22936
    13b8:	100b883a 	mov	r5,r2
    13bc:	0001bfc0 	call	1bfc <printf>
    13c0:	e0bffb03 	ldbu	r2,-20(fp)
    13c4:	10800044 	addi	r2,r2,1
    13c8:	e0bffb05 	stb	r2,-20(fp)
    13cc:	e0bffb03 	ldbu	r2,-20(fp)
    13d0:	10800330 	cmpltui	r2,r2,12
    13d4:	103fe71e 	bne	r2,zero,1374 <print_table+0x380>
    13d8:	01000284 	movi	r4,10
    13dc:	0001c500 	call	1c50 <putchar>
    13e0:	e0bffb43 	ldbu	r2,-19(fp)
    13e4:	10800044 	addi	r2,r2,1
    13e8:	e0bffb45 	stb	r2,-19(fp)
    13ec:	e0bffb43 	ldbu	r2,-19(fp)
    13f0:	108001b0 	cmpltui	r2,r2,6
    13f4:	103fd81e 	bne	r2,zero,1358 <print_table+0x364>
    13f8:	01000034 	movhi	r4,0
    13fc:	21166f04 	addi	r4,r4,22972
    1400:	0001bfc0 	call	1bfc <printf>
    1404:	e03ffb05 	stb	zero,-20(fp)
    1408:	00001106 	br	1450 <print_table+0x45c>
    140c:	e0bffb03 	ldbu	r2,-20(fp)
    1410:	1085883a 	add	r2,r2,r2
    1414:	1085883a 	add	r2,r2,r2
    1418:	1007883a 	mov	r3,r2
    141c:	e0800417 	ldw	r2,16(fp)
    1420:	10c5883a 	add	r2,r2,r3
    1424:	10c00017 	ldw	r3,0(r2)
    1428:	00804034 	movhi	r2,256
    142c:	10bfffc4 	addi	r2,r2,-1
    1430:	1884703a 	and	r2,r3,r2
    1434:	01000034 	movhi	r4,0
    1438:	21163d04 	addi	r4,r4,22772
    143c:	100b883a 	mov	r5,r2
    1440:	0001bfc0 	call	1bfc <printf>
    1444:	e0bffb03 	ldbu	r2,-20(fp)
    1448:	10800044 	addi	r2,r2,1
    144c:	e0bffb05 	stb	r2,-20(fp)
    1450:	e0bffb03 	ldbu	r2,-20(fp)
    1454:	10800330 	cmpltui	r2,r2,12
    1458:	103fec1e 	bne	r2,zero,140c <print_table+0x418>
    145c:	01000284 	movi	r4,10
    1460:	0001c500 	call	1c50 <putchar>
    1464:	01000034 	movhi	r4,0
    1468:	21167204 	addi	r4,r4,22984
    146c:	0001bfc0 	call	1bfc <printf>
    1470:	e03ffb05 	stb	zero,-20(fp)
    1474:	00001106 	br	14bc <print_table+0x4c8>
    1478:	e0bffb03 	ldbu	r2,-20(fp)
    147c:	1085883a 	add	r2,r2,r2
    1480:	1085883a 	add	r2,r2,r2
    1484:	1007883a 	mov	r3,r2
    1488:	e0800517 	ldw	r2,20(fp)
    148c:	10c5883a 	add	r2,r2,r3
    1490:	10c00017 	ldw	r3,0(r2)
    1494:	00804034 	movhi	r2,256
    1498:	10bfffc4 	addi	r2,r2,-1
    149c:	1884703a 	and	r2,r3,r2
    14a0:	01000034 	movhi	r4,0
    14a4:	21163d04 	addi	r4,r4,22772
    14a8:	100b883a 	mov	r5,r2
    14ac:	0001bfc0 	call	1bfc <printf>
    14b0:	e0bffb03 	ldbu	r2,-20(fp)
    14b4:	10800044 	addi	r2,r2,1
    14b8:	e0bffb05 	stb	r2,-20(fp)
    14bc:	e0bffb03 	ldbu	r2,-20(fp)
    14c0:	10800330 	cmpltui	r2,r2,12
    14c4:	103fec1e 	bne	r2,zero,1478 <print_table+0x484>
    14c8:	01000284 	movi	r4,10
    14cc:	0001c500 	call	1c50 <putchar>
    14d0:	0005883a 	mov	r2,zero
    14d4:	e037883a 	mov	sp,fp
    14d8:	dfc00117 	ldw	ra,4(sp)
    14dc:	df000017 	ldw	fp,0(sp)
    14e0:	dec00204 	addi	sp,sp,8
    14e4:	f800283a 	ret

000014e8 <main>:
    14e8:	defda204 	addi	sp,sp,-2424
    14ec:	dfc25d15 	stw	ra,2420(sp)
    14f0:	df025c15 	stw	fp,2416(sp)
    14f4:	dc025b15 	stw	r16,2412(sp)
    14f8:	df025c04 	addi	fp,sp,2416
    14fc:	00bfffc4 	movi	r2,-1
    1500:	e0bdab05 	stb	r2,-2388(fp)
    1504:	e03da805 	stb	zero,-2400(fp)
    1508:	e03da845 	stb	zero,-2399(fp)
    150c:	e03dac15 	stw	zero,-2384(fp)
    1510:	e03da915 	stw	zero,-2396(fp)
    1514:	e03dad15 	stw	zero,-2380(fp)
    1518:	e03daa15 	stw	zero,-2392(fp)
    151c:	e03dae15 	stw	zero,-2376(fp)
    1520:	d0201505 	stb	zero,-32684(gp)
    1524:	e0fdab03 	ldbu	r3,-2388(fp)
    1528:	00800134 	movhi	r2,4
    152c:	10821c04 	addi	r2,r2,2160
    1530:	10c00035 	stwio	r3,0(r2)
    1534:	01000034 	movhi	r4,0
    1538:	21167504 	addi	r4,r4,22996
    153c:	0001ce80 	call	1ce8 <puts>
    1540:	01000034 	movhi	r4,0
    1544:	21168304 	addi	r4,r4,23052
    1548:	01400044 	movi	r5,1
    154c:	018004c4 	movi	r6,19
    1550:	0001bfc0 	call	1bfc <printf>
    1554:	00c00244 	movi	r3,9
    1558:	00800134 	movhi	r2,4
    155c:	10824104 	addi	r2,r2,2308
    1560:	10c00035 	stwio	r3,0(r2)
    1564:	0007883a 	mov	r3,zero
    1568:	00800134 	movhi	r2,4
    156c:	10824004 	addi	r2,r2,2304
    1570:	10c00035 	stwio	r3,0(r2)
    1574:	d8000015 	stw	zero,0(sp)
    1578:	0009883a 	mov	r4,zero
    157c:	014000c4 	movi	r5,3
    1580:	01800034 	movhi	r6,0
    1584:	31813704 	addi	r6,r6,1244
    1588:	e1fdae17 	ldw	r7,-2376(fp)
    158c:	0002b280 	call	2b28 <alt_ic_isr_register>
    1590:	00c00144 	movi	r3,5
    1594:	00800134 	movhi	r2,4
    1598:	10824104 	addi	r2,r2,2308
    159c:	10c00035 	stwio	r3,0(r2)
    15a0:	01000134 	movhi	r4,4
    15a4:	21025804 	addi	r4,r4,2400
    15a8:	0140bef4 	movhi	r5,763
    15ac:	297c2004 	addi	r5,r5,-3968
    15b0:	018000b4 	movhi	r6,2
    15b4:	31a1a804 	addi	r6,r6,-31072
    15b8:	00002640 	call	264 <I2C_init>
    15bc:	00008480 	call	848 <flip_led>
    15c0:	e03da805 	stb	zero,-2400(fp)
    15c4:	00001006 	br	1608 <main+0x120>
    15c8:	e0fda803 	ldbu	r3,-2400(fp)
    15cc:	0080a004 	movi	r2,640
    15d0:	d8800015 	stw	r2,0(sp)
    15d4:	008000c4 	movi	r2,3
    15d8:	d8800115 	stw	r2,4(sp)
    15dc:	00800044 	movi	r2,1
    15e0:	d8800215 	stw	r2,8(sp)
    15e4:	d8000315 	stw	zero,12(sp)
    15e8:	1809883a 	mov	r4,r3
    15ec:	014001c4 	movi	r5,7
    15f0:	000d883a 	mov	r6,zero
    15f4:	01c00044 	movi	r7,1
    15f8:	00008f00 	call	8f0 <setup_conv>
    15fc:	e0bda803 	ldbu	r2,-2400(fp)
    1600:	10800044 	addi	r2,r2,1
    1604:	e0bda805 	stb	r2,-2400(fp)
    1608:	e0bda803 	ldbu	r2,-2400(fp)
    160c:	10800330 	cmpltui	r2,r2,12
    1610:	103fed1e 	bne	r2,zero,15c8 <main+0xe0>
    1614:	010000b4 	movhi	r4,2
    1618:	21304e04 	addi	r4,r4,-16072
    161c:	0002f200 	call	2f20 <usleep>
    1620:	e0bdaf04 	addi	r2,fp,-2372
    1624:	1009883a 	mov	r4,r2
    1628:	01400084 	movi	r5,2
    162c:	018000c4 	movi	r6,3
    1630:	00007a40 	call	7a4 <read_chan>
    1634:	e03da805 	stb	zero,-2400(fp)
    1638:	00001006 	br	167c <main+0x194>
    163c:	e0fda803 	ldbu	r3,-2400(fp)
    1640:	0080a004 	movi	r2,640
    1644:	d8800015 	stw	r2,0(sp)
    1648:	008000c4 	movi	r2,3
    164c:	d8800115 	stw	r2,4(sp)
    1650:	00800044 	movi	r2,1
    1654:	d8800215 	stw	r2,8(sp)
    1658:	d8000315 	stw	zero,12(sp)
    165c:	1809883a 	mov	r4,r3
    1660:	014001c4 	movi	r5,7
    1664:	018001c4 	movi	r6,7
    1668:	01c00044 	movi	r7,1
    166c:	00008f00 	call	8f0 <setup_conv>
    1670:	e0bda803 	ldbu	r2,-2400(fp)
    1674:	10800044 	addi	r2,r2,1
    1678:	e0bda805 	stb	r2,-2400(fp)
    167c:	e0bda803 	ldbu	r2,-2400(fp)
    1680:	10800330 	cmpltui	r2,r2,12
    1684:	103fed1e 	bne	r2,zero,163c <main+0x154>
    1688:	010000b4 	movhi	r4,2
    168c:	21304e04 	addi	r4,r4,-16072
    1690:	0002f200 	call	2f20 <usleep>
    1694:	e0bdbb04 	addi	r2,fp,-2324
    1698:	1009883a 	mov	r4,r2
    169c:	01400084 	movi	r5,2
    16a0:	018000c4 	movi	r6,3
    16a4:	00007a40 	call	7a4 <read_chan>
    16a8:	e03da845 	stb	zero,-2399(fp)
    16ac:	00006706 	br	184c <main+0x364>
    16b0:	e03da805 	stb	zero,-2400(fp)
    16b4:	00001806 	br	1718 <main+0x230>
    16b8:	e13da803 	ldbu	r4,-2400(fp)
    16bc:	e0fda843 	ldbu	r3,-2399(fp)
    16c0:	d0a001c4 	addi	r2,gp,-32761
    16c4:	1885883a 	add	r2,r3,r2
    16c8:	10800003 	ldbu	r2,0(r2)
    16cc:	11403fcc 	andi	r5,r2,255
    16d0:	e0fda843 	ldbu	r3,-2399(fp)
    16d4:	d0a00344 	addi	r2,gp,-32755
    16d8:	1885883a 	add	r2,r3,r2
    16dc:	10800003 	ldbu	r2,0(r2)
    16e0:	10c03fcc 	andi	r3,r2,255
    16e4:	0080a004 	movi	r2,640
    16e8:	d8800015 	stw	r2,0(sp)
    16ec:	008000c4 	movi	r2,3
    16f0:	d8800115 	stw	r2,4(sp)
    16f4:	00800044 	movi	r2,1
    16f8:	d8800215 	stw	r2,8(sp)
    16fc:	d8000315 	stw	zero,12(sp)
    1700:	180d883a 	mov	r6,r3
    1704:	01c00044 	movi	r7,1
    1708:	00008f00 	call	8f0 <setup_conv>
    170c:	e0bda803 	ldbu	r2,-2400(fp)
    1710:	10800044 	addi	r2,r2,1
    1714:	e0bda805 	stb	r2,-2400(fp)
    1718:	e0bda803 	ldbu	r2,-2400(fp)
    171c:	10800330 	cmpltui	r2,r2,12
    1720:	103fe51e 	bne	r2,zero,16b8 <main+0x1d0>
    1724:	010000b4 	movhi	r4,2
    1728:	21304e04 	addi	r4,r4,-16072
    172c:	0002f200 	call	2f20 <usleep>
    1730:	e0bda843 	ldbu	r2,-2399(fp)
    1734:	e43e5704 	addi	r16,fp,-1700
    1738:	1009883a 	mov	r4,r2
    173c:	01400c04 	movi	r5,48
    1740:	0001b800 	call	1b80 <__mulsi3>
    1744:	8085883a 	add	r2,r16,r2
    1748:	1009883a 	mov	r4,r2
    174c:	01400084 	movi	r5,2
    1750:	018000c4 	movi	r6,3
    1754:	00007a40 	call	7a4 <read_chan>
    1758:	e03da805 	stb	zero,-2400(fp)
    175c:	00001406 	br	17b0 <main+0x2c8>
    1760:	e13da803 	ldbu	r4,-2400(fp)
    1764:	e0fda843 	ldbu	r3,-2399(fp)
    1768:	d0a00004 	addi	r2,gp,-32768
    176c:	1885883a 	add	r2,r3,r2
    1770:	10800003 	ldbu	r2,0(r2)
    1774:	10c03fcc 	andi	r3,r2,255
    1778:	0080a004 	movi	r2,640
    177c:	d8800015 	stw	r2,0(sp)
    1780:	008000c4 	movi	r2,3
    1784:	d8800115 	stw	r2,4(sp)
    1788:	00800044 	movi	r2,1
    178c:	d8800215 	stw	r2,8(sp)
    1790:	d8000315 	stw	zero,12(sp)
    1794:	180b883a 	mov	r5,r3
    1798:	000d883a 	mov	r6,zero
    179c:	01c00044 	movi	r7,1
    17a0:	00008f00 	call	8f0 <setup_conv>
    17a4:	e0bda803 	ldbu	r2,-2400(fp)
    17a8:	10800044 	addi	r2,r2,1
    17ac:	e0bda805 	stb	r2,-2400(fp)
    17b0:	e0bda803 	ldbu	r2,-2400(fp)
    17b4:	10800330 	cmpltui	r2,r2,12
    17b8:	103fe91e 	bne	r2,zero,1760 <main+0x278>
    17bc:	010000b4 	movhi	r4,2
    17c0:	21304e04 	addi	r4,r4,-16072
    17c4:	0002f200 	call	2f20 <usleep>
    17c8:	e0bda843 	ldbu	r2,-2399(fp)
    17cc:	e43dc704 	addi	r16,fp,-2276
    17d0:	1009883a 	mov	r4,r2
    17d4:	01400c04 	movi	r5,48
    17d8:	0001b800 	call	1b80 <__mulsi3>
    17dc:	8085883a 	add	r2,r16,r2
    17e0:	1009883a 	mov	r4,r2
    17e4:	000b883a 	mov	r5,zero
    17e8:	01800044 	movi	r6,1
    17ec:	00007a40 	call	7a4 <read_chan>
    17f0:	e0bda843 	ldbu	r2,-2399(fp)
    17f4:	e43e9f04 	addi	r16,fp,-1412
    17f8:	1009883a 	mov	r4,r2
    17fc:	01400c04 	movi	r5,48
    1800:	0001b800 	call	1b80 <__mulsi3>
    1804:	8085883a 	add	r2,r16,r2
    1808:	1009883a 	mov	r4,r2
    180c:	01400084 	movi	r5,2
    1810:	018000c4 	movi	r6,3
    1814:	00007a40 	call	7a4 <read_chan>
    1818:	e0bda843 	ldbu	r2,-2399(fp)
    181c:	e43e0f04 	addi	r16,fp,-1988
    1820:	1009883a 	mov	r4,r2
    1824:	01400c04 	movi	r5,48
    1828:	0001b800 	call	1b80 <__mulsi3>
    182c:	8085883a 	add	r2,r16,r2
    1830:	1009883a 	mov	r4,r2
    1834:	01400184 	movi	r5,6
    1838:	018000c4 	movi	r6,3
    183c:	00007a40 	call	7a4 <read_chan>
    1840:	e0bda843 	ldbu	r2,-2399(fp)
    1844:	10800044 	addi	r2,r2,1
    1848:	e0bda845 	stb	r2,-2399(fp)
    184c:	e0bda843 	ldbu	r2,-2399(fp)
    1850:	108001b0 	cmpltui	r2,r2,6
    1854:	103f961e 	bne	r2,zero,16b0 <main+0x1c8>
    1858:	e03da805 	stb	zero,-2400(fp)
    185c:	00001206 	br	18a8 <main+0x3c0>
    1860:	e13da803 	ldbu	r4,-2400(fp)
    1864:	00800404 	movi	r2,16
    1868:	11403fcc 	andi	r5,r2,255
    186c:	00800444 	movi	r2,17
    1870:	10c03fcc 	andi	r3,r2,255
    1874:	0080a004 	movi	r2,640
    1878:	d8800015 	stw	r2,0(sp)
    187c:	008000c4 	movi	r2,3
    1880:	d8800115 	stw	r2,4(sp)
    1884:	00800044 	movi	r2,1
    1888:	d8800215 	stw	r2,8(sp)
    188c:	d8000315 	stw	zero,12(sp)
    1890:	180d883a 	mov	r6,r3
    1894:	01c00084 	movi	r7,2
    1898:	00008f00 	call	8f0 <setup_conv>
    189c:	e0bda803 	ldbu	r2,-2400(fp)
    18a0:	10800044 	addi	r2,r2,1
    18a4:	e0bda805 	stb	r2,-2400(fp)
    18a8:	e0bda803 	ldbu	r2,-2400(fp)
    18ac:	10800330 	cmpltui	r2,r2,12
    18b0:	103feb1e 	bne	r2,zero,1860 <main+0x378>
    18b4:	010000b4 	movhi	r4,2
    18b8:	21304e04 	addi	r4,r4,-16072
    18bc:	0002f200 	call	2f20 <usleep>
    18c0:	e0bee704 	addi	r2,fp,-1124
    18c4:	1009883a 	mov	r4,r2
    18c8:	01400084 	movi	r5,2
    18cc:	018000c4 	movi	r6,3
    18d0:	00007a40 	call	7a4 <read_chan>
    18d4:	e03da805 	stb	zero,-2400(fp)
    18d8:	00001206 	br	1924 <main+0x43c>
    18dc:	e13da803 	ldbu	r4,-2400(fp)
    18e0:	00800384 	movi	r2,14
    18e4:	11403fcc 	andi	r5,r2,255
    18e8:	008003c4 	movi	r2,15
    18ec:	10c03fcc 	andi	r3,r2,255
    18f0:	0080a004 	movi	r2,640
    18f4:	d8800015 	stw	r2,0(sp)
    18f8:	008000c4 	movi	r2,3
    18fc:	d8800115 	stw	r2,4(sp)
    1900:	00800044 	movi	r2,1
    1904:	d8800215 	stw	r2,8(sp)
    1908:	d8000315 	stw	zero,12(sp)
    190c:	180d883a 	mov	r6,r3
    1910:	01c00084 	movi	r7,2
    1914:	00008f00 	call	8f0 <setup_conv>
    1918:	e0bda803 	ldbu	r2,-2400(fp)
    191c:	10800044 	addi	r2,r2,1
    1920:	e0bda805 	stb	r2,-2400(fp)
    1924:	e0bda803 	ldbu	r2,-2400(fp)
    1928:	10800330 	cmpltui	r2,r2,12
    192c:	103feb1e 	bne	r2,zero,18dc <main+0x3f4>
    1930:	010000b4 	movhi	r4,2
    1934:	21304e04 	addi	r4,r4,-16072
    1938:	0002f200 	call	2f20 <usleep>
    193c:	e0bef304 	addi	r2,fp,-1076
    1940:	1009883a 	mov	r4,r2
    1944:	01400084 	movi	r5,2
    1948:	018000c4 	movi	r6,3
    194c:	00007a40 	call	7a4 <read_chan>
    1950:	e13daf04 	addi	r4,fp,-2372
    1954:	e17dbb04 	addi	r5,fp,-2324
    1958:	e1bdc704 	addi	r6,fp,-2276
    195c:	e0fe0f04 	addi	r3,fp,-1988
    1960:	e0be5704 	addi	r2,fp,-1700
    1964:	d8800015 	stw	r2,0(sp)
    1968:	e0be9f04 	addi	r2,fp,-1412
    196c:	d8800115 	stw	r2,4(sp)
    1970:	e0bee704 	addi	r2,fp,-1124
    1974:	d8800215 	stw	r2,8(sp)
    1978:	e0bef304 	addi	r2,fp,-1076
    197c:	d8800315 	stw	r2,12(sp)
    1980:	180f883a 	mov	r7,r3
    1984:	0000ff40 	call	ff4 <print_table>
    1988:	e03da915 	stw	zero,-2396(fp)
    198c:	e03daa15 	stw	zero,-2392(fp)
    1990:	e03dac15 	stw	zero,-2384(fp)
    1994:	e03da915 	stw	zero,-2396(fp)
    1998:	00001206 	br	19e4 <main+0x4fc>
    199c:	e0beff04 	addi	r2,fp,-1028
    19a0:	01000034 	movhi	r4,0
    19a4:	21168a04 	addi	r4,r4,23080
    19a8:	100b883a 	mov	r5,r2
    19ac:	0001bfc0 	call	1bfc <printf>
    19b0:	e0fda917 	ldw	r3,-2396(fp)
    19b4:	e0bdac17 	ldw	r2,-2384(fp)
    19b8:	1885883a 	add	r2,r3,r2
    19bc:	e0bda915 	stw	r2,-2396(fp)
    19c0:	e0beff04 	addi	r2,fp,-1028
    19c4:	1009883a 	mov	r4,r2
    19c8:	e17dac17 	ldw	r5,-2384(fp)
    19cc:	0000eb40 	call	eb4 <execute_cmd>
    19d0:	e0bdad15 	stw	r2,-2380(fp)
    19d4:	e0fdaa17 	ldw	r3,-2392(fp)
    19d8:	e0bdad17 	ldw	r2,-2380(fp)
    19dc:	1885883a 	add	r2,r3,r2
    19e0:	e0bdaa15 	stw	r2,-2392(fp)
    19e4:	e0beff04 	addi	r2,fp,-1028
    19e8:	1009883a 	mov	r4,r2
    19ec:	0000cf80 	call	cf8 <read_rx_fifo>
    19f0:	e0bdac15 	stw	r2,-2384(fp)
    19f4:	e0bdac17 	ldw	r2,-2384(fp)
    19f8:	103fe81e 	bne	r2,zero,199c <main+0x4b4>
    19fc:	01000034 	movhi	r4,0
    1a00:	21168b04 	addi	r4,r4,23084
    1a04:	e17da917 	ldw	r5,-2396(fp)
    1a08:	e1bdaa17 	ldw	r6,-2392(fp)
    1a0c:	0001bfc0 	call	1bfc <printf>
    1a10:	d0a01503 	ldbu	r2,-32684(gp)
    1a14:	10803fcc 	andi	r2,r2,255
    1a18:	10000426 	beq	r2,zero,1a2c <main+0x544>
    1a1c:	01000034 	movhi	r4,0
    1a20:	21169704 	addi	r4,r4,23132
    1a24:	0001ce80 	call	1ce8 <puts>
    1a28:	00000406 	br	1a3c <main+0x554>
    1a2c:	0001883a 	nop
    1a30:	d0a01503 	ldbu	r2,-32684(gp)
    1a34:	10803fcc 	andi	r2,r2,255
    1a38:	103ffd26 	beq	r2,zero,1a30 <main+0x548>
    1a3c:	d0201505 	stb	zero,-32684(gp)
    1a40:	00c00144 	movi	r3,5
    1a44:	00800134 	movhi	r2,4
    1a48:	10824104 	addi	r2,r2,2308
    1a4c:	10c00035 	stwio	r3,0(r2)
    1a50:	003eda06 	br	15bc <main+0xd4>

00001a54 <udivmodsi4>:
    1a54:	2900182e 	bgeu	r5,r4,1ab8 <udivmodsi4+0x64>
    1a58:	28001716 	blt	r5,zero,1ab8 <udivmodsi4+0x64>
    1a5c:	00800804 	movi	r2,32
    1a60:	00c00044 	movi	r3,1
    1a64:	00000206 	br	1a70 <udivmodsi4+0x1c>
    1a68:	10001126 	beq	r2,zero,1ab0 <udivmodsi4+0x5c>
    1a6c:	28000516 	blt	r5,zero,1a84 <udivmodsi4+0x30>
    1a70:	294b883a 	add	r5,r5,r5
    1a74:	10bfffc4 	addi	r2,r2,-1
    1a78:	18c7883a 	add	r3,r3,r3
    1a7c:	293ffa36 	bltu	r5,r4,1a68 <udivmodsi4+0x14>
    1a80:	18000b26 	beq	r3,zero,1ab0 <udivmodsi4+0x5c>
    1a84:	0005883a 	mov	r2,zero
    1a88:	21400236 	bltu	r4,r5,1a94 <udivmodsi4+0x40>
    1a8c:	2149c83a 	sub	r4,r4,r5
    1a90:	10c4b03a 	or	r2,r2,r3
    1a94:	1806d07a 	srli	r3,r3,1
    1a98:	280ad07a 	srli	r5,r5,1
    1a9c:	183ffa1e 	bne	r3,zero,1a88 <udivmodsi4+0x34>
    1aa0:	3000011e 	bne	r6,zero,1aa8 <udivmodsi4+0x54>
    1aa4:	f800283a 	ret
    1aa8:	2005883a 	mov	r2,r4
    1aac:	f800283a 	ret
    1ab0:	0005883a 	mov	r2,zero
    1ab4:	003ffa06 	br	1aa0 <udivmodsi4+0x4c>
    1ab8:	00c00044 	movi	r3,1
    1abc:	003ff106 	br	1a84 <udivmodsi4+0x30>

00001ac0 <__divsi3>:
    1ac0:	defffe04 	addi	sp,sp,-8
    1ac4:	dfc00115 	stw	ra,4(sp)
    1ac8:	dc000015 	stw	r16,0(sp)
    1acc:	20000b16 	blt	r4,zero,1afc <__divsi3+0x3c>
    1ad0:	0021883a 	mov	r16,zero
    1ad4:	28000c16 	blt	r5,zero,1b08 <__divsi3+0x48>
    1ad8:	000d883a 	mov	r6,zero
    1adc:	0001a540 	call	1a54 <udivmodsi4>
    1ae0:	0407c83a 	sub	r3,zero,r16
    1ae4:	1884f03a 	xor	r2,r3,r2
    1ae8:	1405883a 	add	r2,r2,r16
    1aec:	dfc00117 	ldw	ra,4(sp)
    1af0:	dc000017 	ldw	r16,0(sp)
    1af4:	dec00204 	addi	sp,sp,8
    1af8:	f800283a 	ret
    1afc:	0109c83a 	sub	r4,zero,r4
    1b00:	04000044 	movi	r16,1
    1b04:	283ff40e 	bge	r5,zero,1ad8 <__divsi3+0x18>
    1b08:	014bc83a 	sub	r5,zero,r5
    1b0c:	8400005c 	xori	r16,r16,1
    1b10:	003ff106 	br	1ad8 <__divsi3+0x18>

00001b14 <__modsi3>:
    1b14:	defffd04 	addi	sp,sp,-12
    1b18:	dfc00215 	stw	ra,8(sp)
    1b1c:	dc400115 	stw	r17,4(sp)
    1b20:	dc000015 	stw	r16,0(sp)
    1b24:	20000c16 	blt	r4,zero,1b58 <__modsi3+0x44>
    1b28:	0023883a 	mov	r17,zero
    1b2c:	0021883a 	mov	r16,zero
    1b30:	28000d16 	blt	r5,zero,1b68 <__modsi3+0x54>
    1b34:	01800044 	movi	r6,1
    1b38:	0001a540 	call	1a54 <udivmodsi4>
    1b3c:	1404f03a 	xor	r2,r2,r16
    1b40:	8885883a 	add	r2,r17,r2
    1b44:	dfc00217 	ldw	ra,8(sp)
    1b48:	dc400117 	ldw	r17,4(sp)
    1b4c:	dc000017 	ldw	r16,0(sp)
    1b50:	dec00304 	addi	sp,sp,12
    1b54:	f800283a 	ret
    1b58:	0109c83a 	sub	r4,zero,r4
    1b5c:	04400044 	movi	r17,1
    1b60:	043fffc4 	movi	r16,-1
    1b64:	283ff30e 	bge	r5,zero,1b34 <__modsi3+0x20>
    1b68:	014bc83a 	sub	r5,zero,r5
    1b6c:	003ff106 	br	1b34 <__modsi3+0x20>

00001b70 <__udivsi3>:
    1b70:	000d883a 	mov	r6,zero
    1b74:	0001a541 	jmpi	1a54 <udivmodsi4>

00001b78 <__umodsi3>:
    1b78:	01800044 	movi	r6,1
    1b7c:	0001a541 	jmpi	1a54 <udivmodsi4>

00001b80 <__mulsi3>:
    1b80:	0005883a 	mov	r2,zero
    1b84:	20000726 	beq	r4,zero,1ba4 <__mulsi3+0x24>
    1b88:	20c0004c 	andi	r3,r4,1
    1b8c:	2008d07a 	srli	r4,r4,1
    1b90:	18000126 	beq	r3,zero,1b98 <__mulsi3+0x18>
    1b94:	1145883a 	add	r2,r2,r5
    1b98:	294b883a 	add	r5,r5,r5
    1b9c:	203ffa1e 	bne	r4,zero,1b88 <__mulsi3+0x8>
    1ba0:	f800283a 	ret
    1ba4:	f800283a 	ret

00001ba8 <atoi>:
    1ba8:	000b883a 	mov	r5,zero
    1bac:	01800284 	movi	r6,10
    1bb0:	00020a01 	jmpi	20a0 <strtol>

00001bb4 <_atoi_r>:
    1bb4:	000d883a 	mov	r6,zero
    1bb8:	01c00284 	movi	r7,10
    1bbc:	0001e781 	jmpi	1e78 <_strtol_r>

00001bc0 <_printf_r>:
    1bc0:	defffd04 	addi	sp,sp,-12
    1bc4:	dfc00015 	stw	ra,0(sp)
    1bc8:	d9800115 	stw	r6,4(sp)
    1bcc:	d9c00215 	stw	r7,8(sp)
    1bd0:	20c00217 	ldw	r3,8(r4)
    1bd4:	280d883a 	mov	r6,r5
    1bd8:	01400034 	movhi	r5,0
    1bdc:	2949b004 	addi	r5,r5,9920
    1be0:	19400115 	stw	r5,4(r3)
    1be4:	21400217 	ldw	r5,8(r4)
    1be8:	d9c00104 	addi	r7,sp,4
    1bec:	00021300 	call	2130 <___vfprintf_internal_r>
    1bf0:	dfc00017 	ldw	ra,0(sp)
    1bf4:	dec00304 	addi	sp,sp,12
    1bf8:	f800283a 	ret

00001bfc <printf>:
    1bfc:	defffc04 	addi	sp,sp,-16
    1c00:	dfc00015 	stw	ra,0(sp)
    1c04:	d9400115 	stw	r5,4(sp)
    1c08:	d9800215 	stw	r6,8(sp)
    1c0c:	d9c00315 	stw	r7,12(sp)
    1c10:	00800034 	movhi	r2,0
    1c14:	10985804 	addi	r2,r2,24928
    1c18:	10800017 	ldw	r2,0(r2)
    1c1c:	200b883a 	mov	r5,r4
    1c20:	01000034 	movhi	r4,0
    1c24:	10c00217 	ldw	r3,8(r2)
    1c28:	2109b004 	addi	r4,r4,9920
    1c2c:	d9800104 	addi	r6,sp,4
    1c30:	19000115 	stw	r4,4(r3)
    1c34:	11000217 	ldw	r4,8(r2)
    1c38:	000269c0 	call	269c <__vfprintf_internal>
    1c3c:	dfc00017 	ldw	ra,0(sp)
    1c40:	dec00404 	addi	sp,sp,16
    1c44:	f800283a 	ret

00001c48 <_putchar_r>:
    1c48:	21800217 	ldw	r6,8(r4)
    1c4c:	0002a281 	jmpi	2a28 <_putc_r>

00001c50 <putchar>:
    1c50:	00800034 	movhi	r2,0
    1c54:	10985804 	addi	r2,r2,24928
    1c58:	200b883a 	mov	r5,r4
    1c5c:	11000017 	ldw	r4,0(r2)
    1c60:	21800217 	ldw	r6,8(r4)
    1c64:	0002a281 	jmpi	2a28 <_putc_r>

00001c68 <_puts_r>:
    1c68:	defffd04 	addi	sp,sp,-12
    1c6c:	dc000015 	stw	r16,0(sp)
    1c70:	2021883a 	mov	r16,r4
    1c74:	2809883a 	mov	r4,r5
    1c78:	dfc00215 	stw	ra,8(sp)
    1c7c:	dc400115 	stw	r17,4(sp)
    1c80:	2823883a 	mov	r17,r5
    1c84:	0001cfc0 	call	1cfc <strlen>
    1c88:	81400217 	ldw	r5,8(r16)
    1c8c:	00c00034 	movhi	r3,0
    1c90:	18c9b004 	addi	r3,r3,9920
    1c94:	28c00115 	stw	r3,4(r5)
    1c98:	8009883a 	mov	r4,r16
    1c9c:	880d883a 	mov	r6,r17
    1ca0:	100f883a 	mov	r7,r2
    1ca4:	00026c00 	call	26c0 <__sfvwrite_small_dev>
    1ca8:	00ffffc4 	movi	r3,-1
    1cac:	10c00926 	beq	r2,r3,1cd4 <_puts_r+0x6c>
    1cb0:	81400217 	ldw	r5,8(r16)
    1cb4:	01800034 	movhi	r6,0
    1cb8:	8009883a 	mov	r4,r16
    1cbc:	28800117 	ldw	r2,4(r5)
    1cc0:	3196a104 	addi	r6,r6,23172
    1cc4:	01c00044 	movi	r7,1
    1cc8:	103ee83a 	callr	r2
    1ccc:	10bfffe0 	cmpeqi	r2,r2,-1
    1cd0:	0085c83a 	sub	r2,zero,r2
    1cd4:	dfc00217 	ldw	ra,8(sp)
    1cd8:	dc400117 	ldw	r17,4(sp)
    1cdc:	dc000017 	ldw	r16,0(sp)
    1ce0:	dec00304 	addi	sp,sp,12
    1ce4:	f800283a 	ret

00001ce8 <puts>:
    1ce8:	00800034 	movhi	r2,0
    1cec:	10985804 	addi	r2,r2,24928
    1cf0:	200b883a 	mov	r5,r4
    1cf4:	11000017 	ldw	r4,0(r2)
    1cf8:	0001c681 	jmpi	1c68 <_puts_r>

00001cfc <strlen>:
    1cfc:	2005883a 	mov	r2,r4
    1d00:	10c00007 	ldb	r3,0(r2)
    1d04:	18000226 	beq	r3,zero,1d10 <strlen+0x14>
    1d08:	10800044 	addi	r2,r2,1
    1d0c:	003ffc06 	br	1d00 <strlen+0x4>
    1d10:	1105c83a 	sub	r2,r2,r4
    1d14:	f800283a 	ret

00001d18 <strtok>:
    1d18:	00800034 	movhi	r2,0
    1d1c:	defffc04 	addi	sp,sp,-16
    1d20:	10985804 	addi	r2,r2,24928
    1d24:	dc000115 	stw	r16,4(sp)
    1d28:	14000017 	ldw	r16,0(r2)
    1d2c:	dc400215 	stw	r17,8(sp)
    1d30:	dfc00315 	stw	ra,12(sp)
    1d34:	80803617 	ldw	r2,216(r16)
    1d38:	2023883a 	mov	r17,r4
    1d3c:	1000211e 	bne	r2,zero,1dc4 <strtok+0xac>
    1d40:	01001404 	movi	r4,80
    1d44:	d9400015 	stw	r5,0(sp)
    1d48:	000276c0 	call	276c <malloc>
    1d4c:	80803615 	stw	r2,216(r16)
    1d50:	10000215 	stw	zero,8(r2)
    1d54:	10000015 	stw	zero,0(r2)
    1d58:	10000115 	stw	zero,4(r2)
    1d5c:	80803617 	ldw	r2,216(r16)
    1d60:	10000415 	stw	zero,16(r2)
    1d64:	10000315 	stw	zero,12(r2)
    1d68:	80803617 	ldw	r2,216(r16)
    1d6c:	10000615 	stw	zero,24(r2)
    1d70:	10000515 	stw	zero,20(r2)
    1d74:	80803617 	ldw	r2,216(r16)
    1d78:	10000b15 	stw	zero,44(r2)
    1d7c:	10000a15 	stw	zero,40(r2)
    1d80:	80803617 	ldw	r2,216(r16)
    1d84:	10000d15 	stw	zero,52(r2)
    1d88:	10000c15 	stw	zero,48(r2)
    1d8c:	80803617 	ldw	r2,216(r16)
    1d90:	10000f15 	stw	zero,60(r2)
    1d94:	10000e15 	stw	zero,56(r2)
    1d98:	80803617 	ldw	r2,216(r16)
    1d9c:	10001115 	stw	zero,68(r2)
    1da0:	10001015 	stw	zero,64(r2)
    1da4:	80803617 	ldw	r2,216(r16)
    1da8:	10001315 	stw	zero,76(r2)
    1dac:	10001215 	stw	zero,72(r2)
    1db0:	80803617 	ldw	r2,216(r16)
    1db4:	10000705 	stb	zero,28(r2)
    1db8:	80803617 	ldw	r2,216(r16)
    1dbc:	d9400017 	ldw	r5,0(sp)
    1dc0:	10000915 	stw	zero,36(r2)
    1dc4:	81803617 	ldw	r6,216(r16)
    1dc8:	8809883a 	mov	r4,r17
    1dcc:	01c00044 	movi	r7,1
    1dd0:	dfc00317 	ldw	ra,12(sp)
    1dd4:	dc400217 	ldw	r17,8(sp)
    1dd8:	dc000117 	ldw	r16,4(sp)
    1ddc:	dec00404 	addi	sp,sp,16
    1de0:	0001de41 	jmpi	1de4 <__strtok_r>

00001de4 <__strtok_r>:
    1de4:	2000021e 	bne	r4,zero,1df0 <__strtok_r+0xc>
    1de8:	31000017 	ldw	r4,0(r6)
    1dec:	20001e26 	beq	r4,zero,1e68 <__strtok_r+0x84>
    1df0:	2005883a 	mov	r2,r4
    1df4:	12000007 	ldb	r8,0(r2)
    1df8:	21000044 	addi	r4,r4,1
    1dfc:	2807883a 	mov	r3,r5
    1e00:	1a400007 	ldb	r9,0(r3)
    1e04:	48000626 	beq	r9,zero,1e20 <__strtok_r+0x3c>
    1e08:	18c00044 	addi	r3,r3,1
    1e0c:	427ffc1e 	bne	r8,r9,1e00 <__strtok_r+0x1c>
    1e10:	383ff71e 	bne	r7,zero,1df0 <__strtok_r+0xc>
    1e14:	31000015 	stw	r4,0(r6)
    1e18:	10000005 	stb	zero,0(r2)
    1e1c:	f800283a 	ret
    1e20:	4000061e 	bne	r8,zero,1e3c <__strtok_r+0x58>
    1e24:	30000015 	stw	zero,0(r6)
    1e28:	00000f06 	br	1e68 <__strtok_r+0x84>
    1e2c:	19c00007 	ldb	r7,0(r3)
    1e30:	3a400726 	beq	r7,r9,1e50 <__strtok_r+0x6c>
    1e34:	18c00044 	addi	r3,r3,1
    1e38:	383ffc1e 	bne	r7,zero,1e2c <__strtok_r+0x48>
    1e3c:	2011883a 	mov	r8,r4
    1e40:	42400007 	ldb	r9,0(r8)
    1e44:	21000044 	addi	r4,r4,1
    1e48:	2807883a 	mov	r3,r5
    1e4c:	003ff706 	br	1e2c <__strtok_r+0x48>
    1e50:	48000226 	beq	r9,zero,1e5c <__strtok_r+0x78>
    1e54:	40000005 	stb	zero,0(r8)
    1e58:	00000106 	br	1e60 <__strtok_r+0x7c>
    1e5c:	0009883a 	mov	r4,zero
    1e60:	31000015 	stw	r4,0(r6)
    1e64:	f800283a 	ret
    1e68:	0005883a 	mov	r2,zero
    1e6c:	f800283a 	ret

00001e70 <strtok_r>:
    1e70:	01c00044 	movi	r7,1
    1e74:	0001de41 	jmpi	1de4 <__strtok_r>

00001e78 <_strtol_r>:
    1e78:	00800034 	movhi	r2,0
    1e7c:	defff304 	addi	sp,sp,-52
    1e80:	10985604 	addi	r2,r2,24920
    1e84:	dc800515 	stw	r18,20(sp)
    1e88:	14800017 	ldw	r18,0(r2)
    1e8c:	df000b15 	stw	fp,44(sp)
    1e90:	ddc00a15 	stw	r23,40(sp)
    1e94:	dd000715 	stw	r20,28(sp)
    1e98:	dc000315 	stw	r16,12(sp)
    1e9c:	dfc00c15 	stw	ra,48(sp)
    1ea0:	dd800915 	stw	r22,36(sp)
    1ea4:	dd400815 	stw	r21,32(sp)
    1ea8:	dcc00615 	stw	r19,24(sp)
    1eac:	dc400415 	stw	r17,16(sp)
    1eb0:	d9000015 	stw	r4,0(sp)
    1eb4:	2829883a 	mov	r20,r5
    1eb8:	302f883a 	mov	r23,r6
    1ebc:	3839883a 	mov	fp,r7
    1ec0:	2821883a 	mov	r16,r5
    1ec4:	8005883a 	mov	r2,r16
    1ec8:	14400003 	ldbu	r17,0(r2)
    1ecc:	84000044 	addi	r16,r16,1
    1ed0:	9447883a 	add	r3,r18,r17
    1ed4:	18c00043 	ldbu	r3,1(r3)
    1ed8:	18c0020c 	andi	r3,r3,8
    1edc:	183ff91e 	bne	r3,zero,1ec4 <_strtol_r+0x4c>
    1ee0:	00c00b44 	movi	r3,45
    1ee4:	88c0041e 	bne	r17,r3,1ef8 <_strtol_r+0x80>
    1ee8:	14000084 	addi	r16,r2,2
    1eec:	14400043 	ldbu	r17,1(r2)
    1ef0:	04c00044 	movi	r19,1
    1ef4:	00000506 	br	1f0c <_strtol_r+0x94>
    1ef8:	00c00ac4 	movi	r3,43
    1efc:	88c0021e 	bne	r17,r3,1f08 <_strtol_r+0x90>
    1f00:	14400043 	ldbu	r17,1(r2)
    1f04:	14000084 	addi	r16,r2,2
    1f08:	0027883a 	mov	r19,zero
    1f0c:	e0000326 	beq	fp,zero,1f1c <_strtol_r+0xa4>
    1f10:	00800404 	movi	r2,16
    1f14:	e0800a1e 	bne	fp,r2,1f40 <_strtol_r+0xc8>
    1f18:	00005206 	br	2064 <_strtol_r+0x1ec>
    1f1c:	00800c04 	movi	r2,48
    1f20:	88804e1e 	bne	r17,r2,205c <_strtol_r+0x1e4>
    1f24:	80800003 	ldbu	r2,0(r16)
    1f28:	00c01604 	movi	r3,88
    1f2c:	108037cc 	andi	r2,r2,223
    1f30:	10c0461e 	bne	r2,r3,204c <_strtol_r+0x1d4>
    1f34:	84400043 	ldbu	r17,1(r16)
    1f38:	07000404 	movi	fp,16
    1f3c:	84000084 	addi	r16,r16,2
    1f40:	05a00034 	movhi	r22,32768
    1f44:	b5bfffc4 	addi	r22,r22,-1
    1f48:	9dad883a 	add	r22,r19,r22
    1f4c:	b009883a 	mov	r4,r22
    1f50:	e00b883a 	mov	r5,fp
    1f54:	0001b780 	call	1b78 <__umodsi3>
    1f58:	b009883a 	mov	r4,r22
    1f5c:	e00b883a 	mov	r5,fp
    1f60:	102b883a 	mov	r21,r2
    1f64:	0001b700 	call	1b70 <__udivsi3>
    1f68:	102d883a 	mov	r22,r2
    1f6c:	0009883a 	mov	r4,zero
    1f70:	0007883a 	mov	r3,zero
    1f74:	01c00044 	movi	r7,1
    1f78:	027fffc4 	movi	r9,-1
    1f7c:	9445883a 	add	r2,r18,r17
    1f80:	12000043 	ldbu	r8,1(r2)
    1f84:	4080010c 	andi	r2,r8,4
    1f88:	10000226 	beq	r2,zero,1f94 <_strtol_r+0x11c>
    1f8c:	8c7ff404 	addi	r17,r17,-48
    1f90:	00000706 	br	1fb0 <_strtol_r+0x138>
    1f94:	420000cc 	andi	r8,r8,3
    1f98:	40001826 	beq	r8,zero,1ffc <_strtol_r+0x184>
    1f9c:	41c00226 	beq	r8,r7,1fa8 <_strtol_r+0x130>
    1fa0:	020015c4 	movi	r8,87
    1fa4:	00000106 	br	1fac <_strtol_r+0x134>
    1fa8:	02000dc4 	movi	r8,55
    1fac:	8a23c83a 	sub	r17,r17,r8
    1fb0:	8f00120e 	bge	r17,fp,1ffc <_strtol_r+0x184>
    1fb4:	22400e26 	beq	r4,r9,1ff0 <_strtol_r+0x178>
    1fb8:	b0c00c36 	bltu	r22,r3,1fec <_strtol_r+0x174>
    1fbc:	1d80011e 	bne	r3,r22,1fc4 <_strtol_r+0x14c>
    1fc0:	ac400a16 	blt	r21,r17,1fec <_strtol_r+0x174>
    1fc4:	1809883a 	mov	r4,r3
    1fc8:	e00b883a 	mov	r5,fp
    1fcc:	d9c00115 	stw	r7,4(sp)
    1fd0:	da400215 	stw	r9,8(sp)
    1fd4:	0001b800 	call	1b80 <__mulsi3>
    1fd8:	8887883a 	add	r3,r17,r2
    1fdc:	01000044 	movi	r4,1
    1fe0:	d9c00117 	ldw	r7,4(sp)
    1fe4:	da400217 	ldw	r9,8(sp)
    1fe8:	00000106 	br	1ff0 <_strtol_r+0x178>
    1fec:	013fffc4 	movi	r4,-1
    1ff0:	84400003 	ldbu	r17,0(r16)
    1ff4:	84000044 	addi	r16,r16,1
    1ff8:	003fe006 	br	1f7c <_strtol_r+0x104>
    1ffc:	017fffc4 	movi	r5,-1
    2000:	1805883a 	mov	r2,r3
    2004:	2140081e 	bne	r4,r5,2028 <_strtol_r+0x1b0>
    2008:	d9000017 	ldw	r4,0(sp)
    200c:	00a00034 	movhi	r2,32768
    2010:	00c00884 	movi	r3,34
    2014:	1145883a 	add	r2,r2,r5
    2018:	20c00015 	stw	r3,0(r4)
    201c:	9885883a 	add	r2,r19,r2
    2020:	b800051e 	bne	r23,zero,2038 <_strtol_r+0x1c0>
    2024:	00001206 	br	2070 <_strtol_r+0x1f8>
    2028:	98000126 	beq	r19,zero,2030 <_strtol_r+0x1b8>
    202c:	00c5c83a 	sub	r2,zero,r3
    2030:	b8000f26 	beq	r23,zero,2070 <_strtol_r+0x1f8>
    2034:	20000226 	beq	r4,zero,2040 <_strtol_r+0x1c8>
    2038:	843fffc4 	addi	r16,r16,-1
    203c:	00000106 	br	2044 <_strtol_r+0x1cc>
    2040:	a021883a 	mov	r16,r20
    2044:	bc000015 	stw	r16,0(r23)
    2048:	00000906 	br	2070 <_strtol_r+0x1f8>
    204c:	04400c04 	movi	r17,48
    2050:	e03fbb1e 	bne	fp,zero,1f40 <_strtol_r+0xc8>
    2054:	07000204 	movi	fp,8
    2058:	003fb906 	br	1f40 <_strtol_r+0xc8>
    205c:	07000284 	movi	fp,10
    2060:	003fb706 	br	1f40 <_strtol_r+0xc8>
    2064:	00800c04 	movi	r2,48
    2068:	88bfb51e 	bne	r17,r2,1f40 <_strtol_r+0xc8>
    206c:	003fad06 	br	1f24 <_strtol_r+0xac>
    2070:	dfc00c17 	ldw	ra,48(sp)
    2074:	df000b17 	ldw	fp,44(sp)
    2078:	ddc00a17 	ldw	r23,40(sp)
    207c:	dd800917 	ldw	r22,36(sp)
    2080:	dd400817 	ldw	r21,32(sp)
    2084:	dd000717 	ldw	r20,28(sp)
    2088:	dcc00617 	ldw	r19,24(sp)
    208c:	dc800517 	ldw	r18,20(sp)
    2090:	dc400417 	ldw	r17,16(sp)
    2094:	dc000317 	ldw	r16,12(sp)
    2098:	dec00d04 	addi	sp,sp,52
    209c:	f800283a 	ret

000020a0 <strtol>:
    20a0:	2007883a 	mov	r3,r4
    20a4:	01000034 	movhi	r4,0
    20a8:	21185804 	addi	r4,r4,24928
    20ac:	21000017 	ldw	r4,0(r4)
    20b0:	2805883a 	mov	r2,r5
    20b4:	300f883a 	mov	r7,r6
    20b8:	180b883a 	mov	r5,r3
    20bc:	100d883a 	mov	r6,r2
    20c0:	0001e781 	jmpi	1e78 <_strtol_r>

000020c4 <print_repeat>:
    20c4:	defffb04 	addi	sp,sp,-20
    20c8:	dc800315 	stw	r18,12(sp)
    20cc:	dc400215 	stw	r17,8(sp)
    20d0:	dc000115 	stw	r16,4(sp)
    20d4:	dfc00415 	stw	ra,16(sp)
    20d8:	2025883a 	mov	r18,r4
    20dc:	2823883a 	mov	r17,r5
    20e0:	d9800005 	stb	r6,0(sp)
    20e4:	3821883a 	mov	r16,r7
    20e8:	04000a0e 	bge	zero,r16,2114 <print_repeat+0x50>
    20ec:	88800117 	ldw	r2,4(r17)
    20f0:	9009883a 	mov	r4,r18
    20f4:	880b883a 	mov	r5,r17
    20f8:	d80d883a 	mov	r6,sp
    20fc:	01c00044 	movi	r7,1
    2100:	103ee83a 	callr	r2
    2104:	843fffc4 	addi	r16,r16,-1
    2108:	103ff726 	beq	r2,zero,20e8 <print_repeat+0x24>
    210c:	00bfffc4 	movi	r2,-1
    2110:	00000106 	br	2118 <print_repeat+0x54>
    2114:	0005883a 	mov	r2,zero
    2118:	dfc00417 	ldw	ra,16(sp)
    211c:	dc800317 	ldw	r18,12(sp)
    2120:	dc400217 	ldw	r17,8(sp)
    2124:	dc000117 	ldw	r16,4(sp)
    2128:	dec00504 	addi	sp,sp,20
    212c:	f800283a 	ret

00002130 <___vfprintf_internal_r>:
    2130:	deffe304 	addi	sp,sp,-116
    2134:	d8c00804 	addi	r3,sp,32
    2138:	df001b15 	stw	fp,108(sp)
    213c:	ddc01a15 	stw	r23,104(sp)
    2140:	dd801915 	stw	r22,100(sp)
    2144:	dd401815 	stw	r21,96(sp)
    2148:	dd001715 	stw	r20,92(sp)
    214c:	dcc01615 	stw	r19,88(sp)
    2150:	dc801515 	stw	r18,84(sp)
    2154:	dc401415 	stw	r17,80(sp)
    2158:	dc001315 	stw	r16,76(sp)
    215c:	dfc01c15 	stw	ra,112(sp)
    2160:	2029883a 	mov	r20,r4
    2164:	2823883a 	mov	r17,r5
    2168:	3839883a 	mov	fp,r7
    216c:	d9800f15 	stw	r6,60(sp)
    2170:	0021883a 	mov	r16,zero
    2174:	d8000e15 	stw	zero,56(sp)
    2178:	002f883a 	mov	r23,zero
    217c:	002b883a 	mov	r21,zero
    2180:	0027883a 	mov	r19,zero
    2184:	0025883a 	mov	r18,zero
    2188:	d8000c15 	stw	zero,48(sp)
    218c:	d8000b15 	stw	zero,44(sp)
    2190:	002d883a 	mov	r22,zero
    2194:	d8c00915 	stw	r3,36(sp)
    2198:	d8c00f17 	ldw	r3,60(sp)
    219c:	19000003 	ldbu	r4,0(r3)
    21a0:	20803fcc 	andi	r2,r4,255
    21a4:	1080201c 	xori	r2,r2,128
    21a8:	10bfe004 	addi	r2,r2,-128
    21ac:	10012e26 	beq	r2,zero,2668 <___vfprintf_internal_r+0x538>
    21b0:	01400044 	movi	r5,1
    21b4:	b1401426 	beq	r22,r5,2208 <___vfprintf_internal_r+0xd8>
    21b8:	2d800216 	blt	r5,r22,21c4 <___vfprintf_internal_r+0x94>
    21bc:	b0000626 	beq	r22,zero,21d8 <___vfprintf_internal_r+0xa8>
    21c0:	00012506 	br	2658 <___vfprintf_internal_r+0x528>
    21c4:	01400084 	movi	r5,2
    21c8:	b1401d26 	beq	r22,r5,2240 <___vfprintf_internal_r+0x110>
    21cc:	014000c4 	movi	r5,3
    21d0:	b1402b26 	beq	r22,r5,2280 <___vfprintf_internal_r+0x150>
    21d4:	00012006 	br	2658 <___vfprintf_internal_r+0x528>
    21d8:	01400944 	movi	r5,37
    21dc:	11410d26 	beq	r2,r5,2614 <___vfprintf_internal_r+0x4e4>
    21e0:	88800117 	ldw	r2,4(r17)
    21e4:	d9000005 	stb	r4,0(sp)
    21e8:	880b883a 	mov	r5,r17
    21ec:	a009883a 	mov	r4,r20
    21f0:	d80d883a 	mov	r6,sp
    21f4:	01c00044 	movi	r7,1
    21f8:	103ee83a 	callr	r2
    21fc:	1000e81e 	bne	r2,zero,25a0 <___vfprintf_internal_r+0x470>
    2200:	84000044 	addi	r16,r16,1
    2204:	00011406 	br	2658 <___vfprintf_internal_r+0x528>
    2208:	01400c04 	movi	r5,48
    220c:	11410a26 	beq	r2,r5,2638 <___vfprintf_internal_r+0x508>
    2210:	01400944 	movi	r5,37
    2214:	11400a1e 	bne	r2,r5,2240 <___vfprintf_internal_r+0x110>
    2218:	d8800005 	stb	r2,0(sp)
    221c:	88800117 	ldw	r2,4(r17)
    2220:	a009883a 	mov	r4,r20
    2224:	880b883a 	mov	r5,r17
    2228:	d80d883a 	mov	r6,sp
    222c:	b00f883a 	mov	r7,r22
    2230:	103ee83a 	callr	r2
    2234:	1000da1e 	bne	r2,zero,25a0 <___vfprintf_internal_r+0x470>
    2238:	84000044 	addi	r16,r16,1
    223c:	00010506 	br	2654 <___vfprintf_internal_r+0x524>
    2240:	25bff404 	addi	r22,r4,-48
    2244:	b5803fcc 	andi	r22,r22,255
    2248:	00c00244 	movi	r3,9
    224c:	1d800936 	bltu	r3,r22,2274 <___vfprintf_internal_r+0x144>
    2250:	00bfffc4 	movi	r2,-1
    2254:	90800426 	beq	r18,r2,2268 <___vfprintf_internal_r+0x138>
    2258:	9009883a 	mov	r4,r18
    225c:	01400284 	movi	r5,10
    2260:	0001b800 	call	1b80 <__mulsi3>
    2264:	00000106 	br	226c <___vfprintf_internal_r+0x13c>
    2268:	0005883a 	mov	r2,zero
    226c:	15a5883a 	add	r18,r2,r22
    2270:	0000f206 	br	263c <___vfprintf_internal_r+0x50c>
    2274:	01400b84 	movi	r5,46
    2278:	1140f426 	beq	r2,r5,264c <___vfprintf_internal_r+0x51c>
    227c:	05800084 	movi	r22,2
    2280:	213ff404 	addi	r4,r4,-48
    2284:	20c03fcc 	andi	r3,r4,255
    2288:	01000244 	movi	r4,9
    228c:	20c00b36 	bltu	r4,r3,22bc <___vfprintf_internal_r+0x18c>
    2290:	00bfffc4 	movi	r2,-1
    2294:	98800626 	beq	r19,r2,22b0 <___vfprintf_internal_r+0x180>
    2298:	9809883a 	mov	r4,r19
    229c:	01400284 	movi	r5,10
    22a0:	d8c01115 	stw	r3,68(sp)
    22a4:	0001b800 	call	1b80 <__mulsi3>
    22a8:	d8c01117 	ldw	r3,68(sp)
    22ac:	00000106 	br	22b4 <___vfprintf_internal_r+0x184>
    22b0:	0005883a 	mov	r2,zero
    22b4:	10e7883a 	add	r19,r2,r3
    22b8:	0000e706 	br	2658 <___vfprintf_internal_r+0x528>
    22bc:	01401b04 	movi	r5,108
    22c0:	1140e026 	beq	r2,r5,2644 <___vfprintf_internal_r+0x514>
    22c4:	013fffc4 	movi	r4,-1
    22c8:	99000226 	beq	r19,r4,22d4 <___vfprintf_internal_r+0x1a4>
    22cc:	d8000b15 	stw	zero,44(sp)
    22d0:	00000106 	br	22d8 <___vfprintf_internal_r+0x1a8>
    22d4:	04c00044 	movi	r19,1
    22d8:	01001a44 	movi	r4,105
    22dc:	11001626 	beq	r2,r4,2338 <___vfprintf_internal_r+0x208>
    22e0:	20800916 	blt	r4,r2,2308 <___vfprintf_internal_r+0x1d8>
    22e4:	010018c4 	movi	r4,99
    22e8:	11009626 	beq	r2,r4,2544 <___vfprintf_internal_r+0x414>
    22ec:	01001904 	movi	r4,100
    22f0:	11001126 	beq	r2,r4,2338 <___vfprintf_internal_r+0x208>
    22f4:	01001604 	movi	r4,88
    22f8:	1100d61e 	bne	r2,r4,2654 <___vfprintf_internal_r+0x524>
    22fc:	00c00044 	movi	r3,1
    2300:	d8c00e15 	stw	r3,56(sp)
    2304:	00001406 	br	2358 <___vfprintf_internal_r+0x228>
    2308:	01001cc4 	movi	r4,115
    230c:	1100a626 	beq	r2,r4,25a8 <___vfprintf_internal_r+0x478>
    2310:	20800416 	blt	r4,r2,2324 <___vfprintf_internal_r+0x1f4>
    2314:	01001bc4 	movi	r4,111
    2318:	1100ce1e 	bne	r2,r4,2654 <___vfprintf_internal_r+0x524>
    231c:	05400204 	movi	r21,8
    2320:	00000e06 	br	235c <___vfprintf_internal_r+0x22c>
    2324:	01001d44 	movi	r4,117
    2328:	11000c26 	beq	r2,r4,235c <___vfprintf_internal_r+0x22c>
    232c:	01001e04 	movi	r4,120
    2330:	11000926 	beq	r2,r4,2358 <___vfprintf_internal_r+0x228>
    2334:	0000c706 	br	2654 <___vfprintf_internal_r+0x524>
    2338:	e0800104 	addi	r2,fp,4
    233c:	b8000726 	beq	r23,zero,235c <___vfprintf_internal_r+0x22c>
    2340:	d8800d15 	stw	r2,52(sp)
    2344:	e7000017 	ldw	fp,0(fp)
    2348:	e000080e 	bge	fp,zero,236c <___vfprintf_internal_r+0x23c>
    234c:	0739c83a 	sub	fp,zero,fp
    2350:	02000044 	movi	r8,1
    2354:	00000606 	br	2370 <___vfprintf_internal_r+0x240>
    2358:	05400404 	movi	r21,16
    235c:	e0c00104 	addi	r3,fp,4
    2360:	d8c00d15 	stw	r3,52(sp)
    2364:	e7000017 	ldw	fp,0(fp)
    2368:	002f883a 	mov	r23,zero
    236c:	0011883a 	mov	r8,zero
    2370:	002d883a 	mov	r22,zero
    2374:	dd87883a 	add	r3,sp,r22
    2378:	e0001a26 	beq	fp,zero,23e4 <___vfprintf_internal_r+0x2b4>
    237c:	e009883a 	mov	r4,fp
    2380:	a80b883a 	mov	r5,r21
    2384:	d8c01115 	stw	r3,68(sp)
    2388:	da001215 	stw	r8,72(sp)
    238c:	0001b700 	call	1b70 <__udivsi3>
    2390:	a809883a 	mov	r4,r21
    2394:	100b883a 	mov	r5,r2
    2398:	d8801015 	stw	r2,64(sp)
    239c:	0001b800 	call	1b80 <__mulsi3>
    23a0:	e085c83a 	sub	r2,fp,r2
    23a4:	01000244 	movi	r4,9
    23a8:	d8c01117 	ldw	r3,68(sp)
    23ac:	d9801017 	ldw	r6,64(sp)
    23b0:	da001217 	ldw	r8,72(sp)
    23b4:	20800216 	blt	r4,r2,23c0 <___vfprintf_internal_r+0x290>
    23b8:	17000c04 	addi	fp,r2,48
    23bc:	00000506 	br	23d4 <___vfprintf_internal_r+0x2a4>
    23c0:	d9400e17 	ldw	r5,56(sp)
    23c4:	28000226 	beq	r5,zero,23d0 <___vfprintf_internal_r+0x2a0>
    23c8:	17000dc4 	addi	fp,r2,55
    23cc:	00000106 	br	23d4 <___vfprintf_internal_r+0x2a4>
    23d0:	170015c4 	addi	fp,r2,87
    23d4:	1f000005 	stb	fp,0(r3)
    23d8:	b5800044 	addi	r22,r22,1
    23dc:	3039883a 	mov	fp,r6
    23e0:	003fe406 	br	2374 <___vfprintf_internal_r+0x244>
    23e4:	1ec5c83a 	sub	r2,r3,sp
    23e8:	d8800a15 	stw	r2,40(sp)
    23ec:	9885c83a 	sub	r2,r19,r2
    23f0:	1839883a 	mov	fp,r3
    23f4:	00800e0e 	bge	zero,r2,2430 <___vfprintf_internal_r+0x300>
    23f8:	182d883a 	mov	r22,r3
    23fc:	1885883a 	add	r2,r3,r2
    2400:	01000c04 	movi	r4,48
    2404:	d9400917 	ldw	r5,36(sp)
    2408:	b007883a 	mov	r3,r22
    240c:	b140052e 	bgeu	r22,r5,2424 <___vfprintf_internal_r+0x2f4>
    2410:	b5800044 	addi	r22,r22,1
    2414:	19000005 	stb	r4,0(r3)
    2418:	b039883a 	mov	fp,r22
    241c:	b0bff91e 	bne	r22,r2,2404 <___vfprintf_internal_r+0x2d4>
    2420:	00000106 	br	2428 <___vfprintf_internal_r+0x2f8>
    2424:	b039883a 	mov	fp,r22
    2428:	b6edc83a 	sub	r22,r22,sp
    242c:	dd800a15 	stw	r22,40(sp)
    2430:	d8800a17 	ldw	r2,40(sp)
    2434:	1207883a 	add	r3,r2,r8
    2438:	90edc83a 	sub	r22,r18,r3
    243c:	d8c00b17 	ldw	r3,44(sp)
    2440:	18001726 	beq	r3,zero,24a0 <___vfprintf_internal_r+0x370>
    2444:	40000a26 	beq	r8,zero,2470 <___vfprintf_internal_r+0x340>
    2448:	00800b44 	movi	r2,45
    244c:	d8800805 	stb	r2,32(sp)
    2450:	88800117 	ldw	r2,4(r17)
    2454:	a009883a 	mov	r4,r20
    2458:	880b883a 	mov	r5,r17
    245c:	d9800804 	addi	r6,sp,32
    2460:	01c00044 	movi	r7,1
    2464:	103ee83a 	callr	r2
    2468:	10004d1e 	bne	r2,zero,25a0 <___vfprintf_internal_r+0x470>
    246c:	84000044 	addi	r16,r16,1
    2470:	0580070e 	bge	zero,r22,2490 <___vfprintf_internal_r+0x360>
    2474:	a009883a 	mov	r4,r20
    2478:	880b883a 	mov	r5,r17
    247c:	01800c04 	movi	r6,48
    2480:	b00f883a 	mov	r7,r22
    2484:	00020c40 	call	20c4 <print_repeat>
    2488:	1000451e 	bne	r2,zero,25a0 <___vfprintf_internal_r+0x470>
    248c:	85a1883a 	add	r16,r16,r22
    2490:	d9000a17 	ldw	r4,40(sp)
    2494:	e007883a 	mov	r3,fp
    2498:	272dc83a 	sub	r22,r4,fp
    249c:	00002206 	br	2528 <___vfprintf_internal_r+0x3f8>
    24a0:	0580090e 	bge	zero,r22,24c8 <___vfprintf_internal_r+0x398>
    24a4:	a009883a 	mov	r4,r20
    24a8:	880b883a 	mov	r5,r17
    24ac:	01800804 	movi	r6,32
    24b0:	b00f883a 	mov	r7,r22
    24b4:	da001215 	stw	r8,72(sp)
    24b8:	00020c40 	call	20c4 <print_repeat>
    24bc:	da001217 	ldw	r8,72(sp)
    24c0:	1000371e 	bne	r2,zero,25a0 <___vfprintf_internal_r+0x470>
    24c4:	85a1883a 	add	r16,r16,r22
    24c8:	403ff126 	beq	r8,zero,2490 <___vfprintf_internal_r+0x360>
    24cc:	00800b44 	movi	r2,45
    24d0:	d8800805 	stb	r2,32(sp)
    24d4:	88800117 	ldw	r2,4(r17)
    24d8:	a009883a 	mov	r4,r20
    24dc:	880b883a 	mov	r5,r17
    24e0:	d9800804 	addi	r6,sp,32
    24e4:	01c00044 	movi	r7,1
    24e8:	103ee83a 	callr	r2
    24ec:	10002c1e 	bne	r2,zero,25a0 <___vfprintf_internal_r+0x470>
    24f0:	84000044 	addi	r16,r16,1
    24f4:	003fe606 	br	2490 <___vfprintf_internal_r+0x360>
    24f8:	18ffffc4 	addi	r3,r3,-1
    24fc:	18800003 	ldbu	r2,0(r3)
    2500:	a009883a 	mov	r4,r20
    2504:	d8c01115 	stw	r3,68(sp)
    2508:	d8800805 	stb	r2,32(sp)
    250c:	88800117 	ldw	r2,4(r17)
    2510:	880b883a 	mov	r5,r17
    2514:	d9800804 	addi	r6,sp,32
    2518:	01c00044 	movi	r7,1
    251c:	103ee83a 	callr	r2
    2520:	d8c01117 	ldw	r3,68(sp)
    2524:	10001e1e 	bne	r2,zero,25a0 <___vfprintf_internal_r+0x470>
    2528:	80c5c83a 	sub	r2,r16,r3
    252c:	1d89883a 	add	r4,r3,r22
    2530:	e085883a 	add	r2,fp,r2
    2534:	013ff016 	blt	zero,r4,24f8 <___vfprintf_internal_r+0x3c8>
    2538:	1021883a 	mov	r16,r2
    253c:	df000d17 	ldw	fp,52(sp)
    2540:	00004406 	br	2654 <___vfprintf_internal_r+0x524>
    2544:	01000044 	movi	r4,1
    2548:	2480080e 	bge	r4,r18,256c <___vfprintf_internal_r+0x43c>
    254c:	95bfffc4 	addi	r22,r18,-1
    2550:	a009883a 	mov	r4,r20
    2554:	880b883a 	mov	r5,r17
    2558:	01800804 	movi	r6,32
    255c:	b00f883a 	mov	r7,r22
    2560:	00020c40 	call	20c4 <print_repeat>
    2564:	10000e1e 	bne	r2,zero,25a0 <___vfprintf_internal_r+0x470>
    2568:	85a1883a 	add	r16,r16,r22
    256c:	e0800017 	ldw	r2,0(fp)
    2570:	a009883a 	mov	r4,r20
    2574:	880b883a 	mov	r5,r17
    2578:	d8800005 	stb	r2,0(sp)
    257c:	88800117 	ldw	r2,4(r17)
    2580:	d80d883a 	mov	r6,sp
    2584:	01c00044 	movi	r7,1
    2588:	e5800104 	addi	r22,fp,4
    258c:	103ee83a 	callr	r2
    2590:	1000031e 	bne	r2,zero,25a0 <___vfprintf_internal_r+0x470>
    2594:	84000044 	addi	r16,r16,1
    2598:	b039883a 	mov	fp,r22
    259c:	00002d06 	br	2654 <___vfprintf_internal_r+0x524>
    25a0:	00bfffc4 	movi	r2,-1
    25a4:	00003106 	br	266c <___vfprintf_internal_r+0x53c>
    25a8:	e5800017 	ldw	r22,0(fp)
    25ac:	e0c00104 	addi	r3,fp,4
    25b0:	d8c00a15 	stw	r3,40(sp)
    25b4:	b009883a 	mov	r4,r22
    25b8:	0001cfc0 	call	1cfc <strlen>
    25bc:	9091c83a 	sub	r8,r18,r2
    25c0:	1039883a 	mov	fp,r2
    25c4:	0200090e 	bge	zero,r8,25ec <___vfprintf_internal_r+0x4bc>
    25c8:	400f883a 	mov	r7,r8
    25cc:	a009883a 	mov	r4,r20
    25d0:	880b883a 	mov	r5,r17
    25d4:	01800804 	movi	r6,32
    25d8:	da001215 	stw	r8,72(sp)
    25dc:	00020c40 	call	20c4 <print_repeat>
    25e0:	da001217 	ldw	r8,72(sp)
    25e4:	103fee1e 	bne	r2,zero,25a0 <___vfprintf_internal_r+0x470>
    25e8:	8221883a 	add	r16,r16,r8
    25ec:	88800117 	ldw	r2,4(r17)
    25f0:	a009883a 	mov	r4,r20
    25f4:	880b883a 	mov	r5,r17
    25f8:	b00d883a 	mov	r6,r22
    25fc:	e00f883a 	mov	r7,fp
    2600:	103ee83a 	callr	r2
    2604:	103fe61e 	bne	r2,zero,25a0 <___vfprintf_internal_r+0x470>
    2608:	8721883a 	add	r16,r16,fp
    260c:	df000a17 	ldw	fp,40(sp)
    2610:	00001006 	br	2654 <___vfprintf_internal_r+0x524>
    2614:	05c00044 	movi	r23,1
    2618:	04ffffc4 	movi	r19,-1
    261c:	d8000e15 	stw	zero,56(sp)
    2620:	05400284 	movi	r21,10
    2624:	9825883a 	mov	r18,r19
    2628:	d8000c15 	stw	zero,48(sp)
    262c:	d8000b15 	stw	zero,44(sp)
    2630:	b82d883a 	mov	r22,r23
    2634:	00000806 	br	2658 <___vfprintf_internal_r+0x528>
    2638:	dd800b15 	stw	r22,44(sp)
    263c:	05800084 	movi	r22,2
    2640:	00000506 	br	2658 <___vfprintf_internal_r+0x528>
    2644:	00c00044 	movi	r3,1
    2648:	d8c00c15 	stw	r3,48(sp)
    264c:	058000c4 	movi	r22,3
    2650:	00000106 	br	2658 <___vfprintf_internal_r+0x528>
    2654:	002d883a 	mov	r22,zero
    2658:	d8c00f17 	ldw	r3,60(sp)
    265c:	18c00044 	addi	r3,r3,1
    2660:	d8c00f15 	stw	r3,60(sp)
    2664:	003ecc06 	br	2198 <___vfprintf_internal_r+0x68>
    2668:	8005883a 	mov	r2,r16
    266c:	dfc01c17 	ldw	ra,112(sp)
    2670:	df001b17 	ldw	fp,108(sp)
    2674:	ddc01a17 	ldw	r23,104(sp)
    2678:	dd801917 	ldw	r22,100(sp)
    267c:	dd401817 	ldw	r21,96(sp)
    2680:	dd001717 	ldw	r20,92(sp)
    2684:	dcc01617 	ldw	r19,88(sp)
    2688:	dc801517 	ldw	r18,84(sp)
    268c:	dc401417 	ldw	r17,80(sp)
    2690:	dc001317 	ldw	r16,76(sp)
    2694:	dec01d04 	addi	sp,sp,116
    2698:	f800283a 	ret

0000269c <__vfprintf_internal>:
    269c:	2007883a 	mov	r3,r4
    26a0:	01000034 	movhi	r4,0
    26a4:	21185804 	addi	r4,r4,24928
    26a8:	21000017 	ldw	r4,0(r4)
    26ac:	2805883a 	mov	r2,r5
    26b0:	300f883a 	mov	r7,r6
    26b4:	180b883a 	mov	r5,r3
    26b8:	100d883a 	mov	r6,r2
    26bc:	00021301 	jmpi	2130 <___vfprintf_internal_r>

000026c0 <__sfvwrite_small_dev>:
    26c0:	2880000b 	ldhu	r2,0(r5)
    26c4:	defffa04 	addi	sp,sp,-24
    26c8:	dc000015 	stw	r16,0(sp)
    26cc:	dfc00515 	stw	ra,20(sp)
    26d0:	dd000415 	stw	r20,16(sp)
    26d4:	dcc00315 	stw	r19,12(sp)
    26d8:	dc800215 	stw	r18,8(sp)
    26dc:	dc400115 	stw	r17,4(sp)
    26e0:	1080020c 	andi	r2,r2,8
    26e4:	2821883a 	mov	r16,r5
    26e8:	10001726 	beq	r2,zero,2748 <__sfvwrite_small_dev+0x88>
    26ec:	2880008f 	ldh	r2,2(r5)
    26f0:	10001216 	blt	r2,zero,273c <__sfvwrite_small_dev+0x7c>
    26f4:	2027883a 	mov	r19,r4
    26f8:	3025883a 	mov	r18,r6
    26fc:	3823883a 	mov	r17,r7
    2700:	05010004 	movi	r20,1024
    2704:	04400b0e 	bge	zero,r17,2734 <__sfvwrite_small_dev+0x74>
    2708:	8140008f 	ldh	r5,2(r16)
    270c:	880f883a 	mov	r7,r17
    2710:	a440010e 	bge	r20,r17,2718 <__sfvwrite_small_dev+0x58>
    2714:	01c10004 	movi	r7,1024
    2718:	9809883a 	mov	r4,r19
    271c:	900d883a 	mov	r6,r18
    2720:	0002ad00 	call	2ad0 <_write_r>
    2724:	0080050e 	bge	zero,r2,273c <__sfvwrite_small_dev+0x7c>
    2728:	88a3c83a 	sub	r17,r17,r2
    272c:	90a5883a 	add	r18,r18,r2
    2730:	003ff406 	br	2704 <__sfvwrite_small_dev+0x44>
    2734:	0005883a 	mov	r2,zero
    2738:	00000406 	br	274c <__sfvwrite_small_dev+0x8c>
    273c:	8080000b 	ldhu	r2,0(r16)
    2740:	10801014 	ori	r2,r2,64
    2744:	8080000d 	sth	r2,0(r16)
    2748:	00bfffc4 	movi	r2,-1
    274c:	dfc00517 	ldw	ra,20(sp)
    2750:	dd000417 	ldw	r20,16(sp)
    2754:	dcc00317 	ldw	r19,12(sp)
    2758:	dc800217 	ldw	r18,8(sp)
    275c:	dc400117 	ldw	r17,4(sp)
    2760:	dc000017 	ldw	r16,0(sp)
    2764:	dec00604 	addi	sp,sp,24
    2768:	f800283a 	ret

0000276c <malloc>:
    276c:	00800034 	movhi	r2,0
    2770:	10985804 	addi	r2,r2,24928
    2774:	200b883a 	mov	r5,r4
    2778:	11000017 	ldw	r4,0(r2)
    277c:	00028781 	jmpi	2878 <_malloc_r>

00002780 <free>:
    2780:	00800034 	movhi	r2,0
    2784:	10985804 	addi	r2,r2,24928
    2788:	200b883a 	mov	r5,r4
    278c:	11000017 	ldw	r4,0(r2)
    2790:	00027941 	jmpi	2794 <_free_r>

00002794 <_free_r>:
    2794:	28003726 	beq	r5,zero,2874 <_free_r+0xe0>
    2798:	28ffff17 	ldw	r3,-4(r5)
    279c:	28bfff04 	addi	r2,r5,-4
    27a0:	1800010e 	bge	r3,zero,27a8 <_free_r+0x14>
    27a4:	10c5883a 	add	r2,r2,r3
    27a8:	01400034 	movhi	r5,0
    27ac:	29586704 	addi	r5,r5,24988
    27b0:	28c00017 	ldw	r3,0(r5)
    27b4:	280d883a 	mov	r6,r5
    27b8:	1800031e 	bne	r3,zero,27c8 <_free_r+0x34>
    27bc:	10000115 	stw	zero,4(r2)
    27c0:	28800015 	stw	r2,0(r5)
    27c4:	f800283a 	ret
    27c8:	10c00c2e 	bgeu	r2,r3,27fc <_free_r+0x68>
    27cc:	11400017 	ldw	r5,0(r2)
    27d0:	1149883a 	add	r4,r2,r5
    27d4:	20c0041e 	bne	r4,r3,27e8 <_free_r+0x54>
    27d8:	20c00017 	ldw	r3,0(r4)
    27dc:	28c7883a 	add	r3,r5,r3
    27e0:	10c00015 	stw	r3,0(r2)
    27e4:	20c00117 	ldw	r3,4(r4)
    27e8:	10c00115 	stw	r3,4(r2)
    27ec:	30800015 	stw	r2,0(r6)
    27f0:	f800283a 	ret
    27f4:	11400336 	bltu	r2,r5,2804 <_free_r+0x70>
    27f8:	2807883a 	mov	r3,r5
    27fc:	19400117 	ldw	r5,4(r3)
    2800:	283ffc1e 	bne	r5,zero,27f4 <_free_r+0x60>
    2804:	19c00017 	ldw	r7,0(r3)
    2808:	19cd883a 	add	r6,r3,r7
    280c:	30800a1e 	bne	r6,r2,2838 <_free_r+0xa4>
    2810:	10800017 	ldw	r2,0(r2)
    2814:	3885883a 	add	r2,r7,r2
    2818:	18800015 	stw	r2,0(r3)
    281c:	1889883a 	add	r4,r3,r2
    2820:	2140141e 	bne	r4,r5,2874 <_free_r+0xe0>
    2824:	29000017 	ldw	r4,0(r5)
    2828:	1105883a 	add	r2,r2,r4
    282c:	18800015 	stw	r2,0(r3)
    2830:	28800117 	ldw	r2,4(r5)
    2834:	00000e06 	br	2870 <_free_r+0xdc>
    2838:	1180032e 	bgeu	r2,r6,2848 <_free_r+0xb4>
    283c:	00800304 	movi	r2,12
    2840:	20800015 	stw	r2,0(r4)
    2844:	f800283a 	ret
    2848:	11800017 	ldw	r6,0(r2)
    284c:	1189883a 	add	r4,r2,r6
    2850:	2140061e 	bne	r4,r5,286c <_free_r+0xd8>
    2854:	29000017 	ldw	r4,0(r5)
    2858:	3109883a 	add	r4,r6,r4
    285c:	11000015 	stw	r4,0(r2)
    2860:	29000117 	ldw	r4,4(r5)
    2864:	11000115 	stw	r4,4(r2)
    2868:	00000106 	br	2870 <_free_r+0xdc>
    286c:	11400115 	stw	r5,4(r2)
    2870:	18800115 	stw	r2,4(r3)
    2874:	f800283a 	ret

00002878 <_malloc_r>:
    2878:	defffb04 	addi	sp,sp,-20
    287c:	00bfff04 	movi	r2,-4
    2880:	dc000015 	stw	r16,0(sp)
    2884:	2c0000c4 	addi	r16,r5,3
    2888:	80a0703a 	and	r16,r16,r2
    288c:	dc800215 	stw	r18,8(sp)
    2890:	dfc00415 	stw	ra,16(sp)
    2894:	dcc00315 	stw	r19,12(sp)
    2898:	dc400115 	stw	r17,4(sp)
    289c:	84000204 	addi	r16,r16,8
    28a0:	00800304 	movi	r2,12
    28a4:	2025883a 	mov	r18,r4
    28a8:	8080022e 	bgeu	r16,r2,28b4 <_malloc_r+0x3c>
    28ac:	1021883a 	mov	r16,r2
    28b0:	00000506 	br	28c8 <_malloc_r+0x50>
    28b4:	8000040e 	bge	r16,zero,28c8 <_malloc_r+0x50>
    28b8:	00800304 	movi	r2,12
    28bc:	90800015 	stw	r2,0(r18)
    28c0:	0005883a 	mov	r2,zero
    28c4:	00003c06 	br	29b8 <_malloc_r+0x140>
    28c8:	817ffb36 	bltu	r16,r5,28b8 <_malloc_r+0x40>
    28cc:	01000034 	movhi	r4,0
    28d0:	21186704 	addi	r4,r4,24988
    28d4:	20800017 	ldw	r2,0(r4)
    28d8:	1007883a 	mov	r3,r2
    28dc:	18000926 	beq	r3,zero,2904 <_malloc_r+0x8c>
    28e0:	19400017 	ldw	r5,0(r3)
    28e4:	2c0bc83a 	sub	r5,r5,r16
    28e8:	28001716 	blt	r5,zero,2948 <_malloc_r+0xd0>
    28ec:	018002c4 	movi	r6,11
    28f0:	31400d2e 	bgeu	r6,r5,2928 <_malloc_r+0xb0>
    28f4:	19400015 	stw	r5,0(r3)
    28f8:	1945883a 	add	r2,r3,r5
    28fc:	14000015 	stw	r16,0(r2)
    2900:	1000231e 	bne	r2,zero,2990 <_malloc_r+0x118>
    2904:	04400034 	movhi	r17,0
    2908:	8c586604 	addi	r17,r17,24984
    290c:	88800017 	ldw	r2,0(r17)
    2910:	1000101e 	bne	r2,zero,2954 <_malloc_r+0xdc>
    2914:	9009883a 	mov	r4,r18
    2918:	000b883a 	mov	r5,zero
    291c:	0002a800 	call	2a80 <_sbrk_r>
    2920:	88800015 	stw	r2,0(r17)
    2924:	00000b06 	br	2954 <_malloc_r+0xdc>
    2928:	10c0031e 	bne	r2,r3,2938 <_malloc_r+0xc0>
    292c:	10c00117 	ldw	r3,4(r2)
    2930:	20c00015 	stw	r3,0(r4)
    2934:	00001606 	br	2990 <_malloc_r+0x118>
    2938:	19000117 	ldw	r4,4(r3)
    293c:	11000115 	stw	r4,4(r2)
    2940:	1805883a 	mov	r2,r3
    2944:	00001206 	br	2990 <_malloc_r+0x118>
    2948:	1805883a 	mov	r2,r3
    294c:	18c00117 	ldw	r3,4(r3)
    2950:	003fe206 	br	28dc <_malloc_r+0x64>
    2954:	9009883a 	mov	r4,r18
    2958:	800b883a 	mov	r5,r16
    295c:	0002a800 	call	2a80 <_sbrk_r>
    2960:	04ffffc4 	movi	r19,-1
    2964:	14ffd426 	beq	r2,r19,28b8 <_malloc_r+0x40>
    2968:	144000c4 	addi	r17,r2,3
    296c:	00ffff04 	movi	r3,-4
    2970:	88e2703a 	and	r17,r17,r3
    2974:	88800526 	beq	r17,r2,298c <_malloc_r+0x114>
    2978:	9009883a 	mov	r4,r18
    297c:	888bc83a 	sub	r5,r17,r2
    2980:	0002a800 	call	2a80 <_sbrk_r>
    2984:	14ffcc26 	beq	r2,r19,28b8 <_malloc_r+0x40>
    2988:	8805883a 	mov	r2,r17
    298c:	14000015 	stw	r16,0(r2)
    2990:	114002c4 	addi	r5,r2,11
    2994:	00fffe04 	movi	r3,-8
    2998:	11000104 	addi	r4,r2,4
    299c:	28c6703a 	and	r3,r5,r3
    29a0:	1909c83a 	sub	r4,r3,r4
    29a4:	20000326 	beq	r4,zero,29b4 <_malloc_r+0x13c>
    29a8:	110b883a 	add	r5,r2,r4
    29ac:	0109c83a 	sub	r4,zero,r4
    29b0:	29000015 	stw	r4,0(r5)
    29b4:	1805883a 	mov	r2,r3
    29b8:	dfc00417 	ldw	ra,16(sp)
    29bc:	dcc00317 	ldw	r19,12(sp)
    29c0:	dc800217 	ldw	r18,8(sp)
    29c4:	dc400117 	ldw	r17,4(sp)
    29c8:	dc000017 	ldw	r16,0(sp)
    29cc:	dec00504 	addi	sp,sp,20
    29d0:	f800283a 	ret

000029d4 <putc>:
    29d4:	defffd04 	addi	sp,sp,-12
    29d8:	00800034 	movhi	r2,0
    29dc:	dc000115 	stw	r16,4(sp)
    29e0:	dfc00215 	stw	ra,8(sp)
    29e4:	1089b004 	addi	r2,r2,9920
    29e8:	28800115 	stw	r2,4(r5)
    29ec:	00800034 	movhi	r2,0
    29f0:	10985804 	addi	r2,r2,24928
    29f4:	d9000005 	stb	r4,0(sp)
    29f8:	2021883a 	mov	r16,r4
    29fc:	11000017 	ldw	r4,0(r2)
    2a00:	d80d883a 	mov	r6,sp
    2a04:	01c00044 	movi	r7,1
    2a08:	00026c00 	call	26c0 <__sfvwrite_small_dev>
    2a0c:	00ffffc4 	movi	r3,-1
    2a10:	10c00126 	beq	r2,r3,2a18 <putc+0x44>
    2a14:	8005883a 	mov	r2,r16
    2a18:	dfc00217 	ldw	ra,8(sp)
    2a1c:	dc000117 	ldw	r16,4(sp)
    2a20:	dec00304 	addi	sp,sp,12
    2a24:	f800283a 	ret

00002a28 <_putc_r>:
    2a28:	defffd04 	addi	sp,sp,-12
    2a2c:	00800034 	movhi	r2,0
    2a30:	dc000115 	stw	r16,4(sp)
    2a34:	dfc00215 	stw	ra,8(sp)
    2a38:	1089b004 	addi	r2,r2,9920
    2a3c:	30800115 	stw	r2,4(r6)
    2a40:	00800034 	movhi	r2,0
    2a44:	10985804 	addi	r2,r2,24928
    2a48:	11000017 	ldw	r4,0(r2)
    2a4c:	2821883a 	mov	r16,r5
    2a50:	01c00044 	movi	r7,1
    2a54:	300b883a 	mov	r5,r6
    2a58:	d80d883a 	mov	r6,sp
    2a5c:	dc000005 	stb	r16,0(sp)
    2a60:	00026c00 	call	26c0 <__sfvwrite_small_dev>
    2a64:	00ffffc4 	movi	r3,-1
    2a68:	10c00126 	beq	r2,r3,2a70 <_putc_r+0x48>
    2a6c:	8005883a 	mov	r2,r16
    2a70:	dfc00217 	ldw	ra,8(sp)
    2a74:	dc000117 	ldw	r16,4(sp)
    2a78:	dec00304 	addi	sp,sp,12
    2a7c:	f800283a 	ret

00002a80 <_sbrk_r>:
    2a80:	defffd04 	addi	sp,sp,-12
    2a84:	dc000015 	stw	r16,0(sp)
    2a88:	04000034 	movhi	r16,0
    2a8c:	dc400115 	stw	r17,4(sp)
    2a90:	84186804 	addi	r16,r16,24992
    2a94:	2023883a 	mov	r17,r4
    2a98:	2809883a 	mov	r4,r5
    2a9c:	dfc00215 	stw	ra,8(sp)
    2aa0:	80000015 	stw	zero,0(r16)
    2aa4:	0002e700 	call	2e70 <sbrk>
    2aa8:	00ffffc4 	movi	r3,-1
    2aac:	10c0031e 	bne	r2,r3,2abc <_sbrk_r+0x3c>
    2ab0:	80c00017 	ldw	r3,0(r16)
    2ab4:	18000126 	beq	r3,zero,2abc <_sbrk_r+0x3c>
    2ab8:	88c00015 	stw	r3,0(r17)
    2abc:	dfc00217 	ldw	ra,8(sp)
    2ac0:	dc400117 	ldw	r17,4(sp)
    2ac4:	dc000017 	ldw	r16,0(sp)
    2ac8:	dec00304 	addi	sp,sp,12
    2acc:	f800283a 	ret

00002ad0 <_write_r>:
    2ad0:	defffd04 	addi	sp,sp,-12
    2ad4:	dc000015 	stw	r16,0(sp)
    2ad8:	04000034 	movhi	r16,0
    2adc:	dc400115 	stw	r17,4(sp)
    2ae0:	84186804 	addi	r16,r16,24992
    2ae4:	2023883a 	mov	r17,r4
    2ae8:	2809883a 	mov	r4,r5
    2aec:	300b883a 	mov	r5,r6
    2af0:	380d883a 	mov	r6,r7
    2af4:	dfc00215 	stw	ra,8(sp)
    2af8:	80000015 	stw	zero,0(r16)
    2afc:	0002fa00 	call	2fa0 <write>
    2b00:	00ffffc4 	movi	r3,-1
    2b04:	10c0031e 	bne	r2,r3,2b14 <_write_r+0x44>
    2b08:	80c00017 	ldw	r3,0(r16)
    2b0c:	18000126 	beq	r3,zero,2b14 <_write_r+0x44>
    2b10:	88c00015 	stw	r3,0(r17)
    2b14:	dfc00217 	ldw	ra,8(sp)
    2b18:	dc400117 	ldw	r17,4(sp)
    2b1c:	dc000017 	ldw	r16,0(sp)
    2b20:	dec00304 	addi	sp,sp,12
    2b24:	f800283a 	ret

00002b28 <alt_ic_isr_register>:
    2b28:	defff904 	addi	sp,sp,-28
    2b2c:	dfc00615 	stw	ra,24(sp)
    2b30:	df000515 	stw	fp,20(sp)
    2b34:	df000504 	addi	fp,sp,20
    2b38:	e13ffc15 	stw	r4,-16(fp)
    2b3c:	e17ffd15 	stw	r5,-12(fp)
    2b40:	e1bffe15 	stw	r6,-8(fp)
    2b44:	e1ffff15 	stw	r7,-4(fp)
    2b48:	e0800217 	ldw	r2,8(fp)
    2b4c:	d8800015 	stw	r2,0(sp)
    2b50:	e13ffc17 	ldw	r4,-16(fp)
    2b54:	e17ffd17 	ldw	r5,-12(fp)
    2b58:	e1bffe17 	ldw	r6,-8(fp)
    2b5c:	e1ffff17 	ldw	r7,-4(fp)
    2b60:	0002d080 	call	2d08 <alt_iic_isr_register>
    2b64:	e037883a 	mov	sp,fp
    2b68:	dfc00117 	ldw	ra,4(sp)
    2b6c:	df000017 	ldw	fp,0(sp)
    2b70:	dec00204 	addi	sp,sp,8
    2b74:	f800283a 	ret

00002b78 <alt_ic_irq_enable>:
    2b78:	defff904 	addi	sp,sp,-28
    2b7c:	df000615 	stw	fp,24(sp)
    2b80:	df000604 	addi	fp,sp,24
    2b84:	e13ffe15 	stw	r4,-8(fp)
    2b88:	e17fff15 	stw	r5,-4(fp)
    2b8c:	e0bfff17 	ldw	r2,-4(fp)
    2b90:	e0bffa15 	stw	r2,-24(fp)
    2b94:	0005303a 	rdctl	r2,status
    2b98:	e0bffb15 	stw	r2,-20(fp)
    2b9c:	e0fffb17 	ldw	r3,-20(fp)
    2ba0:	00bfff84 	movi	r2,-2
    2ba4:	1884703a 	and	r2,r3,r2
    2ba8:	1001703a 	wrctl	status,r2
    2bac:	e0bffb17 	ldw	r2,-20(fp)
    2bb0:	e0bffc15 	stw	r2,-16(fp)
    2bb4:	e0bffa17 	ldw	r2,-24(fp)
    2bb8:	00c00044 	movi	r3,1
    2bbc:	1884983a 	sll	r2,r3,r2
    2bc0:	1007883a 	mov	r3,r2
    2bc4:	00800034 	movhi	r2,0
    2bc8:	10986904 	addi	r2,r2,24996
    2bcc:	10800017 	ldw	r2,0(r2)
    2bd0:	1886b03a 	or	r3,r3,r2
    2bd4:	00800034 	movhi	r2,0
    2bd8:	10986904 	addi	r2,r2,24996
    2bdc:	10c00015 	stw	r3,0(r2)
    2be0:	00800034 	movhi	r2,0
    2be4:	10986904 	addi	r2,r2,24996
    2be8:	10800017 	ldw	r2,0(r2)
    2bec:	100170fa 	wrctl	ienable,r2
    2bf0:	e0bffc17 	ldw	r2,-16(fp)
    2bf4:	e0bffd15 	stw	r2,-12(fp)
    2bf8:	e0bffd17 	ldw	r2,-12(fp)
    2bfc:	1001703a 	wrctl	status,r2
    2c00:	0005883a 	mov	r2,zero
    2c04:	0001883a 	nop
    2c08:	e037883a 	mov	sp,fp
    2c0c:	df000017 	ldw	fp,0(sp)
    2c10:	dec00104 	addi	sp,sp,4
    2c14:	f800283a 	ret

00002c18 <alt_ic_irq_disable>:
    2c18:	defff904 	addi	sp,sp,-28
    2c1c:	df000615 	stw	fp,24(sp)
    2c20:	df000604 	addi	fp,sp,24
    2c24:	e13ffe15 	stw	r4,-8(fp)
    2c28:	e17fff15 	stw	r5,-4(fp)
    2c2c:	e0bfff17 	ldw	r2,-4(fp)
    2c30:	e0bffa15 	stw	r2,-24(fp)
    2c34:	0005303a 	rdctl	r2,status
    2c38:	e0bffb15 	stw	r2,-20(fp)
    2c3c:	e0fffb17 	ldw	r3,-20(fp)
    2c40:	00bfff84 	movi	r2,-2
    2c44:	1884703a 	and	r2,r3,r2
    2c48:	1001703a 	wrctl	status,r2
    2c4c:	e0bffb17 	ldw	r2,-20(fp)
    2c50:	e0bffc15 	stw	r2,-16(fp)
    2c54:	e0bffa17 	ldw	r2,-24(fp)
    2c58:	00c00044 	movi	r3,1
    2c5c:	1884983a 	sll	r2,r3,r2
    2c60:	0084303a 	nor	r2,zero,r2
    2c64:	1007883a 	mov	r3,r2
    2c68:	00800034 	movhi	r2,0
    2c6c:	10986904 	addi	r2,r2,24996
    2c70:	10800017 	ldw	r2,0(r2)
    2c74:	1886703a 	and	r3,r3,r2
    2c78:	00800034 	movhi	r2,0
    2c7c:	10986904 	addi	r2,r2,24996
    2c80:	10c00015 	stw	r3,0(r2)
    2c84:	00800034 	movhi	r2,0
    2c88:	10986904 	addi	r2,r2,24996
    2c8c:	10800017 	ldw	r2,0(r2)
    2c90:	100170fa 	wrctl	ienable,r2
    2c94:	e0bffc17 	ldw	r2,-16(fp)
    2c98:	e0bffd15 	stw	r2,-12(fp)
    2c9c:	e0bffd17 	ldw	r2,-12(fp)
    2ca0:	1001703a 	wrctl	status,r2
    2ca4:	0005883a 	mov	r2,zero
    2ca8:	0001883a 	nop
    2cac:	e037883a 	mov	sp,fp
    2cb0:	df000017 	ldw	fp,0(sp)
    2cb4:	dec00104 	addi	sp,sp,4
    2cb8:	f800283a 	ret

00002cbc <alt_ic_irq_enabled>:
    2cbc:	defffc04 	addi	sp,sp,-16
    2cc0:	df000315 	stw	fp,12(sp)
    2cc4:	df000304 	addi	fp,sp,12
    2cc8:	e13ffe15 	stw	r4,-8(fp)
    2ccc:	e17fff15 	stw	r5,-4(fp)
    2cd0:	000530fa 	rdctl	r2,ienable
    2cd4:	e0bffd15 	stw	r2,-12(fp)
    2cd8:	e0bfff17 	ldw	r2,-4(fp)
    2cdc:	00c00044 	movi	r3,1
    2ce0:	1884983a 	sll	r2,r3,r2
    2ce4:	1007883a 	mov	r3,r2
    2ce8:	e0bffd17 	ldw	r2,-12(fp)
    2cec:	1884703a 	and	r2,r3,r2
    2cf0:	1004c03a 	cmpne	r2,r2,zero
    2cf4:	10803fcc 	andi	r2,r2,255
    2cf8:	e037883a 	mov	sp,fp
    2cfc:	df000017 	ldw	fp,0(sp)
    2d00:	dec00104 	addi	sp,sp,4
    2d04:	f800283a 	ret

00002d08 <alt_iic_isr_register>:
    2d08:	defff504 	addi	sp,sp,-44
    2d0c:	dfc00a15 	stw	ra,40(sp)
    2d10:	df000915 	stw	fp,36(sp)
    2d14:	df000904 	addi	fp,sp,36
    2d18:	e13ffc15 	stw	r4,-16(fp)
    2d1c:	e17ffd15 	stw	r5,-12(fp)
    2d20:	e1bffe15 	stw	r6,-8(fp)
    2d24:	e1ffff15 	stw	r7,-4(fp)
    2d28:	00bffa84 	movi	r2,-22
    2d2c:	e0bff715 	stw	r2,-36(fp)
    2d30:	e0bffd17 	ldw	r2,-12(fp)
    2d34:	e0bff815 	stw	r2,-32(fp)
    2d38:	e0bff817 	ldw	r2,-32(fp)
    2d3c:	10800808 	cmpgei	r2,r2,32
    2d40:	1000271e 	bne	r2,zero,2de0 <alt_iic_isr_register+0xd8>
    2d44:	0005303a 	rdctl	r2,status
    2d48:	e0bffa15 	stw	r2,-24(fp)
    2d4c:	e0fffa17 	ldw	r3,-24(fp)
    2d50:	00bfff84 	movi	r2,-2
    2d54:	1884703a 	and	r2,r3,r2
    2d58:	1001703a 	wrctl	status,r2
    2d5c:	e0bffa17 	ldw	r2,-24(fp)
    2d60:	e0bff915 	stw	r2,-28(fp)
    2d64:	00800034 	movhi	r2,0
    2d68:	10986e04 	addi	r2,r2,25016
    2d6c:	e0fff817 	ldw	r3,-32(fp)
    2d70:	180690fa 	slli	r3,r3,3
    2d74:	10c5883a 	add	r2,r2,r3
    2d78:	e0fffe17 	ldw	r3,-8(fp)
    2d7c:	10c00015 	stw	r3,0(r2)
    2d80:	00800034 	movhi	r2,0
    2d84:	10986e04 	addi	r2,r2,25016
    2d88:	e0fff817 	ldw	r3,-32(fp)
    2d8c:	180690fa 	slli	r3,r3,3
    2d90:	18c00104 	addi	r3,r3,4
    2d94:	10c5883a 	add	r2,r2,r3
    2d98:	e0ffff17 	ldw	r3,-4(fp)
    2d9c:	10c00015 	stw	r3,0(r2)
    2da0:	e0bffe17 	ldw	r2,-8(fp)
    2da4:	10000526 	beq	r2,zero,2dbc <alt_iic_isr_register+0xb4>
    2da8:	e0bff817 	ldw	r2,-32(fp)
    2dac:	e13ffc17 	ldw	r4,-16(fp)
    2db0:	100b883a 	mov	r5,r2
    2db4:	0002b780 	call	2b78 <alt_ic_irq_enable>
    2db8:	00000406 	br	2dcc <alt_iic_isr_register+0xc4>
    2dbc:	e0bff817 	ldw	r2,-32(fp)
    2dc0:	e13ffc17 	ldw	r4,-16(fp)
    2dc4:	100b883a 	mov	r5,r2
    2dc8:	0002c180 	call	2c18 <alt_ic_irq_disable>
    2dcc:	e0bff715 	stw	r2,-36(fp)
    2dd0:	e0bff917 	ldw	r2,-28(fp)
    2dd4:	e0bffb15 	stw	r2,-20(fp)
    2dd8:	e0bffb17 	ldw	r2,-20(fp)
    2ddc:	1001703a 	wrctl	status,r2
    2de0:	e0bff717 	ldw	r2,-36(fp)
    2de4:	e037883a 	mov	sp,fp
    2de8:	dfc00117 	ldw	ra,4(sp)
    2dec:	df000017 	ldw	fp,0(sp)
    2df0:	dec00204 	addi	sp,sp,8
    2df4:	f800283a 	ret

00002df8 <alt_main>:
    2df8:	defffd04 	addi	sp,sp,-12
    2dfc:	dfc00215 	stw	ra,8(sp)
    2e00:	df000115 	stw	fp,4(sp)
    2e04:	df000104 	addi	fp,sp,4
    2e08:	0009883a 	mov	r4,zero
    2e0c:	00030d80 	call	30d8 <alt_irq_init>
    2e10:	0001883a 	nop
    2e14:	000310c0 	call	310c <alt_sys_init>
    2e18:	01000034 	movhi	r4,0
    2e1c:	21174304 	addi	r4,r4,23820
    2e20:	01400034 	movhi	r5,0
    2e24:	29574304 	addi	r5,r5,23820
    2e28:	01800034 	movhi	r6,0
    2e2c:	31974304 	addi	r6,r6,23820
    2e30:	0004e780 	call	4e78 <alt_io_redirect>
    2e34:	0004b8c0 	call	4b8c <_do_ctors>
    2e38:	01000034 	movhi	r4,0
    2e3c:	2112fa04 	addi	r4,r4,19432
    2e40:	00054ac0 	call	54ac <atexit>
    2e44:	d1201a17 	ldw	r4,-32664(gp)
    2e48:	d0e01b17 	ldw	r3,-32660(gp)
    2e4c:	d0a01c17 	ldw	r2,-32656(gp)
    2e50:	180b883a 	mov	r5,r3
    2e54:	100d883a 	mov	r6,r2
    2e58:	00014e80 	call	14e8 <main>
    2e5c:	e0bfff15 	stw	r2,-4(fp)
    2e60:	01000044 	movi	r4,1
    2e64:	00049700 	call	4970 <close>
    2e68:	e13fff17 	ldw	r4,-4(fp)
    2e6c:	00054c00 	call	54c0 <exit>

00002e70 <sbrk>:
    2e70:	defff904 	addi	sp,sp,-28
    2e74:	df000615 	stw	fp,24(sp)
    2e78:	df000604 	addi	fp,sp,24
    2e7c:	e13fff15 	stw	r4,-4(fp)
    2e80:	0005303a 	rdctl	r2,status
    2e84:	e0bffc15 	stw	r2,-16(fp)
    2e88:	e0fffc17 	ldw	r3,-16(fp)
    2e8c:	00bfff84 	movi	r2,-2
    2e90:	1884703a 	and	r2,r3,r2
    2e94:	1001703a 	wrctl	status,r2
    2e98:	e0bffc17 	ldw	r2,-16(fp)
    2e9c:	e0bffa15 	stw	r2,-24(fp)
    2ea0:	d0a00a17 	ldw	r2,-32728(gp)
    2ea4:	10c000c4 	addi	r3,r2,3
    2ea8:	00bfff04 	movi	r2,-4
    2eac:	1884703a 	and	r2,r3,r2
    2eb0:	d0a00a15 	stw	r2,-32728(gp)
    2eb4:	d0e00a17 	ldw	r3,-32728(gp)
    2eb8:	e0bfff17 	ldw	r2,-4(fp)
    2ebc:	1887883a 	add	r3,r3,r2
    2ec0:	00800074 	movhi	r2,1
    2ec4:	10a36604 	addi	r2,r2,-29288
    2ec8:	10c0062e 	bgeu	r2,r3,2ee4 <sbrk+0x74>
    2ecc:	e0bffa17 	ldw	r2,-24(fp)
    2ed0:	e0bffd15 	stw	r2,-12(fp)
    2ed4:	e0bffd17 	ldw	r2,-12(fp)
    2ed8:	1001703a 	wrctl	status,r2
    2edc:	00bfffc4 	movi	r2,-1
    2ee0:	00000b06 	br	2f10 <sbrk+0xa0>
    2ee4:	d0a00a17 	ldw	r2,-32728(gp)
    2ee8:	e0bffb15 	stw	r2,-20(fp)
    2eec:	d0e00a17 	ldw	r3,-32728(gp)
    2ef0:	e0bfff17 	ldw	r2,-4(fp)
    2ef4:	1885883a 	add	r2,r3,r2
    2ef8:	d0a00a15 	stw	r2,-32728(gp)
    2efc:	e0bffa17 	ldw	r2,-24(fp)
    2f00:	e0bffe15 	stw	r2,-8(fp)
    2f04:	e0bffe17 	ldw	r2,-8(fp)
    2f08:	1001703a 	wrctl	status,r2
    2f0c:	e0bffb17 	ldw	r2,-20(fp)
    2f10:	e037883a 	mov	sp,fp
    2f14:	df000017 	ldw	fp,0(sp)
    2f18:	dec00104 	addi	sp,sp,4
    2f1c:	f800283a 	ret

00002f20 <usleep>:
    2f20:	defffd04 	addi	sp,sp,-12
    2f24:	dfc00215 	stw	ra,8(sp)
    2f28:	df000115 	stw	fp,4(sp)
    2f2c:	df000104 	addi	fp,sp,4
    2f30:	e13fff15 	stw	r4,-4(fp)
    2f34:	e13fff17 	ldw	r4,-4(fp)
    2f38:	00047c80 	call	47c8 <alt_busy_sleep>
    2f3c:	e037883a 	mov	sp,fp
    2f40:	dfc00117 	ldw	ra,4(sp)
    2f44:	df000017 	ldw	fp,0(sp)
    2f48:	dec00204 	addi	sp,sp,8
    2f4c:	f800283a 	ret

00002f50 <alt_get_errno>:
    2f50:	defffe04 	addi	sp,sp,-8
    2f54:	dfc00115 	stw	ra,4(sp)
    2f58:	df000015 	stw	fp,0(sp)
    2f5c:	d839883a 	mov	fp,sp
    2f60:	00800034 	movhi	r2,0
    2f64:	10986204 	addi	r2,r2,24968
    2f68:	10800017 	ldw	r2,0(r2)
    2f6c:	10000526 	beq	r2,zero,2f84 <alt_get_errno+0x34>
    2f70:	00800034 	movhi	r2,0
    2f74:	10986204 	addi	r2,r2,24968
    2f78:	10800017 	ldw	r2,0(r2)
    2f7c:	103ee83a 	callr	r2
    2f80:	00000206 	br	2f8c <alt_get_errno+0x3c>
    2f84:	00800034 	movhi	r2,0
    2f88:	10986804 	addi	r2,r2,24992
    2f8c:	e037883a 	mov	sp,fp
    2f90:	dfc00117 	ldw	ra,4(sp)
    2f94:	df000017 	ldw	fp,0(sp)
    2f98:	dec00204 	addi	sp,sp,8
    2f9c:	f800283a 	ret

00002fa0 <write>:
    2fa0:	defff904 	addi	sp,sp,-28
    2fa4:	dfc00615 	stw	ra,24(sp)
    2fa8:	df000515 	stw	fp,20(sp)
    2fac:	df000504 	addi	fp,sp,20
    2fb0:	e13ffd15 	stw	r4,-12(fp)
    2fb4:	e17ffe15 	stw	r5,-8(fp)
    2fb8:	e1bfff15 	stw	r6,-4(fp)
    2fbc:	e0bffd17 	ldw	r2,-12(fp)
    2fc0:	10000816 	blt	r2,zero,2fe4 <write+0x44>
    2fc4:	e13ffd17 	ldw	r4,-12(fp)
    2fc8:	01400304 	movi	r5,12
    2fcc:	0001b800 	call	1b80 <__mulsi3>
    2fd0:	1007883a 	mov	r3,r2
    2fd4:	00800034 	movhi	r2,0
    2fd8:	1097f004 	addi	r2,r2,24512
    2fdc:	1885883a 	add	r2,r3,r2
    2fe0:	00000106 	br	2fe8 <write+0x48>
    2fe4:	0005883a 	mov	r2,zero
    2fe8:	e0bffb15 	stw	r2,-20(fp)
    2fec:	e0bffb17 	ldw	r2,-20(fp)
    2ff0:	10002126 	beq	r2,zero,3078 <write+0xd8>
    2ff4:	e0bffb17 	ldw	r2,-20(fp)
    2ff8:	10800217 	ldw	r2,8(r2)
    2ffc:	108000cc 	andi	r2,r2,3
    3000:	10001826 	beq	r2,zero,3064 <write+0xc4>
    3004:	e0bffb17 	ldw	r2,-20(fp)
    3008:	10800017 	ldw	r2,0(r2)
    300c:	10800617 	ldw	r2,24(r2)
    3010:	10001426 	beq	r2,zero,3064 <write+0xc4>
    3014:	e0bffb17 	ldw	r2,-20(fp)
    3018:	10800017 	ldw	r2,0(r2)
    301c:	10800617 	ldw	r2,24(r2)
    3020:	e0ffff17 	ldw	r3,-4(fp)
    3024:	e13ffb17 	ldw	r4,-20(fp)
    3028:	e17ffe17 	ldw	r5,-8(fp)
    302c:	180d883a 	mov	r6,r3
    3030:	103ee83a 	callr	r2
    3034:	e0bffc15 	stw	r2,-16(fp)
    3038:	e0bffc17 	ldw	r2,-16(fp)
    303c:	1000070e 	bge	r2,zero,305c <write+0xbc>
    3040:	0002f500 	call	2f50 <alt_get_errno>
    3044:	1007883a 	mov	r3,r2
    3048:	e0bffc17 	ldw	r2,-16(fp)
    304c:	0085c83a 	sub	r2,zero,r2
    3050:	18800015 	stw	r2,0(r3)
    3054:	00bfffc4 	movi	r2,-1
    3058:	00000c06 	br	308c <write+0xec>
    305c:	e0bffc17 	ldw	r2,-16(fp)
    3060:	00000a06 	br	308c <write+0xec>
    3064:	0002f500 	call	2f50 <alt_get_errno>
    3068:	1007883a 	mov	r3,r2
    306c:	00800344 	movi	r2,13
    3070:	18800015 	stw	r2,0(r3)
    3074:	00000406 	br	3088 <write+0xe8>
    3078:	0002f500 	call	2f50 <alt_get_errno>
    307c:	1007883a 	mov	r3,r2
    3080:	00801444 	movi	r2,81
    3084:	18800015 	stw	r2,0(r3)
    3088:	00bfffc4 	movi	r2,-1
    308c:	e037883a 	mov	sp,fp
    3090:	dfc00117 	ldw	ra,4(sp)
    3094:	df000017 	ldw	fp,0(sp)
    3098:	dec00204 	addi	sp,sp,8
    309c:	f800283a 	ret

000030a0 <alt_dev_reg>:
    30a0:	defffd04 	addi	sp,sp,-12
    30a4:	dfc00215 	stw	ra,8(sp)
    30a8:	df000115 	stw	fp,4(sp)
    30ac:	df000104 	addi	fp,sp,4
    30b0:	e13fff15 	stw	r4,-4(fp)
    30b4:	e13fff17 	ldw	r4,-4(fp)
    30b8:	01400034 	movhi	r5,0
    30bc:	29585f04 	addi	r5,r5,24956
    30c0:	0004ae80 	call	4ae8 <alt_dev_llist_insert>
    30c4:	e037883a 	mov	sp,fp
    30c8:	dfc00117 	ldw	ra,4(sp)
    30cc:	df000017 	ldw	fp,0(sp)
    30d0:	dec00204 	addi	sp,sp,8
    30d4:	f800283a 	ret

000030d8 <alt_irq_init>:
    30d8:	defffd04 	addi	sp,sp,-12
    30dc:	dfc00215 	stw	ra,8(sp)
    30e0:	df000115 	stw	fp,4(sp)
    30e4:	df000104 	addi	fp,sp,4
    30e8:	e13fff15 	stw	r4,-4(fp)
    30ec:	00052140 	call	5214 <altera_nios2_gen2_irq_init>
    30f0:	00800044 	movi	r2,1
    30f4:	1001703a 	wrctl	status,r2
    30f8:	e037883a 	mov	sp,fp
    30fc:	dfc00117 	ldw	ra,4(sp)
    3100:	df000017 	ldw	fp,0(sp)
    3104:	dec00204 	addi	sp,sp,8
    3108:	f800283a 	ret

0000310c <alt_sys_init>:
    310c:	defffe04 	addi	sp,sp,-8
    3110:	dfc00115 	stw	ra,4(sp)
    3114:	df000015 	stw	fp,0(sp)
    3118:	d839883a 	mov	fp,sp
    311c:	01000034 	movhi	r4,0
    3120:	21179004 	addi	r4,r4,24128
    3124:	00030a00 	call	30a0 <alt_dev_reg>
    3128:	0001883a 	nop
    312c:	0001883a 	nop
    3130:	01000034 	movhi	r4,0
    3134:	21179b04 	addi	r4,r4,24172
    3138:	00030a00 	call	30a0 <alt_dev_reg>
    313c:	01000034 	movhi	r4,0
    3140:	2117a604 	addi	r4,r4,24216
    3144:	00041400 	call	4140 <altera_onchip_flash_init>
    3148:	e037883a 	mov	sp,fp
    314c:	dfc00117 	ldw	ra,4(sp)
    3150:	df000017 	ldw	fp,0(sp)
    3154:	dec00204 	addi	sp,sp,8
    3158:	f800283a 	ret

0000315c <altera_avalon_jtag_uart_read_fd>:
    315c:	defffa04 	addi	sp,sp,-24
    3160:	dfc00515 	stw	ra,20(sp)
    3164:	df000415 	stw	fp,16(sp)
    3168:	df000404 	addi	fp,sp,16
    316c:	e13ffd15 	stw	r4,-12(fp)
    3170:	e17ffe15 	stw	r5,-8(fp)
    3174:	e1bfff15 	stw	r6,-4(fp)
    3178:	e0bffd17 	ldw	r2,-12(fp)
    317c:	10800017 	ldw	r2,0(r2)
    3180:	e0bffc15 	stw	r2,-16(fp)
    3184:	e0bffc17 	ldw	r2,-16(fp)
    3188:	10c00a04 	addi	r3,r2,40
    318c:	e0bffd17 	ldw	r2,-12(fp)
    3190:	10800217 	ldw	r2,8(r2)
    3194:	1809883a 	mov	r4,r3
    3198:	e17ffe17 	ldw	r5,-8(fp)
    319c:	e1bfff17 	ldw	r6,-4(fp)
    31a0:	100f883a 	mov	r7,r2
    31a4:	000321c0 	call	321c <altera_avalon_jtag_uart_read>
    31a8:	e037883a 	mov	sp,fp
    31ac:	dfc00117 	ldw	ra,4(sp)
    31b0:	df000017 	ldw	fp,0(sp)
    31b4:	dec00204 	addi	sp,sp,8
    31b8:	f800283a 	ret

000031bc <altera_avalon_jtag_uart_write_fd>:
    31bc:	defffa04 	addi	sp,sp,-24
    31c0:	dfc00515 	stw	ra,20(sp)
    31c4:	df000415 	stw	fp,16(sp)
    31c8:	df000404 	addi	fp,sp,16
    31cc:	e13ffd15 	stw	r4,-12(fp)
    31d0:	e17ffe15 	stw	r5,-8(fp)
    31d4:	e1bfff15 	stw	r6,-4(fp)
    31d8:	e0bffd17 	ldw	r2,-12(fp)
    31dc:	10800017 	ldw	r2,0(r2)
    31e0:	e0bffc15 	stw	r2,-16(fp)
    31e4:	e0bffc17 	ldw	r2,-16(fp)
    31e8:	10c00a04 	addi	r3,r2,40
    31ec:	e0bffd17 	ldw	r2,-12(fp)
    31f0:	10800217 	ldw	r2,8(r2)
    31f4:	1809883a 	mov	r4,r3
    31f8:	e17ffe17 	ldw	r5,-8(fp)
    31fc:	e1bfff17 	ldw	r6,-4(fp)
    3200:	100f883a 	mov	r7,r2
    3204:	00033000 	call	3300 <altera_avalon_jtag_uart_write>
    3208:	e037883a 	mov	sp,fp
    320c:	dfc00117 	ldw	ra,4(sp)
    3210:	df000017 	ldw	fp,0(sp)
    3214:	dec00204 	addi	sp,sp,8
    3218:	f800283a 	ret

0000321c <altera_avalon_jtag_uart_read>:
    321c:	defff704 	addi	sp,sp,-36
    3220:	df000815 	stw	fp,32(sp)
    3224:	df000804 	addi	fp,sp,32
    3228:	e13ffc15 	stw	r4,-16(fp)
    322c:	e17ffd15 	stw	r5,-12(fp)
    3230:	e1bffe15 	stw	r6,-8(fp)
    3234:	e1ffff15 	stw	r7,-4(fp)
    3238:	e0bffc17 	ldw	r2,-16(fp)
    323c:	10800017 	ldw	r2,0(r2)
    3240:	e0bff915 	stw	r2,-28(fp)
    3244:	e0bffd17 	ldw	r2,-12(fp)
    3248:	e0bff815 	stw	r2,-32(fp)
    324c:	e0bffe17 	ldw	r2,-8(fp)
    3250:	e0fffd17 	ldw	r3,-12(fp)
    3254:	1885883a 	add	r2,r3,r2
    3258:	e0bffa15 	stw	r2,-24(fp)
    325c:	00001406 	br	32b0 <altera_avalon_jtag_uart_read+0x94>
    3260:	e0bff917 	ldw	r2,-28(fp)
    3264:	10800037 	ldwio	r2,0(r2)
    3268:	e0bffb15 	stw	r2,-20(fp)
    326c:	e0bffb17 	ldw	r2,-20(fp)
    3270:	10a0000c 	andi	r2,r2,32768
    3274:	10000626 	beq	r2,zero,3290 <altera_avalon_jtag_uart_read+0x74>
    3278:	e0bff817 	ldw	r2,-32(fp)
    327c:	10c00044 	addi	r3,r2,1
    3280:	e0fff815 	stw	r3,-32(fp)
    3284:	e0fffb17 	ldw	r3,-20(fp)
    3288:	10c00005 	stb	r3,0(r2)
    328c:	00000806 	br	32b0 <altera_avalon_jtag_uart_read+0x94>
    3290:	e0fff817 	ldw	r3,-32(fp)
    3294:	e0bffd17 	ldw	r2,-12(fp)
    3298:	18800126 	beq	r3,r2,32a0 <altera_avalon_jtag_uart_read+0x84>
    329c:	00000706 	br	32bc <altera_avalon_jtag_uart_read+0xa0>
    32a0:	e0bfff17 	ldw	r2,-4(fp)
    32a4:	1090000c 	andi	r2,r2,16384
    32a8:	10000126 	beq	r2,zero,32b0 <altera_avalon_jtag_uart_read+0x94>
    32ac:	00000306 	br	32bc <altera_avalon_jtag_uart_read+0xa0>
    32b0:	e0fff817 	ldw	r3,-32(fp)
    32b4:	e0bffa17 	ldw	r2,-24(fp)
    32b8:	18bfe936 	bltu	r3,r2,3260 <altera_avalon_jtag_uart_read+0x44>
    32bc:	e0fff817 	ldw	r3,-32(fp)
    32c0:	e0bffd17 	ldw	r2,-12(fp)
    32c4:	18800426 	beq	r3,r2,32d8 <altera_avalon_jtag_uart_read+0xbc>
    32c8:	e0fff817 	ldw	r3,-32(fp)
    32cc:	e0bffd17 	ldw	r2,-12(fp)
    32d0:	1885c83a 	sub	r2,r3,r2
    32d4:	00000606 	br	32f0 <altera_avalon_jtag_uart_read+0xd4>
    32d8:	e0bfff17 	ldw	r2,-4(fp)
    32dc:	1090000c 	andi	r2,r2,16384
    32e0:	10000226 	beq	r2,zero,32ec <altera_avalon_jtag_uart_read+0xd0>
    32e4:	00bffd44 	movi	r2,-11
    32e8:	00000106 	br	32f0 <altera_avalon_jtag_uart_read+0xd4>
    32ec:	00bffec4 	movi	r2,-5
    32f0:	e037883a 	mov	sp,fp
    32f4:	df000017 	ldw	fp,0(sp)
    32f8:	dec00104 	addi	sp,sp,4
    32fc:	f800283a 	ret

00003300 <altera_avalon_jtag_uart_write>:
    3300:	defff904 	addi	sp,sp,-28
    3304:	df000615 	stw	fp,24(sp)
    3308:	df000604 	addi	fp,sp,24
    330c:	e13ffc15 	stw	r4,-16(fp)
    3310:	e17ffd15 	stw	r5,-12(fp)
    3314:	e1bffe15 	stw	r6,-8(fp)
    3318:	e1ffff15 	stw	r7,-4(fp)
    331c:	e0bffc17 	ldw	r2,-16(fp)
    3320:	10800017 	ldw	r2,0(r2)
    3324:	e0bffa15 	stw	r2,-24(fp)
    3328:	e0bffe17 	ldw	r2,-8(fp)
    332c:	e0fffd17 	ldw	r3,-12(fp)
    3330:	1885883a 	add	r2,r3,r2
    3334:	e0bffb15 	stw	r2,-20(fp)
    3338:	00000e06 	br	3374 <altera_avalon_jtag_uart_write+0x74>
    333c:	e0bffa17 	ldw	r2,-24(fp)
    3340:	10800104 	addi	r2,r2,4
    3344:	10800037 	ldwio	r2,0(r2)
    3348:	10bfffec 	andhi	r2,r2,65535
    334c:	10000926 	beq	r2,zero,3374 <altera_avalon_jtag_uart_write+0x74>
    3350:	e0fffa17 	ldw	r3,-24(fp)
    3354:	e0bffd17 	ldw	r2,-12(fp)
    3358:	11000044 	addi	r4,r2,1
    335c:	e13ffd15 	stw	r4,-12(fp)
    3360:	10800003 	ldbu	r2,0(r2)
    3364:	10803fcc 	andi	r2,r2,255
    3368:	1080201c 	xori	r2,r2,128
    336c:	10bfe004 	addi	r2,r2,-128
    3370:	18800035 	stwio	r2,0(r3)
    3374:	e0fffd17 	ldw	r3,-12(fp)
    3378:	e0bffb17 	ldw	r2,-20(fp)
    337c:	18bfef36 	bltu	r3,r2,333c <altera_avalon_jtag_uart_write+0x3c>
    3380:	e0bffe17 	ldw	r2,-8(fp)
    3384:	e037883a 	mov	sp,fp
    3388:	df000017 	ldw	fp,0(sp)
    338c:	dec00104 	addi	sp,sp,4
    3390:	f800283a 	ret

00003394 <alt_avalon_spi_command>:
    3394:	defff404 	addi	sp,sp,-48
    3398:	df000b15 	stw	fp,44(sp)
    339c:	df000b04 	addi	fp,sp,44
    33a0:	e13ffc15 	stw	r4,-16(fp)
    33a4:	e17ffd15 	stw	r5,-12(fp)
    33a8:	e1bffe15 	stw	r6,-8(fp)
    33ac:	e1ffff15 	stw	r7,-4(fp)
    33b0:	e0ffff17 	ldw	r3,-4(fp)
    33b4:	e0bffe17 	ldw	r2,-8(fp)
    33b8:	1885883a 	add	r2,r3,r2
    33bc:	e0bff815 	stw	r2,-32(fp)
    33c0:	e0c00217 	ldw	r3,8(fp)
    33c4:	e0800117 	ldw	r2,4(fp)
    33c8:	1885883a 	add	r2,r3,r2
    33cc:	e0bff915 	stw	r2,-28(fp)
    33d0:	e0800117 	ldw	r2,4(fp)
    33d4:	e0bff515 	stw	r2,-44(fp)
    33d8:	e0bffe17 	ldw	r2,-8(fp)
    33dc:	e0bff615 	stw	r2,-40(fp)
    33e0:	00800044 	movi	r2,1
    33e4:	e0bff715 	stw	r2,-36(fp)
    33e8:	e0bffc17 	ldw	r2,-16(fp)
    33ec:	10800504 	addi	r2,r2,20
    33f0:	1009883a 	mov	r4,r2
    33f4:	e0bffd17 	ldw	r2,-12(fp)
    33f8:	00c00044 	movi	r3,1
    33fc:	1884983a 	sll	r2,r3,r2
    3400:	20800035 	stwio	r2,0(r4)
    3404:	e0800317 	ldw	r2,12(fp)
    3408:	1080008c 	andi	r2,r2,2
    340c:	1000051e 	bne	r2,zero,3424 <alt_avalon_spi_command+0x90>
    3410:	e0bffc17 	ldw	r2,-16(fp)
    3414:	10800304 	addi	r2,r2,12
    3418:	1007883a 	mov	r3,r2
    341c:	00810004 	movi	r2,1024
    3420:	18800035 	stwio	r2,0(r3)
    3424:	e0bffc17 	ldw	r2,-16(fp)
    3428:	10800037 	ldwio	r2,0(r2)
    342c:	e0bffc17 	ldw	r2,-16(fp)
    3430:	10800204 	addi	r2,r2,8
    3434:	10800037 	ldwio	r2,0(r2)
    3438:	e0bffa15 	stw	r2,-24(fp)
    343c:	e0bffa17 	ldw	r2,-24(fp)
    3440:	1080100c 	andi	r2,r2,64
    3444:	10000226 	beq	r2,zero,3450 <alt_avalon_spi_command+0xbc>
    3448:	e0bff717 	ldw	r2,-36(fp)
    344c:	1000031e 	bne	r2,zero,345c <alt_avalon_spi_command+0xc8>
    3450:	e0bffa17 	ldw	r2,-24(fp)
    3454:	1080200c 	andi	r2,r2,128
    3458:	103ff426 	beq	r2,zero,342c <alt_avalon_spi_command+0x98>
    345c:	e0bffa17 	ldw	r2,-24(fp)
    3460:	1080100c 	andi	r2,r2,64
    3464:	10001e26 	beq	r2,zero,34e0 <alt_avalon_spi_command+0x14c>
    3468:	e0bff717 	ldw	r2,-36(fp)
    346c:	00801c0e 	bge	zero,r2,34e0 <alt_avalon_spi_command+0x14c>
    3470:	e0bff717 	ldw	r2,-36(fp)
    3474:	10bfffc4 	addi	r2,r2,-1
    3478:	e0bff715 	stw	r2,-36(fp)
    347c:	e0ffff17 	ldw	r3,-4(fp)
    3480:	e0bff817 	ldw	r2,-32(fp)
    3484:	18800a2e 	bgeu	r3,r2,34b0 <alt_avalon_spi_command+0x11c>
    3488:	e0bffc17 	ldw	r2,-16(fp)
    348c:	10800104 	addi	r2,r2,4
    3490:	1009883a 	mov	r4,r2
    3494:	e0bfff17 	ldw	r2,-4(fp)
    3498:	10c00044 	addi	r3,r2,1
    349c:	e0ffff15 	stw	r3,-4(fp)
    34a0:	10800003 	ldbu	r2,0(r2)
    34a4:	10803fcc 	andi	r2,r2,255
    34a8:	20800035 	stwio	r2,0(r4)
    34ac:	00000c06 	br	34e0 <alt_avalon_spi_command+0x14c>
    34b0:	e0bff517 	ldw	r2,-44(fp)
    34b4:	10000826 	beq	r2,zero,34d8 <alt_avalon_spi_command+0x144>
    34b8:	e0bff517 	ldw	r2,-44(fp)
    34bc:	10bfffc4 	addi	r2,r2,-1
    34c0:	e0bff515 	stw	r2,-44(fp)
    34c4:	e0bffc17 	ldw	r2,-16(fp)
    34c8:	10800104 	addi	r2,r2,4
    34cc:	0007883a 	mov	r3,zero
    34d0:	10c00035 	stwio	r3,0(r2)
    34d4:	00000206 	br	34e0 <alt_avalon_spi_command+0x14c>
    34d8:	00bf0004 	movi	r2,-1024
    34dc:	e0bff715 	stw	r2,-36(fp)
    34e0:	e0bffa17 	ldw	r2,-24(fp)
    34e4:	1080200c 	andi	r2,r2,128
    34e8:	10001726 	beq	r2,zero,3548 <alt_avalon_spi_command+0x1b4>
    34ec:	e0bffc17 	ldw	r2,-16(fp)
    34f0:	10800037 	ldwio	r2,0(r2)
    34f4:	e0bffb15 	stw	r2,-20(fp)
    34f8:	e0bff617 	ldw	r2,-40(fp)
    34fc:	10000426 	beq	r2,zero,3510 <alt_avalon_spi_command+0x17c>
    3500:	e0bff617 	ldw	r2,-40(fp)
    3504:	10bfffc4 	addi	r2,r2,-1
    3508:	e0bff615 	stw	r2,-40(fp)
    350c:	00000506 	br	3524 <alt_avalon_spi_command+0x190>
    3510:	e0800217 	ldw	r2,8(fp)
    3514:	10c00044 	addi	r3,r2,1
    3518:	e0c00215 	stw	r3,8(fp)
    351c:	e0fffb17 	ldw	r3,-20(fp)
    3520:	10c00005 	stb	r3,0(r2)
    3524:	e0bff717 	ldw	r2,-36(fp)
    3528:	10800044 	addi	r2,r2,1
    352c:	e0bff715 	stw	r2,-36(fp)
    3530:	e0bff617 	ldw	r2,-40(fp)
    3534:	1000041e 	bne	r2,zero,3548 <alt_avalon_spi_command+0x1b4>
    3538:	e0c00217 	ldw	r3,8(fp)
    353c:	e0bff917 	ldw	r2,-28(fp)
    3540:	1880011e 	bne	r3,r2,3548 <alt_avalon_spi_command+0x1b4>
    3544:	00000106 	br	354c <alt_avalon_spi_command+0x1b8>
    3548:	003fb806 	br	342c <alt_avalon_spi_command+0x98>
    354c:	e0bffc17 	ldw	r2,-16(fp)
    3550:	10800204 	addi	r2,r2,8
    3554:	10800037 	ldwio	r2,0(r2)
    3558:	e0bffa15 	stw	r2,-24(fp)
    355c:	e0bffa17 	ldw	r2,-24(fp)
    3560:	1080080c 	andi	r2,r2,32
    3564:	103ff926 	beq	r2,zero,354c <alt_avalon_spi_command+0x1b8>
    3568:	e0800317 	ldw	r2,12(fp)
    356c:	1080004c 	andi	r2,r2,1
    3570:	1000041e 	bne	r2,zero,3584 <alt_avalon_spi_command+0x1f0>
    3574:	e0bffc17 	ldw	r2,-16(fp)
    3578:	10800304 	addi	r2,r2,12
    357c:	0007883a 	mov	r3,zero
    3580:	10c00035 	stwio	r3,0(r2)
    3584:	e0800117 	ldw	r2,4(fp)
    3588:	e037883a 	mov	sp,fp
    358c:	df000017 	ldw	fp,0(sp)
    3590:	dec00104 	addi	sp,sp,4
    3594:	f800283a 	ret

00003598 <altera_avalon_uart_read_fd>:
    3598:	defffa04 	addi	sp,sp,-24
    359c:	dfc00515 	stw	ra,20(sp)
    35a0:	df000415 	stw	fp,16(sp)
    35a4:	df000404 	addi	fp,sp,16
    35a8:	e13ffd15 	stw	r4,-12(fp)
    35ac:	e17ffe15 	stw	r5,-8(fp)
    35b0:	e1bfff15 	stw	r6,-4(fp)
    35b4:	e0bffd17 	ldw	r2,-12(fp)
    35b8:	10800017 	ldw	r2,0(r2)
    35bc:	e0bffc15 	stw	r2,-16(fp)
    35c0:	e0bffc17 	ldw	r2,-16(fp)
    35c4:	10c00a04 	addi	r3,r2,40
    35c8:	e0bffd17 	ldw	r2,-12(fp)
    35cc:	10800217 	ldw	r2,8(r2)
    35d0:	1809883a 	mov	r4,r3
    35d4:	e17ffe17 	ldw	r5,-8(fp)
    35d8:	e1bfff17 	ldw	r6,-4(fp)
    35dc:	100f883a 	mov	r7,r2
    35e0:	00036a80 	call	36a8 <altera_avalon_uart_read>
    35e4:	e037883a 	mov	sp,fp
    35e8:	dfc00117 	ldw	ra,4(sp)
    35ec:	df000017 	ldw	fp,0(sp)
    35f0:	dec00204 	addi	sp,sp,8
    35f4:	f800283a 	ret

000035f8 <altera_avalon_uart_write_fd>:
    35f8:	defffa04 	addi	sp,sp,-24
    35fc:	dfc00515 	stw	ra,20(sp)
    3600:	df000415 	stw	fp,16(sp)
    3604:	df000404 	addi	fp,sp,16
    3608:	e13ffd15 	stw	r4,-12(fp)
    360c:	e17ffe15 	stw	r5,-8(fp)
    3610:	e1bfff15 	stw	r6,-4(fp)
    3614:	e0bffd17 	ldw	r2,-12(fp)
    3618:	10800017 	ldw	r2,0(r2)
    361c:	e0bffc15 	stw	r2,-16(fp)
    3620:	e0bffc17 	ldw	r2,-16(fp)
    3624:	10c00a04 	addi	r3,r2,40
    3628:	e0bffd17 	ldw	r2,-12(fp)
    362c:	10800217 	ldw	r2,8(r2)
    3630:	1809883a 	mov	r4,r3
    3634:	e17ffe17 	ldw	r5,-8(fp)
    3638:	e1bfff17 	ldw	r6,-4(fp)
    363c:	100f883a 	mov	r7,r2
    3640:	00037bc0 	call	37bc <altera_avalon_uart_write>
    3644:	e037883a 	mov	sp,fp
    3648:	dfc00117 	ldw	ra,4(sp)
    364c:	df000017 	ldw	fp,0(sp)
    3650:	dec00204 	addi	sp,sp,8
    3654:	f800283a 	ret

00003658 <alt_get_errno>:
    3658:	defffe04 	addi	sp,sp,-8
    365c:	dfc00115 	stw	ra,4(sp)
    3660:	df000015 	stw	fp,0(sp)
    3664:	d839883a 	mov	fp,sp
    3668:	00800034 	movhi	r2,0
    366c:	10986204 	addi	r2,r2,24968
    3670:	10800017 	ldw	r2,0(r2)
    3674:	10000526 	beq	r2,zero,368c <alt_get_errno+0x34>
    3678:	00800034 	movhi	r2,0
    367c:	10986204 	addi	r2,r2,24968
    3680:	10800017 	ldw	r2,0(r2)
    3684:	103ee83a 	callr	r2
    3688:	00000206 	br	3694 <alt_get_errno+0x3c>
    368c:	00800034 	movhi	r2,0
    3690:	10986804 	addi	r2,r2,24992
    3694:	e037883a 	mov	sp,fp
    3698:	dfc00117 	ldw	ra,4(sp)
    369c:	df000017 	ldw	fp,0(sp)
    36a0:	dec00204 	addi	sp,sp,8
    36a4:	f800283a 	ret

000036a8 <altera_avalon_uart_read>:
    36a8:	defff804 	addi	sp,sp,-32
    36ac:	dfc00715 	stw	ra,28(sp)
    36b0:	df000615 	stw	fp,24(sp)
    36b4:	df000604 	addi	fp,sp,24
    36b8:	e13ffc15 	stw	r4,-16(fp)
    36bc:	e17ffd15 	stw	r5,-12(fp)
    36c0:	e1bffe15 	stw	r6,-8(fp)
    36c4:	e1ffff15 	stw	r7,-4(fp)
    36c8:	e0bfff17 	ldw	r2,-4(fp)
    36cc:	1090000c 	andi	r2,r2,16384
    36d0:	1005003a 	cmpeq	r2,r2,zero
    36d4:	10803fcc 	andi	r2,r2,255
    36d8:	e0bffa15 	stw	r2,-24(fp)
    36dc:	e0bffc17 	ldw	r2,-16(fp)
    36e0:	10800017 	ldw	r2,0(r2)
    36e4:	10800204 	addi	r2,r2,8
    36e8:	10800037 	ldwio	r2,0(r2)
    36ec:	e0bffb15 	stw	r2,-20(fp)
    36f0:	e0bffc17 	ldw	r2,-16(fp)
    36f4:	10800017 	ldw	r2,0(r2)
    36f8:	10800204 	addi	r2,r2,8
    36fc:	0007883a 	mov	r3,zero
    3700:	10c00035 	stwio	r3,0(r2)
    3704:	e0bffb17 	ldw	r2,-20(fp)
    3708:	1080200c 	andi	r2,r2,128
    370c:	10000b26 	beq	r2,zero,373c <altera_avalon_uart_read+0x94>
    3710:	e0bffc17 	ldw	r2,-16(fp)
    3714:	10800017 	ldw	r2,0(r2)
    3718:	10800037 	ldwio	r2,0(r2)
    371c:	1007883a 	mov	r3,r2
    3720:	e0bffd17 	ldw	r2,-12(fp)
    3724:	10c00005 	stb	r3,0(r2)
    3728:	e0bffb17 	ldw	r2,-20(fp)
    372c:	108000cc 	andi	r2,r2,3
    3730:	1000021e 	bne	r2,zero,373c <altera_avalon_uart_read+0x94>
    3734:	00800044 	movi	r2,1
    3738:	00000706 	br	3758 <altera_avalon_uart_read+0xb0>
    373c:	e0bffa17 	ldw	r2,-24(fp)
    3740:	103fe61e 	bne	r2,zero,36dc <altera_avalon_uart_read+0x34>
    3744:	00036580 	call	3658 <alt_get_errno>
    3748:	1007883a 	mov	r3,r2
    374c:	008002c4 	movi	r2,11
    3750:	18800015 	stw	r2,0(r3)
    3754:	0005883a 	mov	r2,zero
    3758:	e037883a 	mov	sp,fp
    375c:	dfc00117 	ldw	ra,4(sp)
    3760:	df000017 	ldw	fp,0(sp)
    3764:	dec00204 	addi	sp,sp,8
    3768:	f800283a 	ret

0000376c <alt_get_errno>:
    376c:	defffe04 	addi	sp,sp,-8
    3770:	dfc00115 	stw	ra,4(sp)
    3774:	df000015 	stw	fp,0(sp)
    3778:	d839883a 	mov	fp,sp
    377c:	00800034 	movhi	r2,0
    3780:	10986204 	addi	r2,r2,24968
    3784:	10800017 	ldw	r2,0(r2)
    3788:	10000526 	beq	r2,zero,37a0 <alt_get_errno+0x34>
    378c:	00800034 	movhi	r2,0
    3790:	10986204 	addi	r2,r2,24968
    3794:	10800017 	ldw	r2,0(r2)
    3798:	103ee83a 	callr	r2
    379c:	00000206 	br	37a8 <alt_get_errno+0x3c>
    37a0:	00800034 	movhi	r2,0
    37a4:	10986804 	addi	r2,r2,24992
    37a8:	e037883a 	mov	sp,fp
    37ac:	dfc00117 	ldw	ra,4(sp)
    37b0:	df000017 	ldw	fp,0(sp)
    37b4:	dec00204 	addi	sp,sp,8
    37b8:	f800283a 	ret

000037bc <altera_avalon_uart_write>:
    37bc:	defff704 	addi	sp,sp,-36
    37c0:	dfc00815 	stw	ra,32(sp)
    37c4:	df000715 	stw	fp,28(sp)
    37c8:	df000704 	addi	fp,sp,28
    37cc:	e13ffc15 	stw	r4,-16(fp)
    37d0:	e17ffd15 	stw	r5,-12(fp)
    37d4:	e1bffe15 	stw	r6,-8(fp)
    37d8:	e1ffff15 	stw	r7,-4(fp)
    37dc:	e0bfff17 	ldw	r2,-4(fp)
    37e0:	1090000c 	andi	r2,r2,16384
    37e4:	1005003a 	cmpeq	r2,r2,zero
    37e8:	10803fcc 	andi	r2,r2,255
    37ec:	e0bffa15 	stw	r2,-24(fp)
    37f0:	e0bffe17 	ldw	r2,-8(fp)
    37f4:	e0bff915 	stw	r2,-28(fp)
    37f8:	e0bffc17 	ldw	r2,-16(fp)
    37fc:	10800017 	ldw	r2,0(r2)
    3800:	10800204 	addi	r2,r2,8
    3804:	10800037 	ldwio	r2,0(r2)
    3808:	e0bffb15 	stw	r2,-20(fp)
    380c:	e0bffb17 	ldw	r2,-20(fp)
    3810:	1080100c 	andi	r2,r2,64
    3814:	10000f26 	beq	r2,zero,3854 <altera_avalon_uart_write+0x98>
    3818:	e0bffc17 	ldw	r2,-16(fp)
    381c:	10800017 	ldw	r2,0(r2)
    3820:	10800104 	addi	r2,r2,4
    3824:	1009883a 	mov	r4,r2
    3828:	e0bffd17 	ldw	r2,-12(fp)
    382c:	10c00044 	addi	r3,r2,1
    3830:	e0fffd15 	stw	r3,-12(fp)
    3834:	10800003 	ldbu	r2,0(r2)
    3838:	10803fcc 	andi	r2,r2,255
    383c:	1080201c 	xori	r2,r2,128
    3840:	10bfe004 	addi	r2,r2,-128
    3844:	20800035 	stwio	r2,0(r4)
    3848:	e0bff917 	ldw	r2,-28(fp)
    384c:	10bfffc4 	addi	r2,r2,-1
    3850:	e0bff915 	stw	r2,-28(fp)
    3854:	e0bffa17 	ldw	r2,-24(fp)
    3858:	10000226 	beq	r2,zero,3864 <altera_avalon_uart_write+0xa8>
    385c:	e0bff917 	ldw	r2,-28(fp)
    3860:	103fe51e 	bne	r2,zero,37f8 <altera_avalon_uart_write+0x3c>
    3864:	e0bff917 	ldw	r2,-28(fp)
    3868:	10000426 	beq	r2,zero,387c <altera_avalon_uart_write+0xc0>
    386c:	000376c0 	call	376c <alt_get_errno>
    3870:	1007883a 	mov	r3,r2
    3874:	008002c4 	movi	r2,11
    3878:	18800015 	stw	r2,0(r3)
    387c:	e0fffe17 	ldw	r3,-8(fp)
    3880:	e0bff917 	ldw	r2,-28(fp)
    3884:	1885c83a 	sub	r2,r3,r2
    3888:	e037883a 	mov	sp,fp
    388c:	dfc00117 	ldw	ra,4(sp)
    3890:	df000017 	ldw	fp,0(sp)
    3894:	dec00204 	addi	sp,sp,8
    3898:	f800283a 	ret

0000389c <alt_flash_device_register>:
    389c:	defffd04 	addi	sp,sp,-12
    38a0:	dfc00215 	stw	ra,8(sp)
    38a4:	df000115 	stw	fp,4(sp)
    38a8:	df000104 	addi	fp,sp,4
    38ac:	e13fff15 	stw	r4,-4(fp)
    38b0:	e13fff17 	ldw	r4,-4(fp)
    38b4:	01400034 	movhi	r5,0
    38b8:	29586304 	addi	r5,r5,24972
    38bc:	0004ae80 	call	4ae8 <alt_dev_llist_insert>
    38c0:	e037883a 	mov	sp,fp
    38c4:	dfc00117 	ldw	ra,4(sp)
    38c8:	df000017 	ldw	fp,0(sp)
    38cc:	dec00204 	addi	sp,sp,8
    38d0:	f800283a 	ret

000038d4 <alt_onchip_flash_read>:
    38d4:	defff704 	addi	sp,sp,-36
    38d8:	dfc00815 	stw	ra,32(sp)
    38dc:	df000715 	stw	fp,28(sp)
    38e0:	df000704 	addi	fp,sp,28
    38e4:	e13ffc15 	stw	r4,-16(fp)
    38e8:	e17ffd15 	stw	r5,-12(fp)
    38ec:	e1bffe15 	stw	r6,-8(fp)
    38f0:	e1ffff15 	stw	r7,-4(fp)
    38f4:	e03ff915 	stw	zero,-28(fp)
    38f8:	e0bffc17 	ldw	r2,-16(fp)
    38fc:	e0bffa15 	stw	r2,-24(fp)
    3900:	e0bffa17 	ldw	r2,-24(fp)
    3904:	10800b17 	ldw	r2,44(r2)
    3908:	e0fffd17 	ldw	r3,-12(fp)
    390c:	1880060e 	bge	r3,r2,3928 <alt_onchip_flash_read+0x54>
    3910:	e0fffd17 	ldw	r3,-12(fp)
    3914:	e0bfff17 	ldw	r2,-4(fp)
    3918:	1885883a 	add	r2,r3,r2
    391c:	e0fffa17 	ldw	r3,-24(fp)
    3920:	18c00b17 	ldw	r3,44(r3)
    3924:	1880020e 	bge	r3,r2,3930 <alt_onchip_flash_read+0x5c>
    3928:	00bffc84 	movi	r2,-14
    392c:	00001706 	br	398c <alt_onchip_flash_read+0xb8>
    3930:	e0bffa17 	ldw	r2,-24(fp)
    3934:	10c00a17 	ldw	r3,40(r2)
    3938:	e0bffd17 	ldw	r2,-12(fp)
    393c:	1887883a 	add	r3,r3,r2
    3940:	e0bfff17 	ldw	r2,-4(fp)
    3944:	e13ffe17 	ldw	r4,-8(fp)
    3948:	180b883a 	mov	r5,r3
    394c:	100d883a 	mov	r6,r2
    3950:	00055100 	call	5510 <memcpy>
    3954:	e0bffa17 	ldw	r2,-24(fp)
    3958:	10802f17 	ldw	r2,188(r2)
    395c:	10000a26 	beq	r2,zero,3988 <alt_onchip_flash_read+0xb4>
    3960:	e0bffa17 	ldw	r2,-24(fp)
    3964:	10802f17 	ldw	r2,188(r2)
    3968:	10800037 	ldwio	r2,0(r2)
    396c:	1080010c 	andi	r2,r2,4
    3970:	e0bffb15 	stw	r2,-20(fp)
    3974:	e0bffb17 	ldw	r2,-20(fp)
    3978:	10800120 	cmpeqi	r2,r2,4
    397c:	1000021e 	bne	r2,zero,3988 <alt_onchip_flash_read+0xb4>
    3980:	00bffec4 	movi	r2,-5
    3984:	e0bff915 	stw	r2,-28(fp)
    3988:	e0bff917 	ldw	r2,-28(fp)
    398c:	e037883a 	mov	sp,fp
    3990:	dfc00117 	ldw	ra,4(sp)
    3994:	df000017 	ldw	fp,0(sp)
    3998:	dec00204 	addi	sp,sp,8
    399c:	f800283a 	ret

000039a0 <alt_onchip_flash_get_info>:
    39a0:	defffa04 	addi	sp,sp,-24
    39a4:	df000515 	stw	fp,20(sp)
    39a8:	df000504 	addi	fp,sp,20
    39ac:	e13ffd15 	stw	r4,-12(fp)
    39b0:	e17ffe15 	stw	r5,-8(fp)
    39b4:	e1bfff15 	stw	r6,-4(fp)
    39b8:	e03ffb15 	stw	zero,-20(fp)
    39bc:	e0bffd17 	ldw	r2,-12(fp)
    39c0:	e0bffc15 	stw	r2,-16(fp)
    39c4:	e0bfff17 	ldw	r2,-4(fp)
    39c8:	10000426 	beq	r2,zero,39dc <alt_onchip_flash_get_info+0x3c>
    39cc:	e0bffc17 	ldw	r2,-16(fp)
    39d0:	10c00c17 	ldw	r3,48(r2)
    39d4:	e0bfff17 	ldw	r2,-4(fp)
    39d8:	10c00015 	stw	r3,0(r2)
    39dc:	e0bffc17 	ldw	r2,-16(fp)
    39e0:	10800c17 	ldw	r2,48(r2)
    39e4:	1000031e 	bne	r2,zero,39f4 <alt_onchip_flash_get_info+0x54>
    39e8:	00bffd04 	movi	r2,-12
    39ec:	e0bffb15 	stw	r2,-20(fp)
    39f0:	00000d06 	br	3a28 <alt_onchip_flash_get_info+0x88>
    39f4:	e0bffc17 	ldw	r2,-16(fp)
    39f8:	10800c17 	ldw	r2,48(r2)
    39fc:	10800250 	cmplti	r2,r2,9
    3a00:	1000031e 	bne	r2,zero,3a10 <alt_onchip_flash_get_info+0x70>
    3a04:	00bffc84 	movi	r2,-14
    3a08:	e0bffb15 	stw	r2,-20(fp)
    3a0c:	00000606 	br	3a28 <alt_onchip_flash_get_info+0x88>
    3a10:	e0bffe17 	ldw	r2,-8(fp)
    3a14:	10000426 	beq	r2,zero,3a28 <alt_onchip_flash_get_info+0x88>
    3a18:	e0bffc17 	ldw	r2,-16(fp)
    3a1c:	10c00d04 	addi	r3,r2,52
    3a20:	e0bffe17 	ldw	r2,-8(fp)
    3a24:	10c00015 	stw	r3,0(r2)
    3a28:	e0bffb17 	ldw	r2,-20(fp)
    3a2c:	e037883a 	mov	sp,fp
    3a30:	df000017 	ldw	fp,0(sp)
    3a34:	dec00104 	addi	sp,sp,4
    3a38:	f800283a 	ret

00003a3c <alt_onchip_flash_erase_block>:
    3a3c:	defff904 	addi	sp,sp,-28
    3a40:	dfc00615 	stw	ra,24(sp)
    3a44:	df000515 	stw	fp,20(sp)
    3a48:	df000504 	addi	fp,sp,20
    3a4c:	e13ffe15 	stw	r4,-8(fp)
    3a50:	e17fff15 	stw	r5,-4(fp)
    3a54:	e03ffb15 	stw	zero,-20(fp)
    3a58:	e0bffe17 	ldw	r2,-8(fp)
    3a5c:	e0bffc15 	stw	r2,-16(fp)
    3a60:	e0bffc17 	ldw	r2,-16(fp)
    3a64:	10800b17 	ldw	r2,44(r2)
    3a68:	e0ffff17 	ldw	r3,-4(fp)
    3a6c:	18800216 	blt	r3,r2,3a78 <alt_onchip_flash_erase_block+0x3c>
    3a70:	00bffc84 	movi	r2,-14
    3a74:	00004606 	br	3b90 <alt_onchip_flash_erase_block+0x154>
    3a78:	e0bffc17 	ldw	r2,-16(fp)
    3a7c:	10802f17 	ldw	r2,188(r2)
    3a80:	10000326 	beq	r2,zero,3a90 <alt_onchip_flash_erase_block+0x54>
    3a84:	e0bffc17 	ldw	r2,-16(fp)
    3a88:	10802e17 	ldw	r2,184(r2)
    3a8c:	10000226 	beq	r2,zero,3a98 <alt_onchip_flash_erase_block+0x5c>
    3a90:	00bffb44 	movi	r2,-19
    3a94:	00003e06 	br	3b90 <alt_onchip_flash_erase_block+0x154>
    3a98:	e0bffc17 	ldw	r2,-16(fp)
    3a9c:	10803f17 	ldw	r2,252(r2)
    3aa0:	10ffffc4 	addi	r3,r2,-1
    3aa4:	e0bfff17 	ldw	r2,-4(fp)
    3aa8:	1884703a 	and	r2,r3,r2
    3aac:	10000226 	beq	r2,zero,3ab8 <alt_onchip_flash_erase_block+0x7c>
    3ab0:	00bffa84 	movi	r2,-22
    3ab4:	00003606 	br	3b90 <alt_onchip_flash_erase_block+0x154>
    3ab8:	e13ffc17 	ldw	r4,-16(fp)
    3abc:	00046180 	call	4618 <alt_onchip_flash_poll_for_status_to_go_idle>
    3ac0:	e0bffb15 	stw	r2,-20(fp)
    3ac4:	e0bffb17 	ldw	r2,-20(fp)
    3ac8:	10000226 	beq	r2,zero,3ad4 <alt_onchip_flash_erase_block+0x98>
    3acc:	e0bffb17 	ldw	r2,-20(fp)
    3ad0:	00002f06 	br	3b90 <alt_onchip_flash_erase_block+0x154>
    3ad4:	e0bffc17 	ldw	r2,-16(fp)
    3ad8:	10802f17 	ldw	r2,188(r2)
    3adc:	10c00104 	addi	r3,r2,4
    3ae0:	e0bffc17 	ldw	r2,-16(fp)
    3ae4:	10802f17 	ldw	r2,188(r2)
    3ae8:	10800104 	addi	r2,r2,4
    3aec:	10800037 	ldwio	r2,0(r2)
    3af0:	113c002c 	andhi	r4,r2,61440
    3af4:	00802034 	movhi	r2,128
    3af8:	10bfffc4 	addi	r2,r2,-1
    3afc:	2084b03a 	or	r2,r4,r2
    3b00:	18800035 	stwio	r2,0(r3)
    3b04:	e0bfff17 	ldw	r2,-4(fp)
    3b08:	1000010e 	bge	r2,zero,3b10 <alt_onchip_flash_erase_block+0xd4>
    3b0c:	108000c4 	addi	r2,r2,3
    3b10:	1005d0ba 	srai	r2,r2,2
    3b14:	e0bffd15 	stw	r2,-12(fp)
    3b18:	e0bffc17 	ldw	r2,-16(fp)
    3b1c:	10802f17 	ldw	r2,188(r2)
    3b20:	10800104 	addi	r2,r2,4
    3b24:	e0fffc17 	ldw	r3,-16(fp)
    3b28:	18c02f17 	ldw	r3,188(r3)
    3b2c:	18c00104 	addi	r3,r3,4
    3b30:	18c00037 	ldwio	r3,0(r3)
    3b34:	193c002c 	andhi	r4,r3,61440
    3b38:	e0fffd17 	ldw	r3,-12(fp)
    3b3c:	18c01c34 	orhi	r3,r3,112
    3b40:	20c6b03a 	or	r3,r4,r3
    3b44:	10c00035 	stwio	r3,0(r2)
    3b48:	e13ffc17 	ldw	r4,-16(fp)
    3b4c:	00046180 	call	4618 <alt_onchip_flash_poll_for_status_to_go_idle>
    3b50:	e0bffb15 	stw	r2,-20(fp)
    3b54:	e13ffc17 	ldw	r4,-16(fp)
    3b58:	00046a80 	call	46a8 <alt_onchip_flash_poll_for_status_erase_passed>
    3b5c:	e0bffb15 	stw	r2,-20(fp)
    3b60:	e0bffc17 	ldw	r2,-16(fp)
    3b64:	10802f17 	ldw	r2,188(r2)
    3b68:	10c00104 	addi	r3,r2,4
    3b6c:	e0bffc17 	ldw	r2,-16(fp)
    3b70:	10802f17 	ldw	r2,188(r2)
    3b74:	10800104 	addi	r2,r2,4
    3b78:	11000037 	ldwio	r4,0(r2)
    3b7c:	00840034 	movhi	r2,4096
    3b80:	10bfffc4 	addi	r2,r2,-1
    3b84:	2084b03a 	or	r2,r4,r2
    3b88:	18800035 	stwio	r2,0(r3)
    3b8c:	e0bffb17 	ldw	r2,-20(fp)
    3b90:	e037883a 	mov	sp,fp
    3b94:	dfc00117 	ldw	ra,4(sp)
    3b98:	df000017 	ldw	fp,0(sp)
    3b9c:	dec00204 	addi	sp,sp,8
    3ba0:	f800283a 	ret

00003ba4 <alt_onchip_flash_write_block>:
    3ba4:	defff204 	addi	sp,sp,-56
    3ba8:	dfc00d15 	stw	ra,52(sp)
    3bac:	df000c15 	stw	fp,48(sp)
    3bb0:	df000c04 	addi	fp,sp,48
    3bb4:	e13ffc15 	stw	r4,-16(fp)
    3bb8:	e17ffd15 	stw	r5,-12(fp)
    3bbc:	e1bffe15 	stw	r6,-8(fp)
    3bc0:	e1ffff15 	stw	r7,-4(fp)
    3bc4:	e03ff415 	stw	zero,-48(fp)
    3bc8:	e0bffc17 	ldw	r2,-16(fp)
    3bcc:	e0bff815 	stw	r2,-32(fp)
    3bd0:	e03ff515 	stw	zero,-44(fp)
    3bd4:	e0bffe17 	ldw	r2,-8(fp)
    3bd8:	e0bff615 	stw	r2,-40(fp)
    3bdc:	e0bff817 	ldw	r2,-32(fp)
    3be0:	10800b17 	ldw	r2,44(r2)
    3be4:	e0fffd17 	ldw	r3,-12(fp)
    3be8:	18800a0e 	bge	r3,r2,3c14 <alt_onchip_flash_write_block+0x70>
    3bec:	e0bff817 	ldw	r2,-32(fp)
    3bf0:	10800b17 	ldw	r2,44(r2)
    3bf4:	e0fffe17 	ldw	r3,-8(fp)
    3bf8:	1880060e 	bge	r3,r2,3c14 <alt_onchip_flash_write_block+0x70>
    3bfc:	e0bff817 	ldw	r2,-32(fp)
    3c00:	10c00b17 	ldw	r3,44(r2)
    3c04:	e0bffe17 	ldw	r2,-8(fp)
    3c08:	1887c83a 	sub	r3,r3,r2
    3c0c:	e0800217 	ldw	r2,8(fp)
    3c10:	1880020e 	bge	r3,r2,3c1c <alt_onchip_flash_write_block+0x78>
    3c14:	00bffc84 	movi	r2,-14
    3c18:	00008e06 	br	3e54 <alt_onchip_flash_write_block+0x2b0>
    3c1c:	e0bff817 	ldw	r2,-32(fp)
    3c20:	10802f17 	ldw	r2,188(r2)
    3c24:	10000326 	beq	r2,zero,3c34 <alt_onchip_flash_write_block+0x90>
    3c28:	e0bff817 	ldw	r2,-32(fp)
    3c2c:	10802e17 	ldw	r2,184(r2)
    3c30:	10000226 	beq	r2,zero,3c3c <alt_onchip_flash_write_block+0x98>
    3c34:	00bffb44 	movi	r2,-19
    3c38:	00008606 	br	3e54 <alt_onchip_flash_write_block+0x2b0>
    3c3c:	e13ff817 	ldw	r4,-32(fp)
    3c40:	00046180 	call	4618 <alt_onchip_flash_poll_for_status_to_go_idle>
    3c44:	e0bff415 	stw	r2,-48(fp)
    3c48:	e0bff417 	ldw	r2,-48(fp)
    3c4c:	10000226 	beq	r2,zero,3c58 <alt_onchip_flash_write_block+0xb4>
    3c50:	e0bff417 	ldw	r2,-48(fp)
    3c54:	00007f06 	br	3e54 <alt_onchip_flash_write_block+0x2b0>
    3c58:	e0bff817 	ldw	r2,-32(fp)
    3c5c:	10802f17 	ldw	r2,188(r2)
    3c60:	10c00104 	addi	r3,r2,4
    3c64:	e0bff817 	ldw	r2,-32(fp)
    3c68:	10802f17 	ldw	r2,188(r2)
    3c6c:	10800104 	addi	r2,r2,4
    3c70:	10800037 	ldwio	r2,0(r2)
    3c74:	113c002c 	andhi	r4,r2,61440
    3c78:	00802034 	movhi	r2,128
    3c7c:	10bfffc4 	addi	r2,r2,-1
    3c80:	2084b03a 	or	r2,r4,r2
    3c84:	18800035 	stwio	r2,0(r3)
    3c88:	00006406 	br	3e1c <alt_onchip_flash_write_block+0x278>
    3c8c:	00bfffc4 	movi	r2,-1
    3c90:	e0bffb15 	stw	r2,-20(fp)
    3c94:	e0bff617 	ldw	r2,-40(fp)
    3c98:	108000cc 	andi	r2,r2,3
    3c9c:	10001d1e 	bne	r2,zero,3d14 <alt_onchip_flash_write_block+0x170>
    3ca0:	e0bff617 	ldw	r2,-40(fp)
    3ca4:	10c00104 	addi	r3,r2,4
    3ca8:	00bfff04 	movi	r2,-4
    3cac:	1884703a 	and	r2,r3,r2
    3cb0:	e0bff715 	stw	r2,-36(fp)
    3cb4:	e0fff717 	ldw	r3,-36(fp)
    3cb8:	e0bff617 	ldw	r2,-40(fp)
    3cbc:	1885c83a 	sub	r2,r3,r2
    3cc0:	e0c00217 	ldw	r3,8(fp)
    3cc4:	1880010e 	bge	r3,r2,3ccc <alt_onchip_flash_write_block+0x128>
    3cc8:	1805883a 	mov	r2,r3
    3ccc:	e0bff915 	stw	r2,-28(fp)
    3cd0:	e0bff517 	ldw	r2,-44(fp)
    3cd4:	e0ffff17 	ldw	r3,-4(fp)
    3cd8:	1887883a 	add	r3,r3,r2
    3cdc:	e0bff917 	ldw	r2,-28(fp)
    3ce0:	e13ffb04 	addi	r4,fp,-20
    3ce4:	180b883a 	mov	r5,r3
    3ce8:	100d883a 	mov	r6,r2
    3cec:	00055100 	call	5510 <memcpy>
    3cf0:	e0fff517 	ldw	r3,-44(fp)
    3cf4:	e0bff917 	ldw	r2,-28(fp)
    3cf8:	1885883a 	add	r2,r3,r2
    3cfc:	e0bff515 	stw	r2,-44(fp)
    3d00:	e0c00217 	ldw	r3,8(fp)
    3d04:	e0bff917 	ldw	r2,-28(fp)
    3d08:	1885c83a 	sub	r2,r3,r2
    3d0c:	e0800215 	stw	r2,8(fp)
    3d10:	00002e06 	br	3dcc <alt_onchip_flash_write_block+0x228>
    3d14:	e0bff617 	ldw	r2,-40(fp)
    3d18:	108000cc 	andi	r2,r2,3
    3d1c:	e0bffa15 	stw	r2,-24(fp)
    3d20:	e0fff617 	ldw	r3,-40(fp)
    3d24:	e0bffa17 	ldw	r2,-24(fp)
    3d28:	1885c83a 	sub	r2,r3,r2
    3d2c:	e0bff615 	stw	r2,-40(fp)
    3d30:	e0bff617 	ldw	r2,-40(fp)
    3d34:	10c00104 	addi	r3,r2,4
    3d38:	00bfff04 	movi	r2,-4
    3d3c:	1884703a 	and	r2,r3,r2
    3d40:	e0bff715 	stw	r2,-36(fp)
    3d44:	e0fff717 	ldw	r3,-36(fp)
    3d48:	e0bff617 	ldw	r2,-40(fp)
    3d4c:	1889c83a 	sub	r4,r3,r2
    3d50:	e0c00217 	ldw	r3,8(fp)
    3d54:	e0bffa17 	ldw	r2,-24(fp)
    3d58:	1887883a 	add	r3,r3,r2
    3d5c:	2005883a 	mov	r2,r4
    3d60:	1880010e 	bge	r3,r2,3d68 <alt_onchip_flash_write_block+0x1c4>
    3d64:	1805883a 	mov	r2,r3
    3d68:	e0bff915 	stw	r2,-28(fp)
    3d6c:	e0fffb04 	addi	r3,fp,-20
    3d70:	e0bffa17 	ldw	r2,-24(fp)
    3d74:	1885883a 	add	r2,r3,r2
    3d78:	1009883a 	mov	r4,r2
    3d7c:	e0bff517 	ldw	r2,-44(fp)
    3d80:	e0ffff17 	ldw	r3,-4(fp)
    3d84:	188b883a 	add	r5,r3,r2
    3d88:	e0fff917 	ldw	r3,-28(fp)
    3d8c:	e0bffa17 	ldw	r2,-24(fp)
    3d90:	1885c83a 	sub	r2,r3,r2
    3d94:	100d883a 	mov	r6,r2
    3d98:	00055100 	call	5510 <memcpy>
    3d9c:	e0fff917 	ldw	r3,-28(fp)
    3da0:	e0bffa17 	ldw	r2,-24(fp)
    3da4:	1885c83a 	sub	r2,r3,r2
    3da8:	e0fff517 	ldw	r3,-44(fp)
    3dac:	1885883a 	add	r2,r3,r2
    3db0:	e0bff515 	stw	r2,-44(fp)
    3db4:	e0fffa17 	ldw	r3,-24(fp)
    3db8:	e0bff917 	ldw	r2,-28(fp)
    3dbc:	1885c83a 	sub	r2,r3,r2
    3dc0:	e0c00217 	ldw	r3,8(fp)
    3dc4:	1885883a 	add	r2,r3,r2
    3dc8:	e0800215 	stw	r2,8(fp)
    3dcc:	e0bff817 	ldw	r2,-32(fp)
    3dd0:	10c00a17 	ldw	r3,40(r2)
    3dd4:	e0bff617 	ldw	r2,-40(fp)
    3dd8:	1885883a 	add	r2,r3,r2
    3ddc:	e0fffb17 	ldw	r3,-20(fp)
    3de0:	10c00035 	stwio	r3,0(r2)
    3de4:	e13ff817 	ldw	r4,-32(fp)
    3de8:	00046180 	call	4618 <alt_onchip_flash_poll_for_status_to_go_idle>
    3dec:	e0bff415 	stw	r2,-48(fp)
    3df0:	e0bff417 	ldw	r2,-48(fp)
    3df4:	10000126 	beq	r2,zero,3dfc <alt_onchip_flash_write_block+0x258>
    3df8:	00000a06 	br	3e24 <alt_onchip_flash_write_block+0x280>
    3dfc:	e13ff817 	ldw	r4,-32(fp)
    3e00:	00047380 	call	4738 <alt_onchip_flash_poll_for_status_write_passed>
    3e04:	e0bff415 	stw	r2,-48(fp)
    3e08:	e0bff417 	ldw	r2,-48(fp)
    3e0c:	10000126 	beq	r2,zero,3e14 <alt_onchip_flash_write_block+0x270>
    3e10:	00000406 	br	3e24 <alt_onchip_flash_write_block+0x280>
    3e14:	e0bff717 	ldw	r2,-36(fp)
    3e18:	e0bff615 	stw	r2,-40(fp)
    3e1c:	e0800217 	ldw	r2,8(fp)
    3e20:	103f9a1e 	bne	r2,zero,3c8c <alt_onchip_flash_write_block+0xe8>
    3e24:	e0bff817 	ldw	r2,-32(fp)
    3e28:	10802f17 	ldw	r2,188(r2)
    3e2c:	10c00104 	addi	r3,r2,4
    3e30:	e0bff817 	ldw	r2,-32(fp)
    3e34:	10802f17 	ldw	r2,188(r2)
    3e38:	10800104 	addi	r2,r2,4
    3e3c:	11000037 	ldwio	r4,0(r2)
    3e40:	00840034 	movhi	r2,4096
    3e44:	10bfffc4 	addi	r2,r2,-1
    3e48:	2084b03a 	or	r2,r4,r2
    3e4c:	18800035 	stwio	r2,0(r3)
    3e50:	e0bff417 	ldw	r2,-48(fp)
    3e54:	e037883a 	mov	sp,fp
    3e58:	dfc00117 	ldw	ra,4(sp)
    3e5c:	df000017 	ldw	fp,0(sp)
    3e60:	dec00204 	addi	sp,sp,8
    3e64:	f800283a 	ret

00003e68 <alt_onchip_flash_write>:
    3e68:	defff104 	addi	sp,sp,-60
    3e6c:	dfc00e15 	stw	ra,56(sp)
    3e70:	df000d15 	stw	fp,52(sp)
    3e74:	df000d04 	addi	fp,sp,52
    3e78:	e13ffc15 	stw	r4,-16(fp)
    3e7c:	e17ffd15 	stw	r5,-12(fp)
    3e80:	e1bffe15 	stw	r6,-8(fp)
    3e84:	e1ffff15 	stw	r7,-4(fp)
    3e88:	e03ff415 	stw	zero,-48(fp)
    3e8c:	e0bfff17 	ldw	r2,-4(fp)
    3e90:	e0bff815 	stw	r2,-32(fp)
    3e94:	e0bffd17 	ldw	r2,-12(fp)
    3e98:	e0bff915 	stw	r2,-28(fp)
    3e9c:	e0bffc17 	ldw	r2,-16(fp)
    3ea0:	e0bffa15 	stw	r2,-24(fp)
    3ea4:	e0bffa17 	ldw	r2,-24(fp)
    3ea8:	10800b17 	ldw	r2,44(r2)
    3eac:	e0fffd17 	ldw	r3,-12(fp)
    3eb0:	1880060e 	bge	r3,r2,3ecc <alt_onchip_flash_write+0x64>
    3eb4:	e0bffa17 	ldw	r2,-24(fp)
    3eb8:	10c00b17 	ldw	r3,44(r2)
    3ebc:	e0bffd17 	ldw	r2,-12(fp)
    3ec0:	1887c83a 	sub	r3,r3,r2
    3ec4:	e0bfff17 	ldw	r2,-4(fp)
    3ec8:	1880020e 	bge	r3,r2,3ed4 <alt_onchip_flash_write+0x6c>
    3ecc:	00bffc84 	movi	r2,-14
    3ed0:	00009606 	br	412c <alt_onchip_flash_write+0x2c4>
    3ed4:	e03ff515 	stw	zero,-44(fp)
    3ed8:	00008706 	br	40f8 <alt_onchip_flash_write+0x290>
    3edc:	e0fffa17 	ldw	r3,-24(fp)
    3ee0:	e0bff517 	ldw	r2,-44(fp)
    3ee4:	1004913a 	slli	r2,r2,4
    3ee8:	10800d04 	addi	r2,r2,52
    3eec:	1885883a 	add	r2,r3,r2
    3ef0:	10800017 	ldw	r2,0(r2)
    3ef4:	e0fffd17 	ldw	r3,-12(fp)
    3ef8:	18807c16 	blt	r3,r2,40ec <alt_onchip_flash_write+0x284>
    3efc:	e0fffa17 	ldw	r3,-24(fp)
    3f00:	e0bff517 	ldw	r2,-44(fp)
    3f04:	1004913a 	slli	r2,r2,4
    3f08:	10800d04 	addi	r2,r2,52
    3f0c:	1885883a 	add	r2,r3,r2
    3f10:	10c00017 	ldw	r3,0(r2)
    3f14:	e13ffa17 	ldw	r4,-24(fp)
    3f18:	e0bff517 	ldw	r2,-44(fp)
    3f1c:	1004913a 	slli	r2,r2,4
    3f20:	10800e04 	addi	r2,r2,56
    3f24:	2085883a 	add	r2,r4,r2
    3f28:	10800017 	ldw	r2,0(r2)
    3f2c:	1885883a 	add	r2,r3,r2
    3f30:	e0fffd17 	ldw	r3,-12(fp)
    3f34:	18806d0e 	bge	r3,r2,40ec <alt_onchip_flash_write+0x284>
    3f38:	e0fffa17 	ldw	r3,-24(fp)
    3f3c:	e0bff517 	ldw	r2,-44(fp)
    3f40:	1004913a 	slli	r2,r2,4
    3f44:	10800d04 	addi	r2,r2,52
    3f48:	1885883a 	add	r2,r3,r2
    3f4c:	10800017 	ldw	r2,0(r2)
    3f50:	e0bff715 	stw	r2,-36(fp)
    3f54:	e03ff615 	stw	zero,-40(fp)
    3f58:	00005c06 	br	40cc <alt_onchip_flash_write+0x264>
    3f5c:	e0fffd17 	ldw	r3,-12(fp)
    3f60:	e0bff717 	ldw	r2,-36(fp)
    3f64:	18804d16 	blt	r3,r2,409c <alt_onchip_flash_write+0x234>
    3f68:	e0fffa17 	ldw	r3,-24(fp)
    3f6c:	e0bff517 	ldw	r2,-44(fp)
    3f70:	10800104 	addi	r2,r2,4
    3f74:	1004913a 	slli	r2,r2,4
    3f78:	1885883a 	add	r2,r3,r2
    3f7c:	10c00017 	ldw	r3,0(r2)
    3f80:	e0bff717 	ldw	r2,-36(fp)
    3f84:	1885883a 	add	r2,r3,r2
    3f88:	e0fffd17 	ldw	r3,-12(fp)
    3f8c:	1880430e 	bge	r3,r2,409c <alt_onchip_flash_write+0x234>
    3f90:	e0fffa17 	ldw	r3,-24(fp)
    3f94:	e0bff517 	ldw	r2,-44(fp)
    3f98:	10800104 	addi	r2,r2,4
    3f9c:	1004913a 	slli	r2,r2,4
    3fa0:	1885883a 	add	r2,r3,r2
    3fa4:	10c00017 	ldw	r3,0(r2)
    3fa8:	e0bff717 	ldw	r2,-36(fp)
    3fac:	1887883a 	add	r3,r3,r2
    3fb0:	e0bffd17 	ldw	r2,-12(fp)
    3fb4:	1885c83a 	sub	r2,r3,r2
    3fb8:	e0bffb15 	stw	r2,-20(fp)
    3fbc:	e0fffb17 	ldw	r3,-20(fp)
    3fc0:	e0bfff17 	ldw	r2,-4(fp)
    3fc4:	1880010e 	bge	r3,r2,3fcc <alt_onchip_flash_write+0x164>
    3fc8:	1805883a 	mov	r2,r3
    3fcc:	e0bffb15 	stw	r2,-20(fp)
    3fd0:	e0bffa17 	ldw	r2,-24(fp)
    3fd4:	10c00a17 	ldw	r3,40(r2)
    3fd8:	e0bffd17 	ldw	r2,-12(fp)
    3fdc:	1887883a 	add	r3,r3,r2
    3fe0:	e0bffb17 	ldw	r2,-20(fp)
    3fe4:	e13ffe17 	ldw	r4,-8(fp)
    3fe8:	180b883a 	mov	r5,r3
    3fec:	100d883a 	mov	r6,r2
    3ff0:	00054e00 	call	54e0 <memcmp>
    3ff4:	10001326 	beq	r2,zero,4044 <alt_onchip_flash_write+0x1dc>
    3ff8:	e0bffa17 	ldw	r2,-24(fp)
    3ffc:	10800817 	ldw	r2,32(r2)
    4000:	e0fffa17 	ldw	r3,-24(fp)
    4004:	1809883a 	mov	r4,r3
    4008:	e17ff717 	ldw	r5,-36(fp)
    400c:	103ee83a 	callr	r2
    4010:	e0bff415 	stw	r2,-48(fp)
    4014:	e0bff417 	ldw	r2,-48(fp)
    4018:	10000a1e 	bne	r2,zero,4044 <alt_onchip_flash_write+0x1dc>
    401c:	e0bffa17 	ldw	r2,-24(fp)
    4020:	10800917 	ldw	r2,36(r2)
    4024:	e13ffa17 	ldw	r4,-24(fp)
    4028:	e0fffb17 	ldw	r3,-20(fp)
    402c:	d8c00015 	stw	r3,0(sp)
    4030:	e17ff717 	ldw	r5,-36(fp)
    4034:	e1bffd17 	ldw	r6,-12(fp)
    4038:	e1fffe17 	ldw	r7,-8(fp)
    403c:	103ee83a 	callr	r2
    4040:	e0bff415 	stw	r2,-48(fp)
    4044:	e0ffff17 	ldw	r3,-4(fp)
    4048:	e0bffb17 	ldw	r2,-20(fp)
    404c:	18802e26 	beq	r3,r2,4108 <alt_onchip_flash_write+0x2a0>
    4050:	e0bff417 	ldw	r2,-48(fp)
    4054:	10002c1e 	bne	r2,zero,4108 <alt_onchip_flash_write+0x2a0>
    4058:	e0ffff17 	ldw	r3,-4(fp)
    405c:	e0bffb17 	ldw	r2,-20(fp)
    4060:	1885c83a 	sub	r2,r3,r2
    4064:	e0bfff15 	stw	r2,-4(fp)
    4068:	e0fffa17 	ldw	r3,-24(fp)
    406c:	e0bff517 	ldw	r2,-44(fp)
    4070:	10800104 	addi	r2,r2,4
    4074:	1004913a 	slli	r2,r2,4
    4078:	1885883a 	add	r2,r3,r2
    407c:	10c00017 	ldw	r3,0(r2)
    4080:	e0bff717 	ldw	r2,-36(fp)
    4084:	1885883a 	add	r2,r3,r2
    4088:	e0bffd15 	stw	r2,-12(fp)
    408c:	e0bffb17 	ldw	r2,-20(fp)
    4090:	e0fffe17 	ldw	r3,-8(fp)
    4094:	1885883a 	add	r2,r3,r2
    4098:	e0bffe15 	stw	r2,-8(fp)
    409c:	e0fffa17 	ldw	r3,-24(fp)
    40a0:	e0bff517 	ldw	r2,-44(fp)
    40a4:	10800104 	addi	r2,r2,4
    40a8:	1004913a 	slli	r2,r2,4
    40ac:	1885883a 	add	r2,r3,r2
    40b0:	10800017 	ldw	r2,0(r2)
    40b4:	e0fff717 	ldw	r3,-36(fp)
    40b8:	1885883a 	add	r2,r3,r2
    40bc:	e0bff715 	stw	r2,-36(fp)
    40c0:	e0bff617 	ldw	r2,-40(fp)
    40c4:	10800044 	addi	r2,r2,1
    40c8:	e0bff615 	stw	r2,-40(fp)
    40cc:	e0fffa17 	ldw	r3,-24(fp)
    40d0:	e0bff517 	ldw	r2,-44(fp)
    40d4:	1004913a 	slli	r2,r2,4
    40d8:	10800f04 	addi	r2,r2,60
    40dc:	1885883a 	add	r2,r3,r2
    40e0:	10800017 	ldw	r2,0(r2)
    40e4:	e0fff617 	ldw	r3,-40(fp)
    40e8:	18bf9c16 	blt	r3,r2,3f5c <alt_onchip_flash_write+0xf4>
    40ec:	e0bff517 	ldw	r2,-44(fp)
    40f0:	10800044 	addi	r2,r2,1
    40f4:	e0bff515 	stw	r2,-44(fp)
    40f8:	e0bffa17 	ldw	r2,-24(fp)
    40fc:	10800c17 	ldw	r2,48(r2)
    4100:	e0fff517 	ldw	r3,-44(fp)
    4104:	18bf7516 	blt	r3,r2,3edc <alt_onchip_flash_write+0x74>
    4108:	e0bffa17 	ldw	r2,-24(fp)
    410c:	10c00a17 	ldw	r3,40(r2)
    4110:	e0bff917 	ldw	r2,-28(fp)
    4114:	1887883a 	add	r3,r3,r2
    4118:	e0bff817 	ldw	r2,-32(fp)
    411c:	1809883a 	mov	r4,r3
    4120:	100b883a 	mov	r5,r2
    4124:	0004a480 	call	4a48 <alt_dcache_flush>
    4128:	e0bff417 	ldw	r2,-48(fp)
    412c:	e037883a 	mov	sp,fp
    4130:	dfc00117 	ldw	ra,4(sp)
    4134:	df000017 	ldw	fp,0(sp)
    4138:	dec00204 	addi	sp,sp,8
    413c:	f800283a 	ret

00004140 <altera_onchip_flash_init>:
    4140:	defff504 	addi	sp,sp,-44
    4144:	dfc00a15 	stw	ra,40(sp)
    4148:	df000915 	stw	fp,36(sp)
    414c:	dc000815 	stw	r16,32(sp)
    4150:	df000904 	addi	fp,sp,36
    4154:	e13ffe15 	stw	r4,-8(fp)
    4158:	e03ff815 	stw	zero,-32(fp)
    415c:	e03ff915 	stw	zero,-28(fp)
    4160:	e03ffa15 	stw	zero,-24(fp)
    4164:	e03ffb15 	stw	zero,-20(fp)
    4168:	e03ffc15 	stw	zero,-16(fp)
    416c:	e03ff715 	stw	zero,-36(fp)
    4170:	e0bffe17 	ldw	r2,-8(fp)
    4174:	10800d04 	addi	r2,r2,52
    4178:	e0bffd15 	stw	r2,-12(fp)
    417c:	e0bffe17 	ldw	r2,-8(fp)
    4180:	10802f17 	ldw	r2,188(r2)
    4184:	10001926 	beq	r2,zero,41ec <altera_onchip_flash_init+0xac>
    4188:	e0bffe17 	ldw	r2,-8(fp)
    418c:	10802f17 	ldw	r2,188(r2)
    4190:	10800037 	ldwio	r2,0(r2)
    4194:	1080080c 	andi	r2,r2,32
    4198:	e0bff815 	stw	r2,-32(fp)
    419c:	e0bffe17 	ldw	r2,-8(fp)
    41a0:	10802f17 	ldw	r2,188(r2)
    41a4:	10800037 	ldwio	r2,0(r2)
    41a8:	1080100c 	andi	r2,r2,64
    41ac:	e0bff915 	stw	r2,-28(fp)
    41b0:	e0bffe17 	ldw	r2,-8(fp)
    41b4:	10802f17 	ldw	r2,188(r2)
    41b8:	10800037 	ldwio	r2,0(r2)
    41bc:	1080200c 	andi	r2,r2,128
    41c0:	e0bffa15 	stw	r2,-24(fp)
    41c4:	e0bffe17 	ldw	r2,-8(fp)
    41c8:	10802f17 	ldw	r2,188(r2)
    41cc:	10800037 	ldwio	r2,0(r2)
    41d0:	1080400c 	andi	r2,r2,256
    41d4:	e0bffb15 	stw	r2,-20(fp)
    41d8:	e0bffe17 	ldw	r2,-8(fp)
    41dc:	10802f17 	ldw	r2,188(r2)
    41e0:	10800037 	ldwio	r2,0(r2)
    41e4:	1080800c 	andi	r2,r2,512
    41e8:	e0bffc15 	stw	r2,-16(fp)
    41ec:	e0bffe17 	ldw	r2,-8(fp)
    41f0:	10803017 	ldw	r2,192(r2)
    41f4:	10800058 	cmpnei	r2,r2,1
    41f8:	10002f1e 	bne	r2,zero,42b8 <altera_onchip_flash_init+0x178>
    41fc:	e0bff817 	ldw	r2,-32(fp)
    4200:	10800820 	cmpeqi	r2,r2,32
    4204:	10002c1e 	bne	r2,zero,42b8 <altera_onchip_flash_init+0x178>
    4208:	e0bff717 	ldw	r2,-36(fp)
    420c:	1004913a 	slli	r2,r2,4
    4210:	e0fffd17 	ldw	r3,-12(fp)
    4214:	1885883a 	add	r2,r3,r2
    4218:	e0fffe17 	ldw	r3,-8(fp)
    421c:	18c03117 	ldw	r3,196(r3)
    4220:	10c00015 	stw	r3,0(r2)
    4224:	e0bff717 	ldw	r2,-36(fp)
    4228:	1004913a 	slli	r2,r2,4
    422c:	e0fffd17 	ldw	r3,-12(fp)
    4230:	1885883a 	add	r2,r3,r2
    4234:	e0fffe17 	ldw	r3,-8(fp)
    4238:	19003217 	ldw	r4,200(r3)
    423c:	e0fffe17 	ldw	r3,-8(fp)
    4240:	18c03117 	ldw	r3,196(r3)
    4244:	20c7c83a 	sub	r3,r4,r3
    4248:	18c00044 	addi	r3,r3,1
    424c:	10c00115 	stw	r3,4(r2)
    4250:	e0bff717 	ldw	r2,-36(fp)
    4254:	1004913a 	slli	r2,r2,4
    4258:	e0fffd17 	ldw	r3,-12(fp)
    425c:	18a1883a 	add	r16,r3,r2
    4260:	e0fffe17 	ldw	r3,-8(fp)
    4264:	e0bff717 	ldw	r2,-36(fp)
    4268:	1004913a 	slli	r2,r2,4
    426c:	10800e04 	addi	r2,r2,56
    4270:	1885883a 	add	r2,r3,r2
    4274:	10c00017 	ldw	r3,0(r2)
    4278:	e0bffe17 	ldw	r2,-8(fp)
    427c:	10803f17 	ldw	r2,252(r2)
    4280:	1809883a 	mov	r4,r3
    4284:	100b883a 	mov	r5,r2
    4288:	0001ac00 	call	1ac0 <__divsi3>
    428c:	80800215 	stw	r2,8(r16)
    4290:	e0bff717 	ldw	r2,-36(fp)
    4294:	1004913a 	slli	r2,r2,4
    4298:	e0fffd17 	ldw	r3,-12(fp)
    429c:	1885883a 	add	r2,r3,r2
    42a0:	e0fffe17 	ldw	r3,-8(fp)
    42a4:	18c03f17 	ldw	r3,252(r3)
    42a8:	10c00315 	stw	r3,12(r2)
    42ac:	e0bff717 	ldw	r2,-36(fp)
    42b0:	10800044 	addi	r2,r2,1
    42b4:	e0bff715 	stw	r2,-36(fp)
    42b8:	e0bffe17 	ldw	r2,-8(fp)
    42bc:	10803317 	ldw	r2,204(r2)
    42c0:	10800058 	cmpnei	r2,r2,1
    42c4:	10002f1e 	bne	r2,zero,4384 <altera_onchip_flash_init+0x244>
    42c8:	e0bff917 	ldw	r2,-28(fp)
    42cc:	10801020 	cmpeqi	r2,r2,64
    42d0:	10002c1e 	bne	r2,zero,4384 <altera_onchip_flash_init+0x244>
    42d4:	e0bff717 	ldw	r2,-36(fp)
    42d8:	1004913a 	slli	r2,r2,4
    42dc:	e0fffd17 	ldw	r3,-12(fp)
    42e0:	1885883a 	add	r2,r3,r2
    42e4:	e0fffe17 	ldw	r3,-8(fp)
    42e8:	18c03417 	ldw	r3,208(r3)
    42ec:	10c00015 	stw	r3,0(r2)
    42f0:	e0bff717 	ldw	r2,-36(fp)
    42f4:	1004913a 	slli	r2,r2,4
    42f8:	e0fffd17 	ldw	r3,-12(fp)
    42fc:	1885883a 	add	r2,r3,r2
    4300:	e0fffe17 	ldw	r3,-8(fp)
    4304:	19003517 	ldw	r4,212(r3)
    4308:	e0fffe17 	ldw	r3,-8(fp)
    430c:	18c03417 	ldw	r3,208(r3)
    4310:	20c7c83a 	sub	r3,r4,r3
    4314:	18c00044 	addi	r3,r3,1
    4318:	10c00115 	stw	r3,4(r2)
    431c:	e0bff717 	ldw	r2,-36(fp)
    4320:	1004913a 	slli	r2,r2,4
    4324:	e0fffd17 	ldw	r3,-12(fp)
    4328:	18a1883a 	add	r16,r3,r2
    432c:	e0fffe17 	ldw	r3,-8(fp)
    4330:	e0bff717 	ldw	r2,-36(fp)
    4334:	1004913a 	slli	r2,r2,4
    4338:	10800e04 	addi	r2,r2,56
    433c:	1885883a 	add	r2,r3,r2
    4340:	10c00017 	ldw	r3,0(r2)
    4344:	e0bffe17 	ldw	r2,-8(fp)
    4348:	10803f17 	ldw	r2,252(r2)
    434c:	1809883a 	mov	r4,r3
    4350:	100b883a 	mov	r5,r2
    4354:	0001ac00 	call	1ac0 <__divsi3>
    4358:	80800215 	stw	r2,8(r16)
    435c:	e0bff717 	ldw	r2,-36(fp)
    4360:	1004913a 	slli	r2,r2,4
    4364:	e0fffd17 	ldw	r3,-12(fp)
    4368:	1885883a 	add	r2,r3,r2
    436c:	e0fffe17 	ldw	r3,-8(fp)
    4370:	18c03f17 	ldw	r3,252(r3)
    4374:	10c00315 	stw	r3,12(r2)
    4378:	e0bff717 	ldw	r2,-36(fp)
    437c:	10800044 	addi	r2,r2,1
    4380:	e0bff715 	stw	r2,-36(fp)
    4384:	e0bffe17 	ldw	r2,-8(fp)
    4388:	10803617 	ldw	r2,216(r2)
    438c:	10800058 	cmpnei	r2,r2,1
    4390:	10002f1e 	bne	r2,zero,4450 <altera_onchip_flash_init+0x310>
    4394:	e0bffa17 	ldw	r2,-24(fp)
    4398:	10802020 	cmpeqi	r2,r2,128
    439c:	10002c1e 	bne	r2,zero,4450 <altera_onchip_flash_init+0x310>
    43a0:	e0bff717 	ldw	r2,-36(fp)
    43a4:	1004913a 	slli	r2,r2,4
    43a8:	e0fffd17 	ldw	r3,-12(fp)
    43ac:	1885883a 	add	r2,r3,r2
    43b0:	e0fffe17 	ldw	r3,-8(fp)
    43b4:	18c03717 	ldw	r3,220(r3)
    43b8:	10c00015 	stw	r3,0(r2)
    43bc:	e0bff717 	ldw	r2,-36(fp)
    43c0:	1004913a 	slli	r2,r2,4
    43c4:	e0fffd17 	ldw	r3,-12(fp)
    43c8:	1885883a 	add	r2,r3,r2
    43cc:	e0fffe17 	ldw	r3,-8(fp)
    43d0:	19003817 	ldw	r4,224(r3)
    43d4:	e0fffe17 	ldw	r3,-8(fp)
    43d8:	18c03717 	ldw	r3,220(r3)
    43dc:	20c7c83a 	sub	r3,r4,r3
    43e0:	18c00044 	addi	r3,r3,1
    43e4:	10c00115 	stw	r3,4(r2)
    43e8:	e0bff717 	ldw	r2,-36(fp)
    43ec:	1004913a 	slli	r2,r2,4
    43f0:	e0fffd17 	ldw	r3,-12(fp)
    43f4:	18a1883a 	add	r16,r3,r2
    43f8:	e0fffe17 	ldw	r3,-8(fp)
    43fc:	e0bff717 	ldw	r2,-36(fp)
    4400:	1004913a 	slli	r2,r2,4
    4404:	10800e04 	addi	r2,r2,56
    4408:	1885883a 	add	r2,r3,r2
    440c:	10c00017 	ldw	r3,0(r2)
    4410:	e0bffe17 	ldw	r2,-8(fp)
    4414:	10803f17 	ldw	r2,252(r2)
    4418:	1809883a 	mov	r4,r3
    441c:	100b883a 	mov	r5,r2
    4420:	0001ac00 	call	1ac0 <__divsi3>
    4424:	80800215 	stw	r2,8(r16)
    4428:	e0bff717 	ldw	r2,-36(fp)
    442c:	1004913a 	slli	r2,r2,4
    4430:	e0fffd17 	ldw	r3,-12(fp)
    4434:	1885883a 	add	r2,r3,r2
    4438:	e0fffe17 	ldw	r3,-8(fp)
    443c:	18c03f17 	ldw	r3,252(r3)
    4440:	10c00315 	stw	r3,12(r2)
    4444:	e0bff717 	ldw	r2,-36(fp)
    4448:	10800044 	addi	r2,r2,1
    444c:	e0bff715 	stw	r2,-36(fp)
    4450:	e0bffe17 	ldw	r2,-8(fp)
    4454:	10803917 	ldw	r2,228(r2)
    4458:	10800058 	cmpnei	r2,r2,1
    445c:	10002f1e 	bne	r2,zero,451c <altera_onchip_flash_init+0x3dc>
    4460:	e0bffb17 	ldw	r2,-20(fp)
    4464:	10804020 	cmpeqi	r2,r2,256
    4468:	10002c1e 	bne	r2,zero,451c <altera_onchip_flash_init+0x3dc>
    446c:	e0bff717 	ldw	r2,-36(fp)
    4470:	1004913a 	slli	r2,r2,4
    4474:	e0fffd17 	ldw	r3,-12(fp)
    4478:	1885883a 	add	r2,r3,r2
    447c:	e0fffe17 	ldw	r3,-8(fp)
    4480:	18c03a17 	ldw	r3,232(r3)
    4484:	10c00015 	stw	r3,0(r2)
    4488:	e0bff717 	ldw	r2,-36(fp)
    448c:	1004913a 	slli	r2,r2,4
    4490:	e0fffd17 	ldw	r3,-12(fp)
    4494:	1885883a 	add	r2,r3,r2
    4498:	e0fffe17 	ldw	r3,-8(fp)
    449c:	19003b17 	ldw	r4,236(r3)
    44a0:	e0fffe17 	ldw	r3,-8(fp)
    44a4:	18c03a17 	ldw	r3,232(r3)
    44a8:	20c7c83a 	sub	r3,r4,r3
    44ac:	18c00044 	addi	r3,r3,1
    44b0:	10c00115 	stw	r3,4(r2)
    44b4:	e0bff717 	ldw	r2,-36(fp)
    44b8:	1004913a 	slli	r2,r2,4
    44bc:	e0fffd17 	ldw	r3,-12(fp)
    44c0:	18a1883a 	add	r16,r3,r2
    44c4:	e0fffe17 	ldw	r3,-8(fp)
    44c8:	e0bff717 	ldw	r2,-36(fp)
    44cc:	1004913a 	slli	r2,r2,4
    44d0:	10800e04 	addi	r2,r2,56
    44d4:	1885883a 	add	r2,r3,r2
    44d8:	10c00017 	ldw	r3,0(r2)
    44dc:	e0bffe17 	ldw	r2,-8(fp)
    44e0:	10803f17 	ldw	r2,252(r2)
    44e4:	1809883a 	mov	r4,r3
    44e8:	100b883a 	mov	r5,r2
    44ec:	0001ac00 	call	1ac0 <__divsi3>
    44f0:	80800215 	stw	r2,8(r16)
    44f4:	e0bff717 	ldw	r2,-36(fp)
    44f8:	1004913a 	slli	r2,r2,4
    44fc:	e0fffd17 	ldw	r3,-12(fp)
    4500:	1885883a 	add	r2,r3,r2
    4504:	e0fffe17 	ldw	r3,-8(fp)
    4508:	18c03f17 	ldw	r3,252(r3)
    450c:	10c00315 	stw	r3,12(r2)
    4510:	e0bff717 	ldw	r2,-36(fp)
    4514:	10800044 	addi	r2,r2,1
    4518:	e0bff715 	stw	r2,-36(fp)
    451c:	e0bffe17 	ldw	r2,-8(fp)
    4520:	10803c17 	ldw	r2,240(r2)
    4524:	10800058 	cmpnei	r2,r2,1
    4528:	10002f1e 	bne	r2,zero,45e8 <altera_onchip_flash_init+0x4a8>
    452c:	e0bffc17 	ldw	r2,-16(fp)
    4530:	10808020 	cmpeqi	r2,r2,512
    4534:	10002c1e 	bne	r2,zero,45e8 <altera_onchip_flash_init+0x4a8>
    4538:	e0bff717 	ldw	r2,-36(fp)
    453c:	1004913a 	slli	r2,r2,4
    4540:	e0fffd17 	ldw	r3,-12(fp)
    4544:	1885883a 	add	r2,r3,r2
    4548:	e0fffe17 	ldw	r3,-8(fp)
    454c:	18c03d17 	ldw	r3,244(r3)
    4550:	10c00015 	stw	r3,0(r2)
    4554:	e0bff717 	ldw	r2,-36(fp)
    4558:	1004913a 	slli	r2,r2,4
    455c:	e0fffd17 	ldw	r3,-12(fp)
    4560:	1885883a 	add	r2,r3,r2
    4564:	e0fffe17 	ldw	r3,-8(fp)
    4568:	19003e17 	ldw	r4,248(r3)
    456c:	e0fffe17 	ldw	r3,-8(fp)
    4570:	18c03d17 	ldw	r3,244(r3)
    4574:	20c7c83a 	sub	r3,r4,r3
    4578:	18c00044 	addi	r3,r3,1
    457c:	10c00115 	stw	r3,4(r2)
    4580:	e0bff717 	ldw	r2,-36(fp)
    4584:	1004913a 	slli	r2,r2,4
    4588:	e0fffd17 	ldw	r3,-12(fp)
    458c:	18a1883a 	add	r16,r3,r2
    4590:	e0fffe17 	ldw	r3,-8(fp)
    4594:	e0bff717 	ldw	r2,-36(fp)
    4598:	1004913a 	slli	r2,r2,4
    459c:	10800e04 	addi	r2,r2,56
    45a0:	1885883a 	add	r2,r3,r2
    45a4:	10c00017 	ldw	r3,0(r2)
    45a8:	e0bffe17 	ldw	r2,-8(fp)
    45ac:	10803f17 	ldw	r2,252(r2)
    45b0:	1809883a 	mov	r4,r3
    45b4:	100b883a 	mov	r5,r2
    45b8:	0001ac00 	call	1ac0 <__divsi3>
    45bc:	80800215 	stw	r2,8(r16)
    45c0:	e0bff717 	ldw	r2,-36(fp)
    45c4:	1004913a 	slli	r2,r2,4
    45c8:	e0fffd17 	ldw	r3,-12(fp)
    45cc:	1885883a 	add	r2,r3,r2
    45d0:	e0fffe17 	ldw	r3,-8(fp)
    45d4:	18c03f17 	ldw	r3,252(r3)
    45d8:	10c00315 	stw	r3,12(r2)
    45dc:	e0bff717 	ldw	r2,-36(fp)
    45e0:	10800044 	addi	r2,r2,1
    45e4:	e0bff715 	stw	r2,-36(fp)
    45e8:	e0bffe17 	ldw	r2,-8(fp)
    45ec:	e0fff717 	ldw	r3,-36(fp)
    45f0:	10c00c15 	stw	r3,48(r2)
    45f4:	e0bffe17 	ldw	r2,-8(fp)
    45f8:	1009883a 	mov	r4,r2
    45fc:	000389c0 	call	389c <alt_flash_device_register>
    4600:	e6ffff04 	addi	sp,fp,-4
    4604:	dfc00217 	ldw	ra,8(sp)
    4608:	df000117 	ldw	fp,4(sp)
    460c:	dc000017 	ldw	r16,0(sp)
    4610:	dec00304 	addi	sp,sp,12
    4614:	f800283a 	ret

00004618 <alt_onchip_flash_poll_for_status_to_go_idle>:
    4618:	defffa04 	addi	sp,sp,-24
    461c:	dfc00515 	stw	ra,20(sp)
    4620:	df000415 	stw	fp,16(sp)
    4624:	df000404 	addi	fp,sp,16
    4628:	e13fff15 	stw	r4,-4(fp)
    462c:	e03ffc15 	stw	zero,-16(fp)
    4630:	008002f4 	movhi	r2,11
    4634:	10ab9804 	addi	r2,r2,-20896
    4638:	e0bffe15 	stw	r2,-8(fp)
    463c:	008002f4 	movhi	r2,11
    4640:	10ab9804 	addi	r2,r2,-20896
    4644:	e0bffd15 	stw	r2,-12(fp)
    4648:	00000c06 	br	467c <alt_onchip_flash_poll_for_status_to_go_idle+0x64>
    464c:	01000044 	movi	r4,1
    4650:	00047c80 	call	47c8 <alt_busy_sleep>
    4654:	e0bffe17 	ldw	r2,-8(fp)
    4658:	10000826 	beq	r2,zero,467c <alt_onchip_flash_poll_for_status_to_go_idle+0x64>
    465c:	e0bffd17 	ldw	r2,-12(fp)
    4660:	10bfffc4 	addi	r2,r2,-1
    4664:	e0bffd15 	stw	r2,-12(fp)
    4668:	e0bffd17 	ldw	r2,-12(fp)
    466c:	1000031e 	bne	r2,zero,467c <alt_onchip_flash_poll_for_status_to_go_idle+0x64>
    4670:	00bfe304 	movi	r2,-116
    4674:	e0bffc15 	stw	r2,-16(fp)
    4678:	00000506 	br	4690 <alt_onchip_flash_poll_for_status_to_go_idle+0x78>
    467c:	e0bfff17 	ldw	r2,-4(fp)
    4680:	10802f17 	ldw	r2,188(r2)
    4684:	10800037 	ldwio	r2,0(r2)
    4688:	108000cc 	andi	r2,r2,3
    468c:	103fef1e 	bne	r2,zero,464c <alt_onchip_flash_poll_for_status_to_go_idle+0x34>
    4690:	e0bffc17 	ldw	r2,-16(fp)
    4694:	e037883a 	mov	sp,fp
    4698:	dfc00117 	ldw	ra,4(sp)
    469c:	df000017 	ldw	fp,0(sp)
    46a0:	dec00204 	addi	sp,sp,8
    46a4:	f800283a 	ret

000046a8 <alt_onchip_flash_poll_for_status_erase_passed>:
    46a8:	defffa04 	addi	sp,sp,-24
    46ac:	dfc00515 	stw	ra,20(sp)
    46b0:	df000415 	stw	fp,16(sp)
    46b4:	df000404 	addi	fp,sp,16
    46b8:	e13fff15 	stw	r4,-4(fp)
    46bc:	e03ffc15 	stw	zero,-16(fp)
    46c0:	008002f4 	movhi	r2,11
    46c4:	10ab9804 	addi	r2,r2,-20896
    46c8:	e0bffe15 	stw	r2,-8(fp)
    46cc:	008002f4 	movhi	r2,11
    46d0:	10ab9804 	addi	r2,r2,-20896
    46d4:	e0bffd15 	stw	r2,-12(fp)
    46d8:	00000c06 	br	470c <alt_onchip_flash_poll_for_status_erase_passed+0x64>
    46dc:	01000044 	movi	r4,1
    46e0:	00047c80 	call	47c8 <alt_busy_sleep>
    46e4:	e0bffe17 	ldw	r2,-8(fp)
    46e8:	10000826 	beq	r2,zero,470c <alt_onchip_flash_poll_for_status_erase_passed+0x64>
    46ec:	e0bffd17 	ldw	r2,-12(fp)
    46f0:	10bfffc4 	addi	r2,r2,-1
    46f4:	e0bffd15 	stw	r2,-12(fp)
    46f8:	e0bffd17 	ldw	r2,-12(fp)
    46fc:	1000031e 	bne	r2,zero,470c <alt_onchip_flash_poll_for_status_erase_passed+0x64>
    4700:	00bfe304 	movi	r2,-116
    4704:	e0bffc15 	stw	r2,-16(fp)
    4708:	00000506 	br	4720 <alt_onchip_flash_poll_for_status_erase_passed+0x78>
    470c:	e0bfff17 	ldw	r2,-4(fp)
    4710:	10802f17 	ldw	r2,188(r2)
    4714:	10800037 	ldwio	r2,0(r2)
    4718:	1080040c 	andi	r2,r2,16
    471c:	103fef26 	beq	r2,zero,46dc <alt_onchip_flash_poll_for_status_erase_passed+0x34>
    4720:	e0bffc17 	ldw	r2,-16(fp)
    4724:	e037883a 	mov	sp,fp
    4728:	dfc00117 	ldw	ra,4(sp)
    472c:	df000017 	ldw	fp,0(sp)
    4730:	dec00204 	addi	sp,sp,8
    4734:	f800283a 	ret

00004738 <alt_onchip_flash_poll_for_status_write_passed>:
    4738:	defffa04 	addi	sp,sp,-24
    473c:	dfc00515 	stw	ra,20(sp)
    4740:	df000415 	stw	fp,16(sp)
    4744:	df000404 	addi	fp,sp,16
    4748:	e13fff15 	stw	r4,-4(fp)
    474c:	e03ffc15 	stw	zero,-16(fp)
    4750:	008002f4 	movhi	r2,11
    4754:	10ab9804 	addi	r2,r2,-20896
    4758:	e0bffe15 	stw	r2,-8(fp)
    475c:	008002f4 	movhi	r2,11
    4760:	10ab9804 	addi	r2,r2,-20896
    4764:	e0bffd15 	stw	r2,-12(fp)
    4768:	00000c06 	br	479c <alt_onchip_flash_poll_for_status_write_passed+0x64>
    476c:	01000044 	movi	r4,1
    4770:	00047c80 	call	47c8 <alt_busy_sleep>
    4774:	e0bffe17 	ldw	r2,-8(fp)
    4778:	10000826 	beq	r2,zero,479c <alt_onchip_flash_poll_for_status_write_passed+0x64>
    477c:	e0bffd17 	ldw	r2,-12(fp)
    4780:	10bfffc4 	addi	r2,r2,-1
    4784:	e0bffd15 	stw	r2,-12(fp)
    4788:	e0bffd17 	ldw	r2,-12(fp)
    478c:	1000031e 	bne	r2,zero,479c <alt_onchip_flash_poll_for_status_write_passed+0x64>
    4790:	00bfe304 	movi	r2,-116
    4794:	e0bffc15 	stw	r2,-16(fp)
    4798:	00000506 	br	47b0 <alt_onchip_flash_poll_for_status_write_passed+0x78>
    479c:	e0bfff17 	ldw	r2,-4(fp)
    47a0:	10802f17 	ldw	r2,188(r2)
    47a4:	10800037 	ldwio	r2,0(r2)
    47a8:	1080020c 	andi	r2,r2,8
    47ac:	103fef26 	beq	r2,zero,476c <alt_onchip_flash_poll_for_status_write_passed+0x34>
    47b0:	e0bffc17 	ldw	r2,-16(fp)
    47b4:	e037883a 	mov	sp,fp
    47b8:	dfc00117 	ldw	ra,4(sp)
    47bc:	df000017 	ldw	fp,0(sp)
    47c0:	dec00204 	addi	sp,sp,8
    47c4:	f800283a 	ret

000047c8 <alt_busy_sleep>:
    47c8:	defffa04 	addi	sp,sp,-24
    47cc:	dfc00515 	stw	ra,20(sp)
    47d0:	df000415 	stw	fp,16(sp)
    47d4:	df000404 	addi	fp,sp,16
    47d8:	e13fff15 	stw	r4,-4(fp)
    47dc:	00800244 	movi	r2,9
    47e0:	e0bffd15 	stw	r2,-12(fp)
    47e4:	e13ffd17 	ldw	r4,-12(fp)
    47e8:	014003f4 	movhi	r5,15
    47ec:	29509004 	addi	r5,r5,16960
    47f0:	0001b800 	call	1b80 <__mulsi3>
    47f4:	0100bef4 	movhi	r4,763
    47f8:	213c2004 	addi	r4,r4,-3968
    47fc:	100b883a 	mov	r5,r2
    4800:	0001b700 	call	1b70 <__udivsi3>
    4804:	01200034 	movhi	r4,32768
    4808:	213fffc4 	addi	r4,r4,-1
    480c:	100b883a 	mov	r5,r2
    4810:	0001b700 	call	1b70 <__udivsi3>
    4814:	e13fff17 	ldw	r4,-4(fp)
    4818:	100b883a 	mov	r5,r2
    481c:	0001b700 	call	1b70 <__udivsi3>
    4820:	e0bffe15 	stw	r2,-8(fp)
    4824:	e0bffe17 	ldw	r2,-8(fp)
    4828:	10002a26 	beq	r2,zero,48d4 <alt_busy_sleep+0x10c>
    482c:	e03ffc15 	stw	zero,-16(fp)
    4830:	00001706 	br	4890 <alt_busy_sleep+0xc8>
    4834:	00a00034 	movhi	r2,32768
    4838:	10bfffc4 	addi	r2,r2,-1
    483c:	10bfffc4 	addi	r2,r2,-1
    4840:	103ffe1e 	bne	r2,zero,483c <alt_busy_sleep+0x74>
    4844:	e13ffd17 	ldw	r4,-12(fp)
    4848:	014003f4 	movhi	r5,15
    484c:	29509004 	addi	r5,r5,16960
    4850:	0001b800 	call	1b80 <__mulsi3>
    4854:	0100bef4 	movhi	r4,763
    4858:	213c2004 	addi	r4,r4,-3968
    485c:	100b883a 	mov	r5,r2
    4860:	0001b700 	call	1b70 <__udivsi3>
    4864:	01200034 	movhi	r4,32768
    4868:	213fffc4 	addi	r4,r4,-1
    486c:	100b883a 	mov	r5,r2
    4870:	0001b700 	call	1b70 <__udivsi3>
    4874:	1007883a 	mov	r3,r2
    4878:	e0bfff17 	ldw	r2,-4(fp)
    487c:	10c5c83a 	sub	r2,r2,r3
    4880:	e0bfff15 	stw	r2,-4(fp)
    4884:	e0bffc17 	ldw	r2,-16(fp)
    4888:	10800044 	addi	r2,r2,1
    488c:	e0bffc15 	stw	r2,-16(fp)
    4890:	e0fffc17 	ldw	r3,-16(fp)
    4894:	e0bffe17 	ldw	r2,-8(fp)
    4898:	18bfe616 	blt	r3,r2,4834 <alt_busy_sleep+0x6c>
    489c:	e13ffd17 	ldw	r4,-12(fp)
    48a0:	014003f4 	movhi	r5,15
    48a4:	29509004 	addi	r5,r5,16960
    48a8:	0001b800 	call	1b80 <__mulsi3>
    48ac:	0100bef4 	movhi	r4,763
    48b0:	213c2004 	addi	r4,r4,-3968
    48b4:	100b883a 	mov	r5,r2
    48b8:	0001b700 	call	1b70 <__udivsi3>
    48bc:	1009883a 	mov	r4,r2
    48c0:	e17fff17 	ldw	r5,-4(fp)
    48c4:	0001b800 	call	1b80 <__mulsi3>
    48c8:	10bfffc4 	addi	r2,r2,-1
    48cc:	103ffe1e 	bne	r2,zero,48c8 <alt_busy_sleep+0x100>
    48d0:	00000d06 	br	4908 <alt_busy_sleep+0x140>
    48d4:	e13ffd17 	ldw	r4,-12(fp)
    48d8:	014003f4 	movhi	r5,15
    48dc:	29509004 	addi	r5,r5,16960
    48e0:	0001b800 	call	1b80 <__mulsi3>
    48e4:	0100bef4 	movhi	r4,763
    48e8:	213c2004 	addi	r4,r4,-3968
    48ec:	100b883a 	mov	r5,r2
    48f0:	0001b700 	call	1b70 <__udivsi3>
    48f4:	1009883a 	mov	r4,r2
    48f8:	e17fff17 	ldw	r5,-4(fp)
    48fc:	0001b800 	call	1b80 <__mulsi3>
    4900:	10bfffc4 	addi	r2,r2,-1
    4904:	00bffe16 	blt	zero,r2,4900 <alt_busy_sleep+0x138>
    4908:	0005883a 	mov	r2,zero
    490c:	e037883a 	mov	sp,fp
    4910:	dfc00117 	ldw	ra,4(sp)
    4914:	df000017 	ldw	fp,0(sp)
    4918:	dec00204 	addi	sp,sp,8
    491c:	f800283a 	ret

00004920 <alt_get_errno>:
    4920:	defffe04 	addi	sp,sp,-8
    4924:	dfc00115 	stw	ra,4(sp)
    4928:	df000015 	stw	fp,0(sp)
    492c:	d839883a 	mov	fp,sp
    4930:	00800034 	movhi	r2,0
    4934:	10986204 	addi	r2,r2,24968
    4938:	10800017 	ldw	r2,0(r2)
    493c:	10000526 	beq	r2,zero,4954 <alt_get_errno+0x34>
    4940:	00800034 	movhi	r2,0
    4944:	10986204 	addi	r2,r2,24968
    4948:	10800017 	ldw	r2,0(r2)
    494c:	103ee83a 	callr	r2
    4950:	00000206 	br	495c <alt_get_errno+0x3c>
    4954:	00800034 	movhi	r2,0
    4958:	10986804 	addi	r2,r2,24992
    495c:	e037883a 	mov	sp,fp
    4960:	dfc00117 	ldw	ra,4(sp)
    4964:	df000017 	ldw	fp,0(sp)
    4968:	dec00204 	addi	sp,sp,8
    496c:	f800283a 	ret

00004970 <close>:
    4970:	defffb04 	addi	sp,sp,-20
    4974:	dfc00415 	stw	ra,16(sp)
    4978:	df000315 	stw	fp,12(sp)
    497c:	df000304 	addi	fp,sp,12
    4980:	e13fff15 	stw	r4,-4(fp)
    4984:	e0bfff17 	ldw	r2,-4(fp)
    4988:	10000816 	blt	r2,zero,49ac <close+0x3c>
    498c:	e13fff17 	ldw	r4,-4(fp)
    4990:	01400304 	movi	r5,12
    4994:	0001b800 	call	1b80 <__mulsi3>
    4998:	1007883a 	mov	r3,r2
    499c:	00800034 	movhi	r2,0
    49a0:	1097f004 	addi	r2,r2,24512
    49a4:	1885883a 	add	r2,r3,r2
    49a8:	00000106 	br	49b0 <close+0x40>
    49ac:	0005883a 	mov	r2,zero
    49b0:	e0bffd15 	stw	r2,-12(fp)
    49b4:	e0bffd17 	ldw	r2,-12(fp)
    49b8:	10001926 	beq	r2,zero,4a20 <close+0xb0>
    49bc:	e0bffd17 	ldw	r2,-12(fp)
    49c0:	10800017 	ldw	r2,0(r2)
    49c4:	10800417 	ldw	r2,16(r2)
    49c8:	10000626 	beq	r2,zero,49e4 <close+0x74>
    49cc:	e0bffd17 	ldw	r2,-12(fp)
    49d0:	10800017 	ldw	r2,0(r2)
    49d4:	10800417 	ldw	r2,16(r2)
    49d8:	e13ffd17 	ldw	r4,-12(fp)
    49dc:	103ee83a 	callr	r2
    49e0:	00000106 	br	49e8 <close+0x78>
    49e4:	0005883a 	mov	r2,zero
    49e8:	e0bffe15 	stw	r2,-8(fp)
    49ec:	e13fff17 	ldw	r4,-4(fp)
    49f0:	00051940 	call	5194 <alt_release_fd>
    49f4:	e0bffe17 	ldw	r2,-8(fp)
    49f8:	1000070e 	bge	r2,zero,4a18 <close+0xa8>
    49fc:	00049200 	call	4920 <alt_get_errno>
    4a00:	1007883a 	mov	r3,r2
    4a04:	e0bffe17 	ldw	r2,-8(fp)
    4a08:	0085c83a 	sub	r2,zero,r2
    4a0c:	18800015 	stw	r2,0(r3)
    4a10:	00bfffc4 	movi	r2,-1
    4a14:	00000706 	br	4a34 <close+0xc4>
    4a18:	0005883a 	mov	r2,zero
    4a1c:	00000506 	br	4a34 <close+0xc4>
    4a20:	00049200 	call	4920 <alt_get_errno>
    4a24:	1007883a 	mov	r3,r2
    4a28:	00801444 	movi	r2,81
    4a2c:	18800015 	stw	r2,0(r3)
    4a30:	00bfffc4 	movi	r2,-1
    4a34:	e037883a 	mov	sp,fp
    4a38:	dfc00117 	ldw	ra,4(sp)
    4a3c:	df000017 	ldw	fp,0(sp)
    4a40:	dec00204 	addi	sp,sp,8
    4a44:	f800283a 	ret

00004a48 <alt_dcache_flush>:
    4a48:	defffd04 	addi	sp,sp,-12
    4a4c:	df000215 	stw	fp,8(sp)
    4a50:	df000204 	addi	fp,sp,8
    4a54:	e13ffe15 	stw	r4,-8(fp)
    4a58:	e17fff15 	stw	r5,-4(fp)
    4a5c:	e037883a 	mov	sp,fp
    4a60:	df000017 	ldw	fp,0(sp)
    4a64:	dec00104 	addi	sp,sp,4
    4a68:	f800283a 	ret

00004a6c <alt_dev_null_write>:
    4a6c:	defffc04 	addi	sp,sp,-16
    4a70:	df000315 	stw	fp,12(sp)
    4a74:	df000304 	addi	fp,sp,12
    4a78:	e13ffd15 	stw	r4,-12(fp)
    4a7c:	e17ffe15 	stw	r5,-8(fp)
    4a80:	e1bfff15 	stw	r6,-4(fp)
    4a84:	e0bfff17 	ldw	r2,-4(fp)
    4a88:	e037883a 	mov	sp,fp
    4a8c:	df000017 	ldw	fp,0(sp)
    4a90:	dec00104 	addi	sp,sp,4
    4a94:	f800283a 	ret

00004a98 <alt_get_errno>:
    4a98:	defffe04 	addi	sp,sp,-8
    4a9c:	dfc00115 	stw	ra,4(sp)
    4aa0:	df000015 	stw	fp,0(sp)
    4aa4:	d839883a 	mov	fp,sp
    4aa8:	00800034 	movhi	r2,0
    4aac:	10986204 	addi	r2,r2,24968
    4ab0:	10800017 	ldw	r2,0(r2)
    4ab4:	10000526 	beq	r2,zero,4acc <alt_get_errno+0x34>
    4ab8:	00800034 	movhi	r2,0
    4abc:	10986204 	addi	r2,r2,24968
    4ac0:	10800017 	ldw	r2,0(r2)
    4ac4:	103ee83a 	callr	r2
    4ac8:	00000206 	br	4ad4 <alt_get_errno+0x3c>
    4acc:	00800034 	movhi	r2,0
    4ad0:	10986804 	addi	r2,r2,24992
    4ad4:	e037883a 	mov	sp,fp
    4ad8:	dfc00117 	ldw	ra,4(sp)
    4adc:	df000017 	ldw	fp,0(sp)
    4ae0:	dec00204 	addi	sp,sp,8
    4ae4:	f800283a 	ret

00004ae8 <alt_dev_llist_insert>:
    4ae8:	defffa04 	addi	sp,sp,-24
    4aec:	dfc00515 	stw	ra,20(sp)
    4af0:	df000415 	stw	fp,16(sp)
    4af4:	df000404 	addi	fp,sp,16
    4af8:	e13ffe15 	stw	r4,-8(fp)
    4afc:	e17fff15 	stw	r5,-4(fp)
    4b00:	e0bffe17 	ldw	r2,-8(fp)
    4b04:	10000326 	beq	r2,zero,4b14 <alt_dev_llist_insert+0x2c>
    4b08:	e0bffe17 	ldw	r2,-8(fp)
    4b0c:	10800217 	ldw	r2,8(r2)
    4b10:	1000061e 	bne	r2,zero,4b2c <alt_dev_llist_insert+0x44>
    4b14:	0004a980 	call	4a98 <alt_get_errno>
    4b18:	1007883a 	mov	r3,r2
    4b1c:	00800584 	movi	r2,22
    4b20:	18800015 	stw	r2,0(r3)
    4b24:	00bffa84 	movi	r2,-22
    4b28:	00001306 	br	4b78 <alt_dev_llist_insert+0x90>
    4b2c:	e0bffe17 	ldw	r2,-8(fp)
    4b30:	e0ffff17 	ldw	r3,-4(fp)
    4b34:	e0fffc15 	stw	r3,-16(fp)
    4b38:	e0bffd15 	stw	r2,-12(fp)
    4b3c:	e0bffd17 	ldw	r2,-12(fp)
    4b40:	e0fffc17 	ldw	r3,-16(fp)
    4b44:	10c00115 	stw	r3,4(r2)
    4b48:	e0bffc17 	ldw	r2,-16(fp)
    4b4c:	10c00017 	ldw	r3,0(r2)
    4b50:	e0bffd17 	ldw	r2,-12(fp)
    4b54:	10c00015 	stw	r3,0(r2)
    4b58:	e0bffc17 	ldw	r2,-16(fp)
    4b5c:	10800017 	ldw	r2,0(r2)
    4b60:	e0fffd17 	ldw	r3,-12(fp)
    4b64:	10c00115 	stw	r3,4(r2)
    4b68:	e0bffc17 	ldw	r2,-16(fp)
    4b6c:	e0fffd17 	ldw	r3,-12(fp)
    4b70:	10c00015 	stw	r3,0(r2)
    4b74:	0005883a 	mov	r2,zero
    4b78:	e037883a 	mov	sp,fp
    4b7c:	dfc00117 	ldw	ra,4(sp)
    4b80:	df000017 	ldw	fp,0(sp)
    4b84:	dec00204 	addi	sp,sp,8
    4b88:	f800283a 	ret

00004b8c <_do_ctors>:
    4b8c:	defffd04 	addi	sp,sp,-12
    4b90:	dfc00215 	stw	ra,8(sp)
    4b94:	df000115 	stw	fp,4(sp)
    4b98:	df000104 	addi	fp,sp,4
    4b9c:	00800034 	movhi	r2,0
    4ba0:	10961504 	addi	r2,r2,22612
    4ba4:	e0bfff15 	stw	r2,-4(fp)
    4ba8:	00000606 	br	4bc4 <_do_ctors+0x38>
    4bac:	e0bfff17 	ldw	r2,-4(fp)
    4bb0:	10800017 	ldw	r2,0(r2)
    4bb4:	103ee83a 	callr	r2
    4bb8:	e0bfff17 	ldw	r2,-4(fp)
    4bbc:	10bfff04 	addi	r2,r2,-4
    4bc0:	e0bfff15 	stw	r2,-4(fp)
    4bc4:	e0ffff17 	ldw	r3,-4(fp)
    4bc8:	00800034 	movhi	r2,0
    4bcc:	10961604 	addi	r2,r2,22616
    4bd0:	18bff62e 	bgeu	r3,r2,4bac <_do_ctors+0x20>
    4bd4:	e037883a 	mov	sp,fp
    4bd8:	dfc00117 	ldw	ra,4(sp)
    4bdc:	df000017 	ldw	fp,0(sp)
    4be0:	dec00204 	addi	sp,sp,8
    4be4:	f800283a 	ret

00004be8 <_do_dtors>:
    4be8:	defffd04 	addi	sp,sp,-12
    4bec:	dfc00215 	stw	ra,8(sp)
    4bf0:	df000115 	stw	fp,4(sp)
    4bf4:	df000104 	addi	fp,sp,4
    4bf8:	00800034 	movhi	r2,0
    4bfc:	10961504 	addi	r2,r2,22612
    4c00:	e0bfff15 	stw	r2,-4(fp)
    4c04:	00000606 	br	4c20 <_do_dtors+0x38>
    4c08:	e0bfff17 	ldw	r2,-4(fp)
    4c0c:	10800017 	ldw	r2,0(r2)
    4c10:	103ee83a 	callr	r2
    4c14:	e0bfff17 	ldw	r2,-4(fp)
    4c18:	10bfff04 	addi	r2,r2,-4
    4c1c:	e0bfff15 	stw	r2,-4(fp)
    4c20:	e0ffff17 	ldw	r3,-4(fp)
    4c24:	00800034 	movhi	r2,0
    4c28:	10961604 	addi	r2,r2,22616
    4c2c:	18bff62e 	bgeu	r3,r2,4c08 <_do_dtors+0x20>
    4c30:	e037883a 	mov	sp,fp
    4c34:	dfc00117 	ldw	ra,4(sp)
    4c38:	df000017 	ldw	fp,0(sp)
    4c3c:	dec00204 	addi	sp,sp,8
    4c40:	f800283a 	ret

00004c44 <alt_flash_open_dev>:
    4c44:	defffc04 	addi	sp,sp,-16
    4c48:	dfc00315 	stw	ra,12(sp)
    4c4c:	df000215 	stw	fp,8(sp)
    4c50:	df000204 	addi	fp,sp,8
    4c54:	e13fff15 	stw	r4,-4(fp)
    4c58:	e13fff17 	ldw	r4,-4(fp)
    4c5c:	d1601304 	addi	r5,gp,-32692
    4c60:	00052340 	call	5234 <alt_find_dev>
    4c64:	e0bffe15 	stw	r2,-8(fp)
    4c68:	e0bffe17 	ldw	r2,-8(fp)
    4c6c:	10000926 	beq	r2,zero,4c94 <alt_flash_open_dev+0x50>
    4c70:	e0bffe17 	ldw	r2,-8(fp)
    4c74:	10800317 	ldw	r2,12(r2)
    4c78:	10000626 	beq	r2,zero,4c94 <alt_flash_open_dev+0x50>
    4c7c:	e0bffe17 	ldw	r2,-8(fp)
    4c80:	10800317 	ldw	r2,12(r2)
    4c84:	e13ffe17 	ldw	r4,-8(fp)
    4c88:	e17fff17 	ldw	r5,-4(fp)
    4c8c:	103ee83a 	callr	r2
    4c90:	00000106 	br	4c98 <alt_flash_open_dev+0x54>
    4c94:	e0bffe17 	ldw	r2,-8(fp)
    4c98:	e037883a 	mov	sp,fp
    4c9c:	dfc00117 	ldw	ra,4(sp)
    4ca0:	df000017 	ldw	fp,0(sp)
    4ca4:	dec00204 	addi	sp,sp,8
    4ca8:	f800283a 	ret

00004cac <alt_flash_close_dev>:
    4cac:	defffd04 	addi	sp,sp,-12
    4cb0:	dfc00215 	stw	ra,8(sp)
    4cb4:	df000115 	stw	fp,4(sp)
    4cb8:	df000104 	addi	fp,sp,4
    4cbc:	e13fff15 	stw	r4,-4(fp)
    4cc0:	e0bfff17 	ldw	r2,-4(fp)
    4cc4:	10000726 	beq	r2,zero,4ce4 <alt_flash_close_dev+0x38>
    4cc8:	e0bfff17 	ldw	r2,-4(fp)
    4ccc:	10800417 	ldw	r2,16(r2)
    4cd0:	10000426 	beq	r2,zero,4ce4 <alt_flash_close_dev+0x38>
    4cd4:	e0bfff17 	ldw	r2,-4(fp)
    4cd8:	10800417 	ldw	r2,16(r2)
    4cdc:	e13fff17 	ldw	r4,-4(fp)
    4ce0:	103ee83a 	callr	r2
    4ce4:	0001883a 	nop
    4ce8:	e037883a 	mov	sp,fp
    4cec:	dfc00117 	ldw	ra,4(sp)
    4cf0:	df000017 	ldw	fp,0(sp)
    4cf4:	dec00204 	addi	sp,sp,8
    4cf8:	f800283a 	ret

00004cfc <alt_exception_cause_generated_bad_addr>:
    4cfc:	defffe04 	addi	sp,sp,-8
    4d00:	df000115 	stw	fp,4(sp)
    4d04:	df000104 	addi	fp,sp,4
    4d08:	e13fff15 	stw	r4,-4(fp)
    4d0c:	e0bfff17 	ldw	r2,-4(fp)
    4d10:	10bffe84 	addi	r2,r2,-6
    4d14:	10c00428 	cmpgeui	r3,r2,16
    4d18:	18001a1e 	bne	r3,zero,4d84 <alt_exception_cause_generated_bad_addr+0x88>
    4d1c:	100690ba 	slli	r3,r2,2
    4d20:	00800034 	movhi	r2,0
    4d24:	10934d04 	addi	r2,r2,19764
    4d28:	1885883a 	add	r2,r3,r2
    4d2c:	10800017 	ldw	r2,0(r2)
    4d30:	1000683a 	jmp	r2
    4d34:	00004d74 	movhi	zero,309
    4d38:	00004d74 	movhi	zero,309
    4d3c:	00004d84 	movi	zero,310
    4d40:	00004d84 	movi	zero,310
    4d44:	00004d84 	movi	zero,310
    4d48:	00004d74 	movhi	zero,309
    4d4c:	00004d7c 	xorhi	zero,zero,309
    4d50:	00004d84 	movi	zero,310
    4d54:	00004d74 	movhi	zero,309
    4d58:	00004d74 	movhi	zero,309
    4d5c:	00004d84 	movi	zero,310
    4d60:	00004d74 	movhi	zero,309
    4d64:	00004d7c 	xorhi	zero,zero,309
    4d68:	00004d84 	movi	zero,310
    4d6c:	00004d84 	movi	zero,310
    4d70:	00004d74 	movhi	zero,309
    4d74:	00800044 	movi	r2,1
    4d78:	00000306 	br	4d88 <alt_exception_cause_generated_bad_addr+0x8c>
    4d7c:	0005883a 	mov	r2,zero
    4d80:	00000106 	br	4d88 <alt_exception_cause_generated_bad_addr+0x8c>
    4d84:	0005883a 	mov	r2,zero
    4d88:	e037883a 	mov	sp,fp
    4d8c:	df000017 	ldw	fp,0(sp)
    4d90:	dec00104 	addi	sp,sp,4
    4d94:	f800283a 	ret

00004d98 <alt_open_fd>:
    4d98:	defff804 	addi	sp,sp,-32
    4d9c:	dfc00715 	stw	ra,28(sp)
    4da0:	df000615 	stw	fp,24(sp)
    4da4:	dc000515 	stw	r16,20(sp)
    4da8:	df000604 	addi	fp,sp,24
    4dac:	e13ffb15 	stw	r4,-20(fp)
    4db0:	e17ffc15 	stw	r5,-16(fp)
    4db4:	e1bffd15 	stw	r6,-12(fp)
    4db8:	e1fffe15 	stw	r7,-8(fp)
    4dbc:	e13ffc17 	ldw	r4,-16(fp)
    4dc0:	e17ffd17 	ldw	r5,-12(fp)
    4dc4:	e1bffe17 	ldw	r6,-8(fp)
    4dc8:	00050340 	call	5034 <open>
    4dcc:	e0bffa15 	stw	r2,-24(fp)
    4dd0:	e0bffa17 	ldw	r2,-24(fp)
    4dd4:	10002216 	blt	r2,zero,4e60 <alt_open_fd+0xc8>
    4dd8:	04000034 	movhi	r16,0
    4ddc:	8417f004 	addi	r16,r16,24512
    4de0:	e0bffa17 	ldw	r2,-24(fp)
    4de4:	1009883a 	mov	r4,r2
    4de8:	01400304 	movi	r5,12
    4dec:	0001b800 	call	1b80 <__mulsi3>
    4df0:	8085883a 	add	r2,r16,r2
    4df4:	10c00017 	ldw	r3,0(r2)
    4df8:	e0bffb17 	ldw	r2,-20(fp)
    4dfc:	10c00015 	stw	r3,0(r2)
    4e00:	04000034 	movhi	r16,0
    4e04:	8417f004 	addi	r16,r16,24512
    4e08:	e0bffa17 	ldw	r2,-24(fp)
    4e0c:	1009883a 	mov	r4,r2
    4e10:	01400304 	movi	r5,12
    4e14:	0001b800 	call	1b80 <__mulsi3>
    4e18:	10800104 	addi	r2,r2,4
    4e1c:	8085883a 	add	r2,r16,r2
    4e20:	10c00017 	ldw	r3,0(r2)
    4e24:	e0bffb17 	ldw	r2,-20(fp)
    4e28:	10c00115 	stw	r3,4(r2)
    4e2c:	04000034 	movhi	r16,0
    4e30:	8417f004 	addi	r16,r16,24512
    4e34:	e0bffa17 	ldw	r2,-24(fp)
    4e38:	1009883a 	mov	r4,r2
    4e3c:	01400304 	movi	r5,12
    4e40:	0001b800 	call	1b80 <__mulsi3>
    4e44:	10800204 	addi	r2,r2,8
    4e48:	8085883a 	add	r2,r16,r2
    4e4c:	10c00017 	ldw	r3,0(r2)
    4e50:	e0bffb17 	ldw	r2,-20(fp)
    4e54:	10c00215 	stw	r3,8(r2)
    4e58:	e13ffa17 	ldw	r4,-24(fp)
    4e5c:	00051940 	call	5194 <alt_release_fd>
    4e60:	e6ffff04 	addi	sp,fp,-4
    4e64:	dfc00217 	ldw	ra,8(sp)
    4e68:	df000117 	ldw	fp,4(sp)
    4e6c:	dc000017 	ldw	r16,0(sp)
    4e70:	dec00304 	addi	sp,sp,12
    4e74:	f800283a 	ret

00004e78 <alt_io_redirect>:
    4e78:	defffb04 	addi	sp,sp,-20
    4e7c:	dfc00415 	stw	ra,16(sp)
    4e80:	df000315 	stw	fp,12(sp)
    4e84:	df000304 	addi	fp,sp,12
    4e88:	e13ffd15 	stw	r4,-12(fp)
    4e8c:	e17ffe15 	stw	r5,-8(fp)
    4e90:	e1bfff15 	stw	r6,-4(fp)
    4e94:	01000034 	movhi	r4,0
    4e98:	2117f304 	addi	r4,r4,24524
    4e9c:	e17ffd17 	ldw	r5,-12(fp)
    4ea0:	01800044 	movi	r6,1
    4ea4:	01c07fc4 	movi	r7,511
    4ea8:	0004d980 	call	4d98 <alt_open_fd>
    4eac:	01000034 	movhi	r4,0
    4eb0:	2117f004 	addi	r4,r4,24512
    4eb4:	e17ffe17 	ldw	r5,-8(fp)
    4eb8:	000d883a 	mov	r6,zero
    4ebc:	01c07fc4 	movi	r7,511
    4ec0:	0004d980 	call	4d98 <alt_open_fd>
    4ec4:	01000034 	movhi	r4,0
    4ec8:	2117f604 	addi	r4,r4,24536
    4ecc:	e17fff17 	ldw	r5,-4(fp)
    4ed0:	01800044 	movi	r6,1
    4ed4:	01c07fc4 	movi	r7,511
    4ed8:	0004d980 	call	4d98 <alt_open_fd>
    4edc:	e037883a 	mov	sp,fp
    4ee0:	dfc00117 	ldw	ra,4(sp)
    4ee4:	df000017 	ldw	fp,0(sp)
    4ee8:	dec00204 	addi	sp,sp,8
    4eec:	f800283a 	ret

00004ef0 <alt_get_errno>:
    4ef0:	defffe04 	addi	sp,sp,-8
    4ef4:	dfc00115 	stw	ra,4(sp)
    4ef8:	df000015 	stw	fp,0(sp)
    4efc:	d839883a 	mov	fp,sp
    4f00:	00800034 	movhi	r2,0
    4f04:	10986204 	addi	r2,r2,24968
    4f08:	10800017 	ldw	r2,0(r2)
    4f0c:	10000526 	beq	r2,zero,4f24 <alt_get_errno+0x34>
    4f10:	00800034 	movhi	r2,0
    4f14:	10986204 	addi	r2,r2,24968
    4f18:	10800017 	ldw	r2,0(r2)
    4f1c:	103ee83a 	callr	r2
    4f20:	00000206 	br	4f2c <alt_get_errno+0x3c>
    4f24:	00800034 	movhi	r2,0
    4f28:	10986804 	addi	r2,r2,24992
    4f2c:	e037883a 	mov	sp,fp
    4f30:	dfc00117 	ldw	ra,4(sp)
    4f34:	df000017 	ldw	fp,0(sp)
    4f38:	dec00204 	addi	sp,sp,8
    4f3c:	f800283a 	ret

00004f40 <alt_file_locked>:
    4f40:	defffb04 	addi	sp,sp,-20
    4f44:	dfc00415 	stw	ra,16(sp)
    4f48:	df000315 	stw	fp,12(sp)
    4f4c:	dc000215 	stw	r16,8(sp)
    4f50:	df000304 	addi	fp,sp,12
    4f54:	e13ffe15 	stw	r4,-8(fp)
    4f58:	e0bffe17 	ldw	r2,-8(fp)
    4f5c:	10800217 	ldw	r2,8(r2)
    4f60:	10d00034 	orhi	r3,r2,16384
    4f64:	e0bffe17 	ldw	r2,-8(fp)
    4f68:	10c00215 	stw	r3,8(r2)
    4f6c:	e03ffd15 	stw	zero,-12(fp)
    4f70:	00002306 	br	5000 <alt_file_locked+0xc0>
    4f74:	04000034 	movhi	r16,0
    4f78:	8417f004 	addi	r16,r16,24512
    4f7c:	e0bffd17 	ldw	r2,-12(fp)
    4f80:	1009883a 	mov	r4,r2
    4f84:	01400304 	movi	r5,12
    4f88:	0001b800 	call	1b80 <__mulsi3>
    4f8c:	8085883a 	add	r2,r16,r2
    4f90:	10c00017 	ldw	r3,0(r2)
    4f94:	e0bffe17 	ldw	r2,-8(fp)
    4f98:	10800017 	ldw	r2,0(r2)
    4f9c:	1880151e 	bne	r3,r2,4ff4 <alt_file_locked+0xb4>
    4fa0:	04000034 	movhi	r16,0
    4fa4:	8417f004 	addi	r16,r16,24512
    4fa8:	e0bffd17 	ldw	r2,-12(fp)
    4fac:	1009883a 	mov	r4,r2
    4fb0:	01400304 	movi	r5,12
    4fb4:	0001b800 	call	1b80 <__mulsi3>
    4fb8:	10800204 	addi	r2,r2,8
    4fbc:	8085883a 	add	r2,r16,r2
    4fc0:	10800017 	ldw	r2,0(r2)
    4fc4:	10000b0e 	bge	r2,zero,4ff4 <alt_file_locked+0xb4>
    4fc8:	e13ffd17 	ldw	r4,-12(fp)
    4fcc:	01400304 	movi	r5,12
    4fd0:	0001b800 	call	1b80 <__mulsi3>
    4fd4:	1007883a 	mov	r3,r2
    4fd8:	00800034 	movhi	r2,0
    4fdc:	1097f004 	addi	r2,r2,24512
    4fe0:	1887883a 	add	r3,r3,r2
    4fe4:	e0bffe17 	ldw	r2,-8(fp)
    4fe8:	18800226 	beq	r3,r2,4ff4 <alt_file_locked+0xb4>
    4fec:	00bffcc4 	movi	r2,-13
    4ff0:	00000a06 	br	501c <alt_file_locked+0xdc>
    4ff4:	e0bffd17 	ldw	r2,-12(fp)
    4ff8:	10800044 	addi	r2,r2,1
    4ffc:	e0bffd15 	stw	r2,-12(fp)
    5000:	00800034 	movhi	r2,0
    5004:	10986104 	addi	r2,r2,24964
    5008:	10800017 	ldw	r2,0(r2)
    500c:	1007883a 	mov	r3,r2
    5010:	e0bffd17 	ldw	r2,-12(fp)
    5014:	18bfd72e 	bgeu	r3,r2,4f74 <alt_file_locked+0x34>
    5018:	0005883a 	mov	r2,zero
    501c:	e6ffff04 	addi	sp,fp,-4
    5020:	dfc00217 	ldw	ra,8(sp)
    5024:	df000117 	ldw	fp,4(sp)
    5028:	dc000017 	ldw	r16,0(sp)
    502c:	dec00304 	addi	sp,sp,12
    5030:	f800283a 	ret

00005034 <open>:
    5034:	defff604 	addi	sp,sp,-40
    5038:	dfc00915 	stw	ra,36(sp)
    503c:	df000815 	stw	fp,32(sp)
    5040:	df000804 	addi	fp,sp,32
    5044:	e13ffd15 	stw	r4,-12(fp)
    5048:	e17ffe15 	stw	r5,-8(fp)
    504c:	e1bfff15 	stw	r6,-4(fp)
    5050:	00bfffc4 	movi	r2,-1
    5054:	e0bff915 	stw	r2,-28(fp)
    5058:	00bffb44 	movi	r2,-19
    505c:	e0bffa15 	stw	r2,-24(fp)
    5060:	e03ffb15 	stw	zero,-20(fp)
    5064:	e13ffd17 	ldw	r4,-12(fp)
    5068:	01400034 	movhi	r5,0
    506c:	29585f04 	addi	r5,r5,24956
    5070:	00052340 	call	5234 <alt_find_dev>
    5074:	e0bff815 	stw	r2,-32(fp)
    5078:	e0bff817 	ldw	r2,-32(fp)
    507c:	1000051e 	bne	r2,zero,5094 <open+0x60>
    5080:	e13ffd17 	ldw	r4,-12(fp)
    5084:	00052c40 	call	52c4 <alt_find_file>
    5088:	e0bff815 	stw	r2,-32(fp)
    508c:	00800044 	movi	r2,1
    5090:	e0bffb15 	stw	r2,-20(fp)
    5094:	e0bff817 	ldw	r2,-32(fp)
    5098:	10002b26 	beq	r2,zero,5148 <open+0x114>
    509c:	e13ff817 	ldw	r4,-32(fp)
    50a0:	00053d80 	call	53d8 <alt_get_fd>
    50a4:	e0bff915 	stw	r2,-28(fp)
    50a8:	e0bff917 	ldw	r2,-28(fp)
    50ac:	1000030e 	bge	r2,zero,50bc <open+0x88>
    50b0:	e0bff917 	ldw	r2,-28(fp)
    50b4:	e0bffa15 	stw	r2,-24(fp)
    50b8:	00002506 	br	5150 <open+0x11c>
    50bc:	e13ff917 	ldw	r4,-28(fp)
    50c0:	01400304 	movi	r5,12
    50c4:	0001b800 	call	1b80 <__mulsi3>
    50c8:	1007883a 	mov	r3,r2
    50cc:	00800034 	movhi	r2,0
    50d0:	1097f004 	addi	r2,r2,24512
    50d4:	1885883a 	add	r2,r3,r2
    50d8:	e0bffc15 	stw	r2,-16(fp)
    50dc:	e0fffe17 	ldw	r3,-8(fp)
    50e0:	00900034 	movhi	r2,16384
    50e4:	10bfffc4 	addi	r2,r2,-1
    50e8:	1886703a 	and	r3,r3,r2
    50ec:	e0bffc17 	ldw	r2,-16(fp)
    50f0:	10c00215 	stw	r3,8(r2)
    50f4:	e0bffb17 	ldw	r2,-20(fp)
    50f8:	1000051e 	bne	r2,zero,5110 <open+0xdc>
    50fc:	e13ffc17 	ldw	r4,-16(fp)
    5100:	0004f400 	call	4f40 <alt_file_locked>
    5104:	e0bffa15 	stw	r2,-24(fp)
    5108:	e0bffa17 	ldw	r2,-24(fp)
    510c:	10001016 	blt	r2,zero,5150 <open+0x11c>
    5110:	e0bff817 	ldw	r2,-32(fp)
    5114:	10800317 	ldw	r2,12(r2)
    5118:	10000826 	beq	r2,zero,513c <open+0x108>
    511c:	e0bff817 	ldw	r2,-32(fp)
    5120:	10800317 	ldw	r2,12(r2)
    5124:	e13ffc17 	ldw	r4,-16(fp)
    5128:	e17ffd17 	ldw	r5,-12(fp)
    512c:	e1bffe17 	ldw	r6,-8(fp)
    5130:	e1ffff17 	ldw	r7,-4(fp)
    5134:	103ee83a 	callr	r2
    5138:	00000106 	br	5140 <open+0x10c>
    513c:	0005883a 	mov	r2,zero
    5140:	e0bffa15 	stw	r2,-24(fp)
    5144:	00000206 	br	5150 <open+0x11c>
    5148:	00bffb44 	movi	r2,-19
    514c:	e0bffa15 	stw	r2,-24(fp)
    5150:	e0bffa17 	ldw	r2,-24(fp)
    5154:	1000090e 	bge	r2,zero,517c <open+0x148>
    5158:	e13ff917 	ldw	r4,-28(fp)
    515c:	00051940 	call	5194 <alt_release_fd>
    5160:	0004ef00 	call	4ef0 <alt_get_errno>
    5164:	1007883a 	mov	r3,r2
    5168:	e0bffa17 	ldw	r2,-24(fp)
    516c:	0085c83a 	sub	r2,zero,r2
    5170:	18800015 	stw	r2,0(r3)
    5174:	00bfffc4 	movi	r2,-1
    5178:	00000106 	br	5180 <open+0x14c>
    517c:	e0bff917 	ldw	r2,-28(fp)
    5180:	e037883a 	mov	sp,fp
    5184:	dfc00117 	ldw	ra,4(sp)
    5188:	df000017 	ldw	fp,0(sp)
    518c:	dec00204 	addi	sp,sp,8
    5190:	f800283a 	ret

00005194 <alt_release_fd>:
    5194:	defffc04 	addi	sp,sp,-16
    5198:	dfc00315 	stw	ra,12(sp)
    519c:	df000215 	stw	fp,8(sp)
    51a0:	dc000115 	stw	r16,4(sp)
    51a4:	df000204 	addi	fp,sp,8
    51a8:	e13ffe15 	stw	r4,-8(fp)
    51ac:	e0bffe17 	ldw	r2,-8(fp)
    51b0:	108000d0 	cmplti	r2,r2,3
    51b4:	1000111e 	bne	r2,zero,51fc <alt_release_fd+0x68>
    51b8:	04000034 	movhi	r16,0
    51bc:	8417f004 	addi	r16,r16,24512
    51c0:	e0bffe17 	ldw	r2,-8(fp)
    51c4:	1009883a 	mov	r4,r2
    51c8:	01400304 	movi	r5,12
    51cc:	0001b800 	call	1b80 <__mulsi3>
    51d0:	10800204 	addi	r2,r2,8
    51d4:	8085883a 	add	r2,r16,r2
    51d8:	10000015 	stw	zero,0(r2)
    51dc:	04000034 	movhi	r16,0
    51e0:	8417f004 	addi	r16,r16,24512
    51e4:	e0bffe17 	ldw	r2,-8(fp)
    51e8:	1009883a 	mov	r4,r2
    51ec:	01400304 	movi	r5,12
    51f0:	0001b800 	call	1b80 <__mulsi3>
    51f4:	8085883a 	add	r2,r16,r2
    51f8:	10000015 	stw	zero,0(r2)
    51fc:	e6ffff04 	addi	sp,fp,-4
    5200:	dfc00217 	ldw	ra,8(sp)
    5204:	df000117 	ldw	fp,4(sp)
    5208:	dc000017 	ldw	r16,0(sp)
    520c:	dec00304 	addi	sp,sp,12
    5210:	f800283a 	ret

00005214 <altera_nios2_gen2_irq_init>:
    5214:	deffff04 	addi	sp,sp,-4
    5218:	df000015 	stw	fp,0(sp)
    521c:	d839883a 	mov	fp,sp
    5220:	000170fa 	wrctl	ienable,zero
    5224:	e037883a 	mov	sp,fp
    5228:	df000017 	ldw	fp,0(sp)
    522c:	dec00104 	addi	sp,sp,4
    5230:	f800283a 	ret

00005234 <alt_find_dev>:
    5234:	defffa04 	addi	sp,sp,-24
    5238:	dfc00515 	stw	ra,20(sp)
    523c:	df000415 	stw	fp,16(sp)
    5240:	df000404 	addi	fp,sp,16
    5244:	e13ffe15 	stw	r4,-8(fp)
    5248:	e17fff15 	stw	r5,-4(fp)
    524c:	e0bfff17 	ldw	r2,-4(fp)
    5250:	10800017 	ldw	r2,0(r2)
    5254:	e0bffc15 	stw	r2,-16(fp)
    5258:	e13ffe17 	ldw	r4,-8(fp)
    525c:	0001cfc0 	call	1cfc <strlen>
    5260:	10800044 	addi	r2,r2,1
    5264:	e0bffd15 	stw	r2,-12(fp)
    5268:	00000d06 	br	52a0 <alt_find_dev+0x6c>
    526c:	e0bffc17 	ldw	r2,-16(fp)
    5270:	10c00217 	ldw	r3,8(r2)
    5274:	e0bffd17 	ldw	r2,-12(fp)
    5278:	1809883a 	mov	r4,r3
    527c:	e17ffe17 	ldw	r5,-8(fp)
    5280:	100d883a 	mov	r6,r2
    5284:	00054e00 	call	54e0 <memcmp>
    5288:	1000021e 	bne	r2,zero,5294 <alt_find_dev+0x60>
    528c:	e0bffc17 	ldw	r2,-16(fp)
    5290:	00000706 	br	52b0 <alt_find_dev+0x7c>
    5294:	e0bffc17 	ldw	r2,-16(fp)
    5298:	10800017 	ldw	r2,0(r2)
    529c:	e0bffc15 	stw	r2,-16(fp)
    52a0:	e0fffc17 	ldw	r3,-16(fp)
    52a4:	e0bfff17 	ldw	r2,-4(fp)
    52a8:	18bff01e 	bne	r3,r2,526c <alt_find_dev+0x38>
    52ac:	0005883a 	mov	r2,zero
    52b0:	e037883a 	mov	sp,fp
    52b4:	dfc00117 	ldw	ra,4(sp)
    52b8:	df000017 	ldw	fp,0(sp)
    52bc:	dec00204 	addi	sp,sp,8
    52c0:	f800283a 	ret

000052c4 <alt_find_file>:
    52c4:	defffb04 	addi	sp,sp,-20
    52c8:	dfc00415 	stw	ra,16(sp)
    52cc:	df000315 	stw	fp,12(sp)
    52d0:	df000304 	addi	fp,sp,12
    52d4:	e13fff15 	stw	r4,-4(fp)
    52d8:	00800034 	movhi	r2,0
    52dc:	10985d04 	addi	r2,r2,24948
    52e0:	10800017 	ldw	r2,0(r2)
    52e4:	e0bffd15 	stw	r2,-12(fp)
    52e8:	00003106 	br	53b0 <alt_find_file+0xec>
    52ec:	e0bffd17 	ldw	r2,-12(fp)
    52f0:	10800217 	ldw	r2,8(r2)
    52f4:	1009883a 	mov	r4,r2
    52f8:	0001cfc0 	call	1cfc <strlen>
    52fc:	e0bffe15 	stw	r2,-8(fp)
    5300:	e0bffd17 	ldw	r2,-12(fp)
    5304:	10c00217 	ldw	r3,8(r2)
    5308:	e0bffe17 	ldw	r2,-8(fp)
    530c:	10bfffc4 	addi	r2,r2,-1
    5310:	1885883a 	add	r2,r3,r2
    5314:	10800003 	ldbu	r2,0(r2)
    5318:	10803fcc 	andi	r2,r2,255
    531c:	1080201c 	xori	r2,r2,128
    5320:	10bfe004 	addi	r2,r2,-128
    5324:	10800bd8 	cmpnei	r2,r2,47
    5328:	1000031e 	bne	r2,zero,5338 <alt_find_file+0x74>
    532c:	e0bffe17 	ldw	r2,-8(fp)
    5330:	10bfffc4 	addi	r2,r2,-1
    5334:	e0bffe15 	stw	r2,-8(fp)
    5338:	e0bffe17 	ldw	r2,-8(fp)
    533c:	e0ffff17 	ldw	r3,-4(fp)
    5340:	1885883a 	add	r2,r3,r2
    5344:	10800003 	ldbu	r2,0(r2)
    5348:	10803fcc 	andi	r2,r2,255
    534c:	1080201c 	xori	r2,r2,128
    5350:	10bfe004 	addi	r2,r2,-128
    5354:	10800be0 	cmpeqi	r2,r2,47
    5358:	1000081e 	bne	r2,zero,537c <alt_find_file+0xb8>
    535c:	e0bffe17 	ldw	r2,-8(fp)
    5360:	e0ffff17 	ldw	r3,-4(fp)
    5364:	1885883a 	add	r2,r3,r2
    5368:	10800003 	ldbu	r2,0(r2)
    536c:	10803fcc 	andi	r2,r2,255
    5370:	1080201c 	xori	r2,r2,128
    5374:	10bfe004 	addi	r2,r2,-128
    5378:	10000a1e 	bne	r2,zero,53a4 <alt_find_file+0xe0>
    537c:	e0bffd17 	ldw	r2,-12(fp)
    5380:	10c00217 	ldw	r3,8(r2)
    5384:	e0bffe17 	ldw	r2,-8(fp)
    5388:	1809883a 	mov	r4,r3
    538c:	e17fff17 	ldw	r5,-4(fp)
    5390:	100d883a 	mov	r6,r2
    5394:	00054e00 	call	54e0 <memcmp>
    5398:	1000021e 	bne	r2,zero,53a4 <alt_find_file+0xe0>
    539c:	e0bffd17 	ldw	r2,-12(fp)
    53a0:	00000806 	br	53c4 <alt_find_file+0x100>
    53a4:	e0bffd17 	ldw	r2,-12(fp)
    53a8:	10800017 	ldw	r2,0(r2)
    53ac:	e0bffd15 	stw	r2,-12(fp)
    53b0:	e0fffd17 	ldw	r3,-12(fp)
    53b4:	00800034 	movhi	r2,0
    53b8:	10985d04 	addi	r2,r2,24948
    53bc:	18bfcb1e 	bne	r3,r2,52ec <alt_find_file+0x28>
    53c0:	0005883a 	mov	r2,zero
    53c4:	e037883a 	mov	sp,fp
    53c8:	dfc00117 	ldw	ra,4(sp)
    53cc:	df000017 	ldw	fp,0(sp)
    53d0:	dec00204 	addi	sp,sp,8
    53d4:	f800283a 	ret

000053d8 <alt_get_fd>:
    53d8:	defffa04 	addi	sp,sp,-24
    53dc:	dfc00515 	stw	ra,20(sp)
    53e0:	df000415 	stw	fp,16(sp)
    53e4:	dc000315 	stw	r16,12(sp)
    53e8:	df000404 	addi	fp,sp,16
    53ec:	e13ffe15 	stw	r4,-8(fp)
    53f0:	00bffa04 	movi	r2,-24
    53f4:	e0bffd15 	stw	r2,-12(fp)
    53f8:	e03ffc15 	stw	zero,-16(fp)
    53fc:	00002106 	br	5484 <alt_get_fd+0xac>
    5400:	04000034 	movhi	r16,0
    5404:	8417f004 	addi	r16,r16,24512
    5408:	e0bffc17 	ldw	r2,-16(fp)
    540c:	1009883a 	mov	r4,r2
    5410:	01400304 	movi	r5,12
    5414:	0001b800 	call	1b80 <__mulsi3>
    5418:	8085883a 	add	r2,r16,r2
    541c:	10800017 	ldw	r2,0(r2)
    5420:	1000151e 	bne	r2,zero,5478 <alt_get_fd+0xa0>
    5424:	04000034 	movhi	r16,0
    5428:	8417f004 	addi	r16,r16,24512
    542c:	e0bffc17 	ldw	r2,-16(fp)
    5430:	1009883a 	mov	r4,r2
    5434:	01400304 	movi	r5,12
    5438:	0001b800 	call	1b80 <__mulsi3>
    543c:	8085883a 	add	r2,r16,r2
    5440:	e0fffe17 	ldw	r3,-8(fp)
    5444:	10c00015 	stw	r3,0(r2)
    5448:	00800034 	movhi	r2,0
    544c:	10986104 	addi	r2,r2,24964
    5450:	10c00017 	ldw	r3,0(r2)
    5454:	e0bffc17 	ldw	r2,-16(fp)
    5458:	1880040e 	bge	r3,r2,546c <alt_get_fd+0x94>
    545c:	00800034 	movhi	r2,0
    5460:	10986104 	addi	r2,r2,24964
    5464:	e0fffc17 	ldw	r3,-16(fp)
    5468:	10c00015 	stw	r3,0(r2)
    546c:	e0bffc17 	ldw	r2,-16(fp)
    5470:	e0bffd15 	stw	r2,-12(fp)
    5474:	00000606 	br	5490 <alt_get_fd+0xb8>
    5478:	e0bffc17 	ldw	r2,-16(fp)
    547c:	10800044 	addi	r2,r2,1
    5480:	e0bffc15 	stw	r2,-16(fp)
    5484:	e0bffc17 	ldw	r2,-16(fp)
    5488:	10800810 	cmplti	r2,r2,32
    548c:	103fdc1e 	bne	r2,zero,5400 <alt_get_fd+0x28>
    5490:	e0bffd17 	ldw	r2,-12(fp)
    5494:	e6ffff04 	addi	sp,fp,-4
    5498:	dfc00217 	ldw	ra,8(sp)
    549c:	df000117 	ldw	fp,4(sp)
    54a0:	dc000017 	ldw	r16,0(sp)
    54a4:	dec00304 	addi	sp,sp,12
    54a8:	f800283a 	ret

000054ac <atexit>:
    54ac:	200b883a 	mov	r5,r4
    54b0:	000d883a 	mov	r6,zero
    54b4:	0009883a 	mov	r4,zero
    54b8:	000f883a 	mov	r7,zero
    54bc:	00055381 	jmpi	5538 <__register_exitproc>

000054c0 <exit>:
    54c0:	defffe04 	addi	sp,sp,-8
    54c4:	000b883a 	mov	r5,zero
    54c8:	dc000015 	stw	r16,0(sp)
    54cc:	dfc00115 	stw	ra,4(sp)
    54d0:	2021883a 	mov	r16,r4
    54d4:	00056880 	call	5688 <__call_exitprocs>
    54d8:	8009883a 	mov	r4,r16
    54dc:	00058240 	call	5824 <_exit>

000054e0 <memcmp>:
    54e0:	218d883a 	add	r6,r4,r6
    54e4:	21800826 	beq	r4,r6,5508 <memcmp+0x28>
    54e8:	20800003 	ldbu	r2,0(r4)
    54ec:	28c00003 	ldbu	r3,0(r5)
    54f0:	10c00226 	beq	r2,r3,54fc <memcmp+0x1c>
    54f4:	10c5c83a 	sub	r2,r2,r3
    54f8:	f800283a 	ret
    54fc:	21000044 	addi	r4,r4,1
    5500:	29400044 	addi	r5,r5,1
    5504:	003ff706 	br	54e4 <memcmp+0x4>
    5508:	0005883a 	mov	r2,zero
    550c:	f800283a 	ret

00005510 <memcpy>:
    5510:	2005883a 	mov	r2,r4
    5514:	0007883a 	mov	r3,zero
    5518:	19800626 	beq	r3,r6,5534 <memcpy+0x24>
    551c:	28c9883a 	add	r4,r5,r3
    5520:	21c00003 	ldbu	r7,0(r4)
    5524:	10c9883a 	add	r4,r2,r3
    5528:	18c00044 	addi	r3,r3,1
    552c:	21c00005 	stb	r7,0(r4)
    5530:	003ff906 	br	5518 <memcpy+0x8>
    5534:	f800283a 	ret

00005538 <__register_exitproc>:
    5538:	00800034 	movhi	r2,0
    553c:	defff904 	addi	sp,sp,-28
    5540:	10985704 	addi	r2,r2,24924
    5544:	dcc00315 	stw	r19,12(sp)
    5548:	14c00017 	ldw	r19,0(r2)
    554c:	dc000015 	stw	r16,0(sp)
    5550:	dd400515 	stw	r21,20(sp)
    5554:	9c000c17 	ldw	r16,48(r19)
    5558:	dd000415 	stw	r20,16(sp)
    555c:	dc800215 	stw	r18,8(sp)
    5560:	dc400115 	stw	r17,4(sp)
    5564:	dfc00615 	stw	ra,24(sp)
    5568:	202b883a 	mov	r21,r4
    556c:	2823883a 	mov	r17,r5
    5570:	3029883a 	mov	r20,r6
    5574:	3825883a 	mov	r18,r7
    5578:	8000021e 	bne	r16,zero,5584 <__register_exitproc+0x4c>
    557c:	9c000d04 	addi	r16,r19,52
    5580:	9c000c15 	stw	r16,48(r19)
    5584:	80800117 	ldw	r2,4(r16)
    5588:	00c007c4 	movi	r3,31
    558c:	1880100e 	bge	r3,r2,55d0 <__register_exitproc+0x98>
    5590:	00800034 	movhi	r2,0
    5594:	1089db04 	addi	r2,r2,10092
    5598:	1000021e 	bne	r2,zero,55a4 <__register_exitproc+0x6c>
    559c:	00bfffc4 	movi	r2,-1
    55a0:	00003006 	br	5664 <__register_exitproc+0x12c>
    55a4:	01002304 	movi	r4,140
    55a8:	000276c0 	call	276c <malloc>
    55ac:	1021883a 	mov	r16,r2
    55b0:	103ffa26 	beq	r2,zero,559c <__register_exitproc+0x64>
    55b4:	10000115 	stw	zero,4(r2)
    55b8:	98800c17 	ldw	r2,48(r19)
    55bc:	80800015 	stw	r2,0(r16)
    55c0:	9c000c15 	stw	r16,48(r19)
    55c4:	80002215 	stw	zero,136(r16)
    55c8:	a800071e 	bne	r21,zero,55e8 <__register_exitproc+0xb0>
    55cc:	00001c06 	br	5640 <__register_exitproc+0x108>
    55d0:	a8001b26 	beq	r21,zero,5640 <__register_exitproc+0x108>
    55d4:	80802217 	ldw	r2,136(r16)
    55d8:	1000091e 	bne	r2,zero,5600 <__register_exitproc+0xc8>
    55dc:	00800034 	movhi	r2,0
    55e0:	1089db04 	addi	r2,r2,10092
    55e4:	103fed26 	beq	r2,zero,559c <__register_exitproc+0x64>
    55e8:	01004204 	movi	r4,264
    55ec:	000276c0 	call	276c <malloc>
    55f0:	103fea26 	beq	r2,zero,559c <__register_exitproc+0x64>
    55f4:	10004015 	stw	zero,256(r2)
    55f8:	10004115 	stw	zero,260(r2)
    55fc:	80802215 	stw	r2,136(r16)
    5600:	81000117 	ldw	r4,4(r16)
    5604:	01400044 	movi	r5,1
    5608:	2107883a 	add	r3,r4,r4
    560c:	18c7883a 	add	r3,r3,r3
    5610:	10c7883a 	add	r3,r2,r3
    5614:	1d000015 	stw	r20,0(r3)
    5618:	290a983a 	sll	r5,r5,r4
    561c:	11004017 	ldw	r4,256(r2)
    5620:	2148b03a 	or	r4,r4,r5
    5624:	11004015 	stw	r4,256(r2)
    5628:	1c802015 	stw	r18,128(r3)
    562c:	00c00084 	movi	r3,2
    5630:	a8c0031e 	bne	r21,r3,5640 <__register_exitproc+0x108>
    5634:	10c04117 	ldw	r3,260(r2)
    5638:	194ab03a 	or	r5,r3,r5
    563c:	11404115 	stw	r5,260(r2)
    5640:	80800117 	ldw	r2,4(r16)
    5644:	10c00044 	addi	r3,r2,1
    5648:	10800084 	addi	r2,r2,2
    564c:	1085883a 	add	r2,r2,r2
    5650:	1085883a 	add	r2,r2,r2
    5654:	80c00115 	stw	r3,4(r16)
    5658:	80a1883a 	add	r16,r16,r2
    565c:	84400015 	stw	r17,0(r16)
    5660:	0005883a 	mov	r2,zero
    5664:	dfc00617 	ldw	ra,24(sp)
    5668:	dd400517 	ldw	r21,20(sp)
    566c:	dd000417 	ldw	r20,16(sp)
    5670:	dcc00317 	ldw	r19,12(sp)
    5674:	dc800217 	ldw	r18,8(sp)
    5678:	dc400117 	ldw	r17,4(sp)
    567c:	dc000017 	ldw	r16,0(sp)
    5680:	dec00704 	addi	sp,sp,28
    5684:	f800283a 	ret

00005688 <__call_exitprocs>:
    5688:	00800034 	movhi	r2,0
    568c:	10985704 	addi	r2,r2,24924
    5690:	10800017 	ldw	r2,0(r2)
    5694:	defff304 	addi	sp,sp,-52
    5698:	ddc00a15 	stw	r23,40(sp)
    569c:	d8800015 	stw	r2,0(sp)
    56a0:	05c00034 	movhi	r23,0
    56a4:	10800c04 	addi	r2,r2,48
    56a8:	dc800515 	stw	r18,20(sp)
    56ac:	dfc00c15 	stw	ra,48(sp)
    56b0:	df000b15 	stw	fp,44(sp)
    56b4:	dd800915 	stw	r22,36(sp)
    56b8:	dd400815 	stw	r21,32(sp)
    56bc:	dd000715 	stw	r20,28(sp)
    56c0:	dcc00615 	stw	r19,24(sp)
    56c4:	dc400415 	stw	r17,16(sp)
    56c8:	dc000315 	stw	r16,12(sp)
    56cc:	d9000115 	stw	r4,4(sp)
    56d0:	2825883a 	mov	r18,r5
    56d4:	d8800215 	stw	r2,8(sp)
    56d8:	bdc9e004 	addi	r23,r23,10112
    56dc:	d8800017 	ldw	r2,0(sp)
    56e0:	dc400217 	ldw	r17,8(sp)
    56e4:	14c00c17 	ldw	r19,48(r2)
    56e8:	98004226 	beq	r19,zero,57f4 <__call_exitprocs+0x16c>
    56ec:	9c000117 	ldw	r16,4(r19)
    56f0:	00900034 	movhi	r2,16384
    56f4:	10bfffc4 	addi	r2,r2,-1
    56f8:	9d002217 	ldw	r20,136(r19)
    56fc:	857fffc4 	addi	r21,r16,-1
    5700:	80a1883a 	add	r16,r16,r2
    5704:	8421883a 	add	r16,r16,r16
    5708:	8421883a 	add	r16,r16,r16
    570c:	a42d883a 	add	r22,r20,r16
    5710:	84000204 	addi	r16,r16,8
    5714:	9c21883a 	add	r16,r19,r16
    5718:	a8002616 	blt	r21,zero,57b4 <__call_exitprocs+0x12c>
    571c:	90000326 	beq	r18,zero,572c <__call_exitprocs+0xa4>
    5720:	a0002026 	beq	r20,zero,57a4 <__call_exitprocs+0x11c>
    5724:	b1002017 	ldw	r4,128(r22)
    5728:	24801e1e 	bne	r4,r18,57a4 <__call_exitprocs+0x11c>
    572c:	99000117 	ldw	r4,4(r19)
    5730:	82000017 	ldw	r8,0(r16)
    5734:	213fffc4 	addi	r4,r4,-1
    5738:	a900021e 	bne	r21,r4,5744 <__call_exitprocs+0xbc>
    573c:	9d400115 	stw	r21,4(r19)
    5740:	00000106 	br	5748 <__call_exitprocs+0xc0>
    5744:	80000015 	stw	zero,0(r16)
    5748:	40001626 	beq	r8,zero,57a4 <__call_exitprocs+0x11c>
    574c:	9f000117 	ldw	fp,4(r19)
    5750:	a0000526 	beq	r20,zero,5768 <__call_exitprocs+0xe0>
    5754:	00800044 	movi	r2,1
    5758:	1552983a 	sll	r9,r2,r21
    575c:	a1404017 	ldw	r5,256(r20)
    5760:	494a703a 	and	r5,r9,r5
    5764:	2800021e 	bne	r5,zero,5770 <__call_exitprocs+0xe8>
    5768:	403ee83a 	callr	r8
    576c:	00000906 	br	5794 <__call_exitprocs+0x10c>
    5770:	a1004117 	ldw	r4,260(r20)
    5774:	4908703a 	and	r4,r9,r4
    5778:	2000041e 	bne	r4,zero,578c <__call_exitprocs+0x104>
    577c:	d9000117 	ldw	r4,4(sp)
    5780:	b1400017 	ldw	r5,0(r22)
    5784:	403ee83a 	callr	r8
    5788:	00000206 	br	5794 <__call_exitprocs+0x10c>
    578c:	b1000017 	ldw	r4,0(r22)
    5790:	403ee83a 	callr	r8
    5794:	99000117 	ldw	r4,4(r19)
    5798:	e13fd01e 	bne	fp,r4,56dc <__call_exitprocs+0x54>
    579c:	89000017 	ldw	r4,0(r17)
    57a0:	24ffce1e 	bne	r4,r19,56dc <__call_exitprocs+0x54>
    57a4:	ad7fffc4 	addi	r21,r21,-1
    57a8:	b5bfff04 	addi	r22,r22,-4
    57ac:	843fff04 	addi	r16,r16,-4
    57b0:	003fd906 	br	5718 <__call_exitprocs+0x90>
    57b4:	b8000f26 	beq	r23,zero,57f4 <__call_exitprocs+0x16c>
    57b8:	99400117 	ldw	r5,4(r19)
    57bc:	99000017 	ldw	r4,0(r19)
    57c0:	2800091e 	bne	r5,zero,57e8 <__call_exitprocs+0x160>
    57c4:	20000826 	beq	r4,zero,57e8 <__call_exitprocs+0x160>
    57c8:	89000015 	stw	r4,0(r17)
    57cc:	a0000226 	beq	r20,zero,57d8 <__call_exitprocs+0x150>
    57d0:	a009883a 	mov	r4,r20
    57d4:	00027800 	call	2780 <free>
    57d8:	9809883a 	mov	r4,r19
    57dc:	00027800 	call	2780 <free>
    57e0:	8cc00017 	ldw	r19,0(r17)
    57e4:	003fc006 	br	56e8 <__call_exitprocs+0x60>
    57e8:	9823883a 	mov	r17,r19
    57ec:	2027883a 	mov	r19,r4
    57f0:	003fbd06 	br	56e8 <__call_exitprocs+0x60>
    57f4:	dfc00c17 	ldw	ra,48(sp)
    57f8:	df000b17 	ldw	fp,44(sp)
    57fc:	ddc00a17 	ldw	r23,40(sp)
    5800:	dd800917 	ldw	r22,36(sp)
    5804:	dd400817 	ldw	r21,32(sp)
    5808:	dd000717 	ldw	r20,28(sp)
    580c:	dcc00617 	ldw	r19,24(sp)
    5810:	dc800517 	ldw	r18,20(sp)
    5814:	dc400417 	ldw	r17,16(sp)
    5818:	dc000317 	ldw	r16,12(sp)
    581c:	dec00d04 	addi	sp,sp,52
    5820:	f800283a 	ret

00005824 <_exit>:
    5824:	defffd04 	addi	sp,sp,-12
    5828:	df000215 	stw	fp,8(sp)
    582c:	df000204 	addi	fp,sp,8
    5830:	e13fff15 	stw	r4,-4(fp)
    5834:	0001883a 	nop
    5838:	e0bfff17 	ldw	r2,-4(fp)
    583c:	e0bffe15 	stw	r2,-8(fp)
    5840:	e0bffe17 	ldw	r2,-8(fp)
    5844:	10000226 	beq	r2,zero,5850 <_exit+0x2c>
    5848:	002af070 	cmpltui	zero,zero,43969
    584c:	00000106 	br	5854 <_exit+0x30>
    5850:	002af0b0 	cmpltui	zero,zero,43970
    5854:	003fff06 	br	5854 <_exit+0x30>
