
tmc_temperature_readout.elf:     file format elf32-littlenios2
tmc_temperature_readout.elf
architecture: nios2:r1, flags 0x00000112:
EXEC_P, HAS_SYMS, D_PAGED
start address 0x0000022c

Program Header:
    LOAD off    0x00001020 vaddr 0x00000020 paddr 0x00000020 align 2**12
         filesz 0x00006170 memsz 0x00006294 flags rwx
    LOAD off    0x00008000 vaddr 0x00080000 paddr 0x00080000 align 2**12
         filesz 0x00000000 memsz 0x00000000 flags r-x

Sections:
Idx Name          Size      VMA       LMA       File off  Algn
  0 .entry        00000000  00080000  00080000  00008000  2**5
                  CONTENTS, ALLOC, LOAD, READONLY, CODE
  1 .exceptions   0000020c  00000020  00000020  00001020  2**2
                  CONTENTS, ALLOC, LOAD, READONLY, CODE
  2 .text         00005628  0000022c  0000022c  0000122c  2**2
                  CONTENTS, ALLOC, LOAD, READONLY, CODE
  3 .rodata       00000508  00005854  00005854  00006854  2**2
                  CONTENTS, ALLOC, LOAD, READONLY, DATA
  4 .rwdata       00000434  00005d5c  00005d5c  00006d5c  2**2
                  CONTENTS, ALLOC, LOAD, DATA, SMALL_DATA
  5 .bss          00000124  00006190  00006190  00007190  2**2
                  ALLOC, SMALL_DATA
  6 .onchip_memory2_0 00000000  000062b4  000062b4  00008000  2**0
                  CONTENTS
  7 .onchip_flash_0_data 00000000  00080020  00080020  00008000  2**0
                  CONTENTS
  8 .comment      00000023  00000000  00000000  00008000  2**0
                  CONTENTS, READONLY
  9 .debug_aranges 000008b8  00000000  00000000  00008028  2**3
                  CONTENTS, READONLY, DEBUGGING
 10 .debug_info   0000dde2  00000000  00000000  000088e0  2**0
                  CONTENTS, READONLY, DEBUGGING
 11 .debug_abbrev 00004720  00000000  00000000  000166c2  2**0
                  CONTENTS, READONLY, DEBUGGING
 12 .debug_line   00005273  00000000  00000000  0001ade2  2**0
                  CONTENTS, READONLY, DEBUGGING
 13 .debug_frame  000013d8  00000000  00000000  00020058  2**2
                  CONTENTS, READONLY, DEBUGGING
 14 .debug_str    00002aa5  00000000  00000000  00021430  2**0
                  CONTENTS, READONLY, DEBUGGING
 15 .debug_loc    00001f9c  00000000  00000000  00023ed5  2**0
                  CONTENTS, READONLY, DEBUGGING
 16 .debug_alt_sim_info 00000040  00000000  00000000  00025e74  2**2
                  CONTENTS, READONLY, DEBUGGING
 17 .debug_ranges 00000348  00000000  00000000  00025eb8  2**3
                  CONTENTS, READONLY, DEBUGGING
 18 .thread_model 00000003  00000000  00000000  000286e3  2**0
                  CONTENTS, READONLY
 19 .cpu          0000000c  00000000  00000000  000286e6  2**0
                  CONTENTS, READONLY
 20 .qsys         00000001  00000000  00000000  000286f2  2**0
                  CONTENTS, READONLY
 21 .simulation_enabled 00000001  00000000  00000000  000286f3  2**0
                  CONTENTS, READONLY
 22 .sysid_hash   00000004  00000000  00000000  000286f4  2**0
                  CONTENTS, READONLY
 23 .sysid_base   00000004  00000000  00000000  000286f8  2**0
                  CONTENTS, READONLY
 24 .sysid_time   00000004  00000000  00000000  000286fc  2**0
                  CONTENTS, READONLY
 25 .stderr_dev   00000006  00000000  00000000  00028700  2**0
                  CONTENTS, READONLY
 26 .stdin_dev    00000006  00000000  00000000  00028706  2**0
                  CONTENTS, READONLY
 27 .stdout_dev   00000006  00000000  00000000  0002870c  2**0
                  CONTENTS, READONLY
 28 .sopc_system_name 00000009  00000000  00000000  00028712  2**0
                  CONTENTS, READONLY
 29 .sopcinfo     0007291c  00000000  00000000  0002871b  2**0
                  CONTENTS, READONLY
SYMBOL TABLE:
00080000 l    d  .entry	00000000 .entry
00000020 l    d  .exceptions	00000000 .exceptions
0000022c l    d  .text	00000000 .text
00005854 l    d  .rodata	00000000 .rodata
00005d5c l    d  .rwdata	00000000 .rwdata
00006190 l    d  .bss	00000000 .bss
000062b4 l    d  .onchip_memory2_0	00000000 .onchip_memory2_0
00080020 l    d  .onchip_flash_0_data	00000000 .onchip_flash_0_data
00000000 l    d  .comment	00000000 .comment
00000000 l    d  .debug_aranges	00000000 .debug_aranges
00000000 l    d  .debug_info	00000000 .debug_info
00000000 l    d  .debug_abbrev	00000000 .debug_abbrev
00000000 l    d  .debug_line	00000000 .debug_line
00000000 l    d  .debug_frame	00000000 .debug_frame
00000000 l    d  .debug_str	00000000 .debug_str
00000000 l    d  .debug_loc	00000000 .debug_loc
00000000 l    d  .debug_alt_sim_info	00000000 .debug_alt_sim_info
00000000 l    d  .debug_ranges	00000000 .debug_ranges
00000000 l    df *ABS*	00000000 ../nios2_sw_bsp//obj/HAL/src/crt0.o
00000260 l       .text	00000000 alt_after_alt_main
00000000 l    df *ABS*	00000000 alt_irq_handler.c
00000000 l    df *ABS*	00000000 alt_instruction_exception_entry.c
00000000 l    df *ABS*	00000000 i2c_opencores.c
00000000 l    df *ABS*	00000000 tmc_temperature_readout_main.c
000004dc l     F .text	00000038 handle_timer_interrupts
00006153 l     O .rwdata	00000001 x.3490
00000000 l    df *ABS*	00000000 lib2-divmod.c
00001a50 l     F .text	0000006c udivmodsi4
00000000 l    df *ABS*	00000000 lib2-mul.c
00000000 l    df *ABS*	00000000 atoi.c
00000000 l    df *ABS*	00000000 printf.c
00000000 l    df *ABS*	00000000 putchar.c
00000000 l    df *ABS*	00000000 puts.c
00000000 l    df *ABS*	00000000 strlen.c
00000000 l    df *ABS*	00000000 strtok.c
00000000 l    df *ABS*	00000000 strtok_r.c
00000000 l    df *ABS*	00000000 strtol.c
00000000 l    df *ABS*	00000000 vfprintf.c
000020c0 l     F .text	0000006c print_repeat
00000000 l    df *ABS*	00000000 ctype_.c
00005b85 l     O .rodata	00000180 _ctype_b
00000000 l    df *ABS*	00000000 fvwrite_small_dev.c
00000000 l    df *ABS*	00000000 impure.c
00005d5c l     O .rwdata	000000e0 impure_data
00000000 l    df *ABS*	00000000 malloc.c
00000000 l    df *ABS*	00000000 nano-mallocr.c
00000000 l    df *ABS*	00000000 nano-mallocr.c
00000000 l    df *ABS*	00000000 putc.c
00000000 l    df *ABS*	00000000 sbrkr.c
00000000 l    df *ABS*	00000000 writer.c
00000000 l    df *ABS*	00000000 int_errno.c
00000000 l    df *ABS*	00000000 alt_iic.c
00000000 l    df *ABS*	00000000 alt_iic_isr_register.c
00000000 l    df *ABS*	00000000 alt_irq_vars.c
00000000 l    df *ABS*	00000000 alt_main.c
00000000 l    df *ABS*	00000000 alt_sbrk.c
00006164 l     O .rwdata	00000004 heap_end
00000000 l    df *ABS*	00000000 alt_usleep.c
00000000 l    df *ABS*	00000000 alt_write.c
00002f4c l     F .text	00000050 alt_get_errno
00000000 l    df *ABS*	00000000 alt_sys_init.c
0000309c l     F .text	00000038 alt_dev_reg
00005e3c l     O .rwdata	0000002c jtag_uart_0
00005e68 l     O .rwdata	0000002c uart_0
00005e94 l     O .rwdata	00000100 onchip_flash_0
00000000 l    df *ABS*	00000000 altera_avalon_jtag_uart_fd.c
00000000 l    df *ABS*	00000000 altera_avalon_jtag_uart_read.c
00000000 l    df *ABS*	00000000 altera_avalon_jtag_uart_write.c
00000000 l    df *ABS*	00000000 altera_avalon_spi.c
00000000 l    df *ABS*	00000000 altera_avalon_uart_fd.c
00000000 l    df *ABS*	00000000 altera_avalon_uart_read.c
00003654 l     F .text	00000050 alt_get_errno
00000000 l    df *ABS*	00000000 altera_avalon_uart_write.c
00003768 l     F .text	00000050 alt_get_errno
00000000 l    df *ABS*	00000000 altera_onchip_flash.c
00003898 l     F .text	00000038 alt_flash_device_register
00000000 l    df *ABS*	00000000 alt_busy_sleep.c
00000000 l    df *ABS*	00000000 alt_close.c
0000491c l     F .text	00000050 alt_get_errno
00000000 l    df *ABS*	00000000 alt_dcache_flush.c
00000000 l    df *ABS*	00000000 alt_dev.c
00004a68 l     F .text	0000002c alt_dev_null_write
00000000 l    df *ABS*	00000000 alt_dev_llist_insert.c
00004a94 l     F .text	00000050 alt_get_errno
00000000 l    df *ABS*	00000000 alt_do_ctors.c
00000000 l    df *ABS*	00000000 alt_do_dtors.c
00000000 l    df *ABS*	00000000 alt_errno.c
00000000 l    df *ABS*	00000000 alt_flash_dev.c
00000000 l    df *ABS*	00000000 alt_io_redirect.c
00004d94 l     F .text	000000e0 alt_open_fd
00000000 l    df *ABS*	00000000 alt_open.c
00004eec l     F .text	00000050 alt_get_errno
00004f3c l     F .text	000000f4 alt_file_locked
00000000 l    df *ABS*	00000000 alt_release_fd.c
00000000 l    df *ABS*	00000000 altera_nios2_gen2_irq.c
00000000 l    df *ABS*	00000000 alt_find_dev.c
00000000 l    df *ABS*	00000000 alt_find_file.c
00000000 l    df *ABS*	00000000 alt_get_fd.c
00000000 l    df *ABS*	00000000 atexit.c
00000000 l    df *ABS*	00000000 exit.c
00000000 l    df *ABS*	00000000 memcmp.c
00000000 l    df *ABS*	00000000 memcpy.c
00000000 l    df *ABS*	00000000 __atexit.c
00000000 l    df *ABS*	00000000 __call_atexit.c
00000000 l    df *ABS*	00000000 alt_exit.c
000061b0 g     O .bss	00000004 alt_instruction_exception_handler
00001c4c g     F .text	00000018 putchar
00002df4 g     F .text	00000078 alt_main
00001c64 g     F .text	00000080 _puts_r
000061b4 g     O .bss	00000100 alt_irq
000062b4 g       *ABS*	00000000 __alt_heap_start
00001e6c g     F .text	00000008 strtok_r
00001bf8 g     F .text	0000004c printf
00006142 g     O .rwdata	00000001 nchan_2n2222
000008f0 g     F .text	000001ac setup_conv
00001de0 g     F .text	0000008c __strtok_r
00006190 g     O .bss	00000001 loop_done
00005210 g     F .text	00000020 altera_nios2_gen2_irq_init
00000000  w      *UND*	00000000 __errno
00080000 g     F .entry	00000000 __reset
0000619c g     O .bss	00000004 errno
000061a8 g     O .bss	00000004 alt_argv
0000e13c g       *ABS*	00000000 _gp
00002f1c g     F .text	00000030 usleep
00006149 g     O .rwdata	00000006 nchan_current
00004734 g     F .text	00000090 alt_onchip_flash_poll_for_status_write_passed
00005fbc g     O .rwdata	00000180 alt_fd_list
00001c44 g     F .text	00000008 _putchar_r
00005230 g     F .text	00000090 alt_find_dev
0000550c g     F .text	00000028 memcpy
00080000 g       *ABS*	00000000 __alt_mem_onchip_flash_0_data
00004e74 g     F .text	00000078 alt_io_redirect
00005854 g       *ABS*	00000000 __DTOR_END__
00000c80 g     F .text	00000074 read_rx_fifo_char
00001ce4 g     F .text	00000014 puts
00004cf8 g     F .text	0000009c alt_exception_cause_generated_bad_addr
00000318 g     F .text	0000009c I2C_start
00006150 g     O .rwdata	00000001 nchan_board_temp
00000610 g     F .text	00000194 ad7124_read_reg
00003218 g     F .text	000000e4 altera_avalon_jtag_uart_read
00002768 g     F .text	00000014 malloc
00001bbc g     F .text	0000003c _printf_r
00000000 g       *ABS*	00000000 __alt_mem_onchip_memory2_0
00001b6c g     F .text	00000008 .hidden __udivsi3
000046a4 g     F .text	00000090 alt_onchip_flash_poll_for_status_erase_passed
00006168 g     O .rwdata	00000008 altera_onchip_flash_list
00000cf4 g     F .text	00000108 read_rx_fifo
00002a7c g     F .text	00000050 _sbrk_r
00000eb0 g     F .text	00000140 execute_cmd
00004a44 g     F .text	00000024 alt_dcache_flush
00003a38 g     F .text	00000168 alt_onchip_flash_erase_block
00006180 g     O .rwdata	00000004 alt_max_fd
00006143 g     O .rwdata	00000006 pchan_current
00006158 g     O .rwdata	00000004 _global_impure_ptr
00000888 g     F .text	00000034 set_led
000062b4 g       *ABS*	00000000 __bss_end
00002d04 g     F .text	000000f0 alt_iic_isr_register
00002cb8 g     F .text	0000004c alt_ic_irq_enabled
0000209c g     F .text	00000024 strtol
000061a0 g     O .bss	00000004 alt_irq_active
000000fc g     F .exceptions	000000d0 alt_irq_handler
00005f94 g     O .rwdata	00000028 alt_dev_null
00006178 g     O .rwdata	00000008 alt_dev_list
00002f9c g     F .text	00000100 write
00002a24 g     F .text	00000058 _putc_r
00001b74 g     F .text	00000008 .hidden __umodsi3
00000ff0 g     F .text	000004f4 print_table
000007a4 g     F .text	000000a4 read_chan
0000613c g     O .rwdata	00000006 pchan_2n2222
000062b4 g       *ABS*	00000000 end
00001bb0 g     F .text	0000000c _atoi_r
000037b8 g     F .text	000000e0 altera_avalon_uart_write
000001cc g     F .exceptions	00000060 alt_instruction_exception_entry
00005854 g       *ABS*	00000000 __CTOR_LIST__
00008d98 g       *ABS*	00000000 __alt_stack_pointer
000035f4 g     F .text	00000060 altera_avalon_uart_write_fd
000032fc g     F .text	00000094 altera_avalon_jtag_uart_write
0000212c g     F .text	0000056c ___vfprintf_internal_r
0000399c g     F .text	0000009c alt_onchip_flash_get_info
00002790 g     F .text	000000e4 _free_r
00005684 g     F .text	0000019c __call_exitprocs
0000022c g     F .text	00000038 _start
00000848 g     F .text	00000040 flip_led
00003390 g     F .text	00000204 alt_avalon_spi_command
00003108 g     F .text	00000050 alt_sys_init
00005534 g     F .text	00000150 __register_exitproc
00001b7c g     F .text	00000028 .hidden __mulsi3
00000a9c g     F .text	000001e4 calibrate_ad7124_8
00003158 g     F .text	00000060 altera_avalon_jtag_uart_read_fd
000053d4 g     F .text	000000d4 alt_get_fd
000047c4 g     F .text	00000158 alt_busy_sleep
00001d14 g     F .text	000000cc strtok
000054dc g     F .text	00000030 memcmp
000062b4 g       *ABS*	00000000 __alt_stack_base
000038d0 g     F .text	000000cc alt_onchip_flash_read
000008bc g     F .text	00000034 clear_led
00006151 g     O .rwdata	00000001 pchan_adc_temp
000052c0 g     F .text	00000114 alt_find_file
00004ae4 g     F .text	000000a4 alt_dev_llist_insert
00002e6c g     F .text	000000b0 sbrk
00006188 g     O .rwdata	00000008 alt_flash_dev_list
000026bc g     F .text	000000ac __sfvwrite_small_dev
00006190 g       *ABS*	00000000 __bss_start
000014e4 g     F .text	0000056c main
000061ac g     O .bss	00000004 alt_envp
000031b8 g     F .text	00000060 altera_avalon_jtag_uart_write_fd
00008d98 g       *ABS*	00000000 __alt_heap_limit
00001e74 g     F .text	00000228 _strtol_r
00002874 g     F .text	0000015c _malloc_r
00006184 g     O .rwdata	00000004 alt_errno
00004614 g     F .text	00000090 alt_onchip_flash_poll_for_status_to_go_idle
000029d0 g     F .text	00000054 putc
00001abc g     F .text	00000054 .hidden __divsi3
00005854 g       *ABS*	00000000 __CTOR_END__
0000413c g     F .text	000004d8 altera_onchip_flash_init
000003b4 g     F .text	0000007c I2C_read
00005854 g       *ABS*	00000000 __DTOR_LIST__
000030d4 g     F .text	00000034 alt_irq_init
00005190 g     F .text	00000080 alt_release_fd
0000614f g     O .rwdata	00000001 pchan_board_temp
000054a8 g     F .text	00000014 atexit
00002acc g     F .text	00000058 _write_r
00000dfc g     F .text	000000b4 write_ltc2605
00000514 g     F .text	000000fc ad7124_write_reg
00006152 g     O .rwdata	00000001 nchan_adc_temp
0000615c g     O .rwdata	00000004 _impure_ptr
000061a4 g     O .bss	00000004 alt_argc
00004be4 g     F .text	0000005c _do_dtors
00000020 g       .exceptions	00000000 alt_irq_entry
00006170 g     O .rwdata	00000008 alt_fs_list
00003ba0 g     F .text	000002c4 alt_onchip_flash_write_block
00000264 g     F .text	000000b4 I2C_init
00002b24 g     F .text	00000050 alt_ic_isr_register
00006190 g       *ABS*	00000000 _edata
00003594 g     F .text	00000060 altera_avalon_uart_read_fd
00003e64 g     F .text	000002d8 alt_onchip_flash_write
000062b4 g       *ABS*	00000000 _end
00004c40 g     F .text	00000068 alt_flash_open_dev
00002c14 g     F .text	000000a4 alt_ic_irq_disable
000054bc g     F .text	00000020 exit
00004ca8 g     F .text	00000050 alt_flash_close_dev
00001b10 g     F .text	0000005c .hidden __modsi3
00006154 g     O .rwdata	00000004 __ctype_ptr__
00008d98 g       *ABS*	00000000 __alt_data_end
00000020 g     F .exceptions	00000000 alt_exception
00001ba4 g     F .text	0000000c atoi
00005a84 g     O .rodata	00000101 _ctype_
00005820 g     F .text	00000034 _exit
00001cf8 g     F .text	0000001c strlen
00005030 g     F .text	00000160 open
00006194 g     O .bss	00000004 __malloc_sbrk_start
00006160 g     O .rwdata	00000004 alt_priority_mask
00006198 g     O .bss	00000004 __malloc_free_list
00002b74 g     F .text	000000a0 alt_ic_irq_enable
00002698 g     F .text	00000024 __vfprintf_internal
000036a4 g     F .text	000000c4 altera_avalon_uart_read
00004b88 g     F .text	0000005c _do_ctors
0000496c g     F .text	000000d8 close
00000430 g     F .text	000000ac I2C_write
0000277c g     F .text	00000014 free



Disassembly of section .exceptions:

00000020 <alt_exception>:
  20:	deffed04 	addi	sp,sp,-76
  24:	dfc00015 	stw	ra,0(sp)
  28:	d8400215 	stw	at,8(sp)
  2c:	d8800315 	stw	r2,12(sp)
  30:	d8c00415 	stw	r3,16(sp)
  34:	d9000515 	stw	r4,20(sp)
  38:	d9400615 	stw	r5,24(sp)
  3c:	d9800715 	stw	r6,28(sp)
  40:	d9c00815 	stw	r7,32(sp)
  44:	000b307a 	rdctl	r5,estatus
  48:	da000915 	stw	r8,36(sp)
  4c:	da400a15 	stw	r9,40(sp)
  50:	da800b15 	stw	r10,44(sp)
  54:	dac00c15 	stw	r11,48(sp)
  58:	db000d15 	stw	r12,52(sp)
  5c:	db400e15 	stw	r13,56(sp)
  60:	db800f15 	stw	r14,60(sp)
  64:	dbc01015 	stw	r15,64(sp)
  68:	d9401115 	stw	r5,68(sp)
  6c:	ebffff04 	addi	r15,ea,-4
  70:	dbc01215 	stw	r15,72(sp)
  74:	0009313a 	rdctl	r4,ipending
  78:	2880004c 	andi	r2,r5,1
  7c:	10000326 	beq	r2,zero,8c <alt_exception+0x6c>
  80:	20000226 	beq	r4,zero,8c <alt_exception+0x6c>
  84:	00000fc0 	call	fc <alt_irq_handler>
  88:	00000706 	br	a8 <alt_exception+0x88>
  8c:	df401215 	stw	ea,72(sp)
  90:	e8bfff17 	ldw	r2,-4(ea)
  94:	e93fff04 	addi	r4,ea,-4
  98:	00001cc0 	call	1cc <alt_instruction_exception_entry>
  9c:	1000021e 	bne	r2,zero,a8 <alt_exception+0x88>
  a0:	ebffff04 	addi	r15,ea,-4
  a4:	dbc01215 	stw	r15,72(sp)
  a8:	d9401117 	ldw	r5,68(sp)
  ac:	df401217 	ldw	ea,72(sp)
  b0:	dfc00017 	ldw	ra,0(sp)
  b4:	2801707a 	wrctl	estatus,r5
  b8:	d8400217 	ldw	at,8(sp)
  bc:	d8800317 	ldw	r2,12(sp)
  c0:	d8c00417 	ldw	r3,16(sp)
  c4:	d9000517 	ldw	r4,20(sp)
  c8:	d9400617 	ldw	r5,24(sp)
  cc:	d9800717 	ldw	r6,28(sp)
  d0:	d9c00817 	ldw	r7,32(sp)
  d4:	da000917 	ldw	r8,36(sp)
  d8:	da400a17 	ldw	r9,40(sp)
  dc:	da800b17 	ldw	r10,44(sp)
  e0:	dac00c17 	ldw	r11,48(sp)
  e4:	db000d17 	ldw	r12,52(sp)
  e8:	db400e17 	ldw	r13,56(sp)
  ec:	db800f17 	ldw	r14,60(sp)
  f0:	dbc01017 	ldw	r15,64(sp)
  f4:	dec01304 	addi	sp,sp,76
  f8:	ef80083a 	eret

000000fc <alt_irq_handler>:
  fc:	defff904 	addi	sp,sp,-28
 100:	dfc00615 	stw	ra,24(sp)
 104:	df000515 	stw	fp,20(sp)
 108:	df000504 	addi	fp,sp,20
 10c:	0001883a 	nop
 110:	0005313a 	rdctl	r2,ipending
 114:	e0bffe15 	stw	r2,-8(fp)
 118:	e0bffe17 	ldw	r2,-8(fp)
 11c:	e0bffb15 	stw	r2,-20(fp)
 120:	e03ffd15 	stw	zero,-12(fp)
 124:	00800044 	movi	r2,1
 128:	e0bffc15 	stw	r2,-16(fp)
 12c:	e0fffb17 	ldw	r3,-20(fp)
 130:	e0bffc17 	ldw	r2,-16(fp)
 134:	1884703a 	and	r2,r3,r2
 138:	10001426 	beq	r2,zero,18c <alt_irq_handler+0x90>
 13c:	00800034 	movhi	r2,0
 140:	10986d04 	addi	r2,r2,25012
 144:	e0fffd17 	ldw	r3,-12(fp)
 148:	180690fa 	slli	r3,r3,3
 14c:	10c5883a 	add	r2,r2,r3
 150:	10c00017 	ldw	r3,0(r2)
 154:	00800034 	movhi	r2,0
 158:	10986d04 	addi	r2,r2,25012
 15c:	e13ffd17 	ldw	r4,-12(fp)
 160:	200890fa 	slli	r4,r4,3
 164:	21000104 	addi	r4,r4,4
 168:	1105883a 	add	r2,r2,r4
 16c:	10800017 	ldw	r2,0(r2)
 170:	1009883a 	mov	r4,r2
 174:	183ee83a 	callr	r3
 178:	0001883a 	nop
 17c:	0005313a 	rdctl	r2,ipending
 180:	e0bfff15 	stw	r2,-4(fp)
 184:	e0bfff17 	ldw	r2,-4(fp)
 188:	00000706 	br	1a8 <alt_irq_handler+0xac>
 18c:	e0bffc17 	ldw	r2,-16(fp)
 190:	1085883a 	add	r2,r2,r2
 194:	e0bffc15 	stw	r2,-16(fp)
 198:	e0bffd17 	ldw	r2,-12(fp)
 19c:	10800044 	addi	r2,r2,1
 1a0:	e0bffd15 	stw	r2,-12(fp)
 1a4:	003fe106 	br	12c <alt_irq_handler+0x30>
 1a8:	e0bffb15 	stw	r2,-20(fp)
 1ac:	e0bffb17 	ldw	r2,-20(fp)
 1b0:	103fdb1e 	bne	r2,zero,120 <alt_irq_handler+0x24>
 1b4:	0001883a 	nop
 1b8:	e037883a 	mov	sp,fp
 1bc:	dfc00117 	ldw	ra,4(sp)
 1c0:	df000017 	ldw	fp,0(sp)
 1c4:	dec00204 	addi	sp,sp,8
 1c8:	f800283a 	ret

000001cc <alt_instruction_exception_entry>:
 1cc:	defffb04 	addi	sp,sp,-20
 1d0:	dfc00415 	stw	ra,16(sp)
 1d4:	df000315 	stw	fp,12(sp)
 1d8:	df000304 	addi	fp,sp,12
 1dc:	e13fff15 	stw	r4,-4(fp)
 1e0:	00bfffc4 	movi	r2,-1
 1e4:	e0bffd15 	stw	r2,-12(fp)
 1e8:	e03ffe15 	stw	zero,-8(fp)
 1ec:	d0a01d17 	ldw	r2,-32652(gp)
 1f0:	10000726 	beq	r2,zero,210 <alt_instruction_exception_entry+0x44>
 1f4:	d0a01d17 	ldw	r2,-32652(gp)
 1f8:	e0fffd17 	ldw	r3,-12(fp)
 1fc:	1809883a 	mov	r4,r3
 200:	e17fff17 	ldw	r5,-4(fp)
 204:	e1bffe17 	ldw	r6,-8(fp)
 208:	103ee83a 	callr	r2
 20c:	00000206 	br	218 <alt_instruction_exception_entry+0x4c>
 210:	003da03a 	break	0
 214:	0005883a 	mov	r2,zero
 218:	e037883a 	mov	sp,fp
 21c:	dfc00117 	ldw	ra,4(sp)
 220:	df000017 	ldw	fp,0(sp)
 224:	dec00204 	addi	sp,sp,8
 228:	f800283a 	ret

Disassembly of section .text:

0000022c <_start>:
     22c:	06c00034 	movhi	sp,0
     230:	dee36614 	ori	sp,sp,36248
     234:	06800034 	movhi	gp,0
     238:	d6b84f14 	ori	gp,gp,57660
     23c:	00800034 	movhi	r2,0
     240:	10986414 	ori	r2,r2,24976
     244:	00c00034 	movhi	r3,0
     248:	18d8ad14 	ori	r3,r3,25268
     24c:	10c00326 	beq	r2,r3,25c <_start+0x30>
     250:	10000015 	stw	zero,0(r2)
     254:	10800104 	addi	r2,r2,4
     258:	10fffd36 	bltu	r2,r3,250 <_start+0x24>
     25c:	0002df40 	call	2df4 <alt_main>

00000260 <alt_after_alt_main>:
     260:	003fff06 	br	260 <alt_after_alt_main>

00000264 <I2C_init>:
     264:	defffa04 	addi	sp,sp,-24
     268:	dfc00515 	stw	ra,20(sp)
     26c:	df000415 	stw	fp,16(sp)
     270:	df000404 	addi	fp,sp,16
     274:	e13ffd15 	stw	r4,-12(fp)
     278:	e17ffe15 	stw	r5,-8(fp)
     27c:	e1bfff15 	stw	r6,-4(fp)
     280:	e13fff17 	ldw	r4,-4(fp)
     284:	01400144 	movi	r5,5
     288:	0001b7c0 	call	1b7c <__mulsi3>
     28c:	e13ffe17 	ldw	r4,-8(fp)
     290:	100b883a 	mov	r5,r2
     294:	0001b6c0 	call	1b6c <__udivsi3>
     298:	10bfffc4 	addi	r2,r2,-1
     29c:	e0bffc15 	stw	r2,-16(fp)
     2a0:	e0bffd17 	ldw	r2,-12(fp)
     2a4:	10800204 	addi	r2,r2,8
     2a8:	0007883a 	mov	r3,zero
     2ac:	10c00035 	stwio	r3,0(r2)
     2b0:	e0bffd17 	ldw	r2,-12(fp)
     2b4:	10800404 	addi	r2,r2,16
     2b8:	1007883a 	mov	r3,r2
     2bc:	00800044 	movi	r2,1
     2c0:	18800035 	stwio	r2,0(r3)
     2c4:	e0bffd17 	ldw	r2,-12(fp)
     2c8:	e0fffc17 	ldw	r3,-16(fp)
     2cc:	18c03fcc 	andi	r3,r3,255
     2d0:	10c00035 	stwio	r3,0(r2)
     2d4:	e0bffd17 	ldw	r2,-12(fp)
     2d8:	10800104 	addi	r2,r2,4
     2dc:	1007883a 	mov	r3,r2
     2e0:	e0bffc17 	ldw	r2,-16(fp)
     2e4:	1004d23a 	srli	r2,r2,8
     2e8:	10803fcc 	andi	r2,r2,255
     2ec:	18800035 	stwio	r2,0(r3)
     2f0:	e0bffd17 	ldw	r2,-12(fp)
     2f4:	10800204 	addi	r2,r2,8
     2f8:	1007883a 	mov	r3,r2
     2fc:	00802004 	movi	r2,128
     300:	18800035 	stwio	r2,0(r3)
     304:	e037883a 	mov	sp,fp
     308:	dfc00117 	ldw	ra,4(sp)
     30c:	df000017 	ldw	fp,0(sp)
     310:	dec00204 	addi	sp,sp,8
     314:	f800283a 	ret

00000318 <I2C_start>:
     318:	defffc04 	addi	sp,sp,-16
     31c:	df000315 	stw	fp,12(sp)
     320:	df000304 	addi	fp,sp,12
     324:	e13ffd15 	stw	r4,-12(fp)
     328:	e17ffe15 	stw	r5,-8(fp)
     32c:	e1bfff15 	stw	r6,-4(fp)
     330:	e0bffd17 	ldw	r2,-12(fp)
     334:	10800304 	addi	r2,r2,12
     338:	1007883a 	mov	r3,r2
     33c:	e0bffe17 	ldw	r2,-8(fp)
     340:	1085883a 	add	r2,r2,r2
     344:	1009883a 	mov	r4,r2
     348:	e0bfff17 	ldw	r2,-4(fp)
     34c:	1080004c 	andi	r2,r2,1
     350:	2085883a 	add	r2,r4,r2
     354:	18800035 	stwio	r2,0(r3)
     358:	e0bffd17 	ldw	r2,-12(fp)
     35c:	10800404 	addi	r2,r2,16
     360:	1007883a 	mov	r3,r2
     364:	00802404 	movi	r2,144
     368:	18800035 	stwio	r2,0(r3)
     36c:	0001883a 	nop
     370:	e0bffd17 	ldw	r2,-12(fp)
     374:	10800404 	addi	r2,r2,16
     378:	10800037 	ldwio	r2,0(r2)
     37c:	1080008c 	andi	r2,r2,2
     380:	103ffb1e 	bne	r2,zero,370 <I2C_start+0x58>
     384:	e0bffd17 	ldw	r2,-12(fp)
     388:	10800404 	addi	r2,r2,16
     38c:	10800037 	ldwio	r2,0(r2)
     390:	1080200c 	andi	r2,r2,128
     394:	10000226 	beq	r2,zero,3a0 <I2C_start+0x88>
     398:	00800044 	movi	r2,1
     39c:	00000106 	br	3a4 <I2C_start+0x8c>
     3a0:	0005883a 	mov	r2,zero
     3a4:	e037883a 	mov	sp,fp
     3a8:	df000017 	ldw	fp,0(sp)
     3ac:	dec00104 	addi	sp,sp,4
     3b0:	f800283a 	ret

000003b4 <I2C_read>:
     3b4:	defffd04 	addi	sp,sp,-12
     3b8:	df000215 	stw	fp,8(sp)
     3bc:	df000204 	addi	fp,sp,8
     3c0:	e13ffe15 	stw	r4,-8(fp)
     3c4:	e17fff15 	stw	r5,-4(fp)
     3c8:	e0bfff17 	ldw	r2,-4(fp)
     3cc:	10000626 	beq	r2,zero,3e8 <I2C_read+0x34>
     3d0:	e0bffe17 	ldw	r2,-8(fp)
     3d4:	10800404 	addi	r2,r2,16
     3d8:	1007883a 	mov	r3,r2
     3dc:	00801a04 	movi	r2,104
     3e0:	18800035 	stwio	r2,0(r3)
     3e4:	00000506 	br	3fc <I2C_read+0x48>
     3e8:	e0bffe17 	ldw	r2,-8(fp)
     3ec:	10800404 	addi	r2,r2,16
     3f0:	1007883a 	mov	r3,r2
     3f4:	00800804 	movi	r2,32
     3f8:	18800035 	stwio	r2,0(r3)
     3fc:	0001883a 	nop
     400:	e0bffe17 	ldw	r2,-8(fp)
     404:	10800404 	addi	r2,r2,16
     408:	10800037 	ldwio	r2,0(r2)
     40c:	1080008c 	andi	r2,r2,2
     410:	103ffb1e 	bne	r2,zero,400 <I2C_read+0x4c>
     414:	e0bffe17 	ldw	r2,-8(fp)
     418:	10800304 	addi	r2,r2,12
     41c:	10800037 	ldwio	r2,0(r2)
     420:	e037883a 	mov	sp,fp
     424:	df000017 	ldw	fp,0(sp)
     428:	dec00104 	addi	sp,sp,4
     42c:	f800283a 	ret

00000430 <I2C_write>:
     430:	defffc04 	addi	sp,sp,-16
     434:	df000315 	stw	fp,12(sp)
     438:	df000304 	addi	fp,sp,12
     43c:	e13ffd15 	stw	r4,-12(fp)
     440:	2805883a 	mov	r2,r5
     444:	e1bfff15 	stw	r6,-4(fp)
     448:	e0bffe05 	stb	r2,-8(fp)
     44c:	e0bffd17 	ldw	r2,-12(fp)
     450:	10800304 	addi	r2,r2,12
     454:	1007883a 	mov	r3,r2
     458:	e0bffe03 	ldbu	r2,-8(fp)
     45c:	18800035 	stwio	r2,0(r3)
     460:	e0bfff17 	ldw	r2,-4(fp)
     464:	10000626 	beq	r2,zero,480 <I2C_write+0x50>
     468:	e0bffd17 	ldw	r2,-12(fp)
     46c:	10800404 	addi	r2,r2,16
     470:	1007883a 	mov	r3,r2
     474:	00801404 	movi	r2,80
     478:	18800035 	stwio	r2,0(r3)
     47c:	00000506 	br	494 <I2C_write+0x64>
     480:	e0bffd17 	ldw	r2,-12(fp)
     484:	10800404 	addi	r2,r2,16
     488:	1007883a 	mov	r3,r2
     48c:	00800404 	movi	r2,16
     490:	18800035 	stwio	r2,0(r3)
     494:	0001883a 	nop
     498:	e0bffd17 	ldw	r2,-12(fp)
     49c:	10800404 	addi	r2,r2,16
     4a0:	10800037 	ldwio	r2,0(r2)
     4a4:	1080008c 	andi	r2,r2,2
     4a8:	103ffb1e 	bne	r2,zero,498 <I2C_write+0x68>
     4ac:	e0bffd17 	ldw	r2,-12(fp)
     4b0:	10800404 	addi	r2,r2,16
     4b4:	10800037 	ldwio	r2,0(r2)
     4b8:	1080200c 	andi	r2,r2,128
     4bc:	10000226 	beq	r2,zero,4c8 <I2C_write+0x98>
     4c0:	00800044 	movi	r2,1
     4c4:	00000106 	br	4cc <I2C_write+0x9c>
     4c8:	0005883a 	mov	r2,zero
     4cc:	e037883a 	mov	sp,fp
     4d0:	df000017 	ldw	fp,0(sp)
     4d4:	dec00104 	addi	sp,sp,4
     4d8:	f800283a 	ret

000004dc <handle_timer_interrupts>:
     4dc:	defffe04 	addi	sp,sp,-8
     4e0:	df000115 	stw	fp,4(sp)
     4e4:	df000104 	addi	fp,sp,4
     4e8:	e13fff15 	stw	r4,-4(fp)
     4ec:	0007883a 	mov	r3,zero
     4f0:	00800134 	movhi	r2,4
     4f4:	10824004 	addi	r2,r2,2304
     4f8:	10c00035 	stwio	r3,0(r2)
     4fc:	00800044 	movi	r2,1
     500:	d0a01505 	stb	r2,-32684(gp)
     504:	e037883a 	mov	sp,fp
     508:	df000017 	ldw	fp,0(sp)
     50c:	dec00104 	addi	sp,sp,4
     510:	f800283a 	ret

00000514 <ad7124_write_reg>:
     514:	defff504 	addi	sp,sp,-44
     518:	dfc00a15 	stw	ra,40(sp)
     51c:	df000915 	stw	fp,36(sp)
     520:	df000904 	addi	fp,sp,36
     524:	2807883a 	mov	r3,r5
     528:	e1bffe15 	stw	r6,-8(fp)
     52c:	3805883a 	mov	r2,r7
     530:	e13ffc05 	stb	r4,-16(fp)
     534:	e0fffd05 	stb	r3,-12(fp)
     538:	e0bfff05 	stb	r2,-4(fp)
     53c:	e03ffa05 	stb	zero,-24(fp)
     540:	e0bffd03 	ldbu	r2,-12(fp)
     544:	10800fcc 	andi	r2,r2,63
     548:	e0bffa45 	stb	r2,-23(fp)
     54c:	e03ffa05 	stb	zero,-24(fp)
     550:	00001906 	br	5b8 <ad7124_write_reg+0xa4>
     554:	e0fffa03 	ldbu	r3,-24(fp)
     558:	e0bfff03 	ldbu	r2,-4(fp)
     55c:	18800e2e 	bgeu	r3,r2,598 <ad7124_write_reg+0x84>
     560:	e0bffa03 	ldbu	r2,-24(fp)
     564:	10800044 	addi	r2,r2,1
     568:	e13fff03 	ldbu	r4,-4(fp)
     56c:	e0fffa03 	ldbu	r3,-24(fp)
     570:	20c7c83a 	sub	r3,r4,r3
     574:	18ffffc4 	addi	r3,r3,-1
     578:	180690fa 	slli	r3,r3,3
     57c:	e13ffe17 	ldw	r4,-8(fp)
     580:	20c6d83a 	srl	r3,r4,r3
     584:	1809883a 	mov	r4,r3
     588:	e0fffa44 	addi	r3,fp,-23
     58c:	1885883a 	add	r2,r3,r2
     590:	11000005 	stb	r4,0(r2)
     594:	00000506 	br	5ac <ad7124_write_reg+0x98>
     598:	e0bffa03 	ldbu	r2,-24(fp)
     59c:	10800044 	addi	r2,r2,1
     5a0:	e0fffa44 	addi	r3,fp,-23
     5a4:	1885883a 	add	r2,r3,r2
     5a8:	10000005 	stb	zero,0(r2)
     5ac:	e0bffa03 	ldbu	r2,-24(fp)
     5b0:	10800044 	addi	r2,r2,1
     5b4:	e0bffa05 	stb	r2,-24(fp)
     5b8:	e0bffa03 	ldbu	r2,-24(fp)
     5bc:	10800130 	cmpltui	r2,r2,4
     5c0:	103fe41e 	bne	r2,zero,554 <ad7124_write_reg+0x40>
     5c4:	e0fffc03 	ldbu	r3,-16(fp)
     5c8:	e0bfff03 	ldbu	r2,-4(fp)
     5cc:	10800044 	addi	r2,r2,1
     5d0:	100d883a 	mov	r6,r2
     5d4:	e0bffa44 	addi	r2,fp,-23
     5d8:	d8000015 	stw	zero,0(sp)
     5dc:	d8000115 	stw	zero,4(sp)
     5e0:	d8000215 	stw	zero,8(sp)
     5e4:	01000134 	movhi	r4,4
     5e8:	21020804 	addi	r4,r4,2080
     5ec:	180b883a 	mov	r5,r3
     5f0:	100f883a 	mov	r7,r2
     5f4:	00033900 	call	3390 <alt_avalon_spi_command>
     5f8:	0005883a 	mov	r2,zero
     5fc:	e037883a 	mov	sp,fp
     600:	dfc00117 	ldw	ra,4(sp)
     604:	df000017 	ldw	fp,0(sp)
     608:	dec00204 	addi	sp,sp,8
     60c:	f800283a 	ret

00000610 <ad7124_read_reg>:
     610:	defff504 	addi	sp,sp,-44
     614:	dfc00a15 	stw	ra,40(sp)
     618:	df000915 	stw	fp,36(sp)
     61c:	df000904 	addi	fp,sp,36
     620:	2807883a 	mov	r3,r5
     624:	e1bffe15 	stw	r6,-8(fp)
     628:	3805883a 	mov	r2,r7
     62c:	e13ffc05 	stb	r4,-16(fp)
     630:	e0fffd05 	stb	r3,-12(fp)
     634:	e0bfff05 	stb	r2,-4(fp)
     638:	e03ffa45 	stb	zero,-23(fp)
     63c:	e03ffa05 	stb	zero,-24(fp)
     640:	e0bffd03 	ldbu	r2,-12(fp)
     644:	10800fcc 	andi	r2,r2,63
     648:	10801014 	ori	r2,r2,64
     64c:	e0bffa85 	stb	r2,-22(fp)
     650:	e17ffc03 	ldbu	r5,-16(fp)
     654:	e0bfff03 	ldbu	r2,-4(fp)
     658:	e0fffa84 	addi	r3,fp,-22
     65c:	d8800015 	stw	r2,0(sp)
     660:	e0bffac4 	addi	r2,fp,-21
     664:	d8800115 	stw	r2,4(sp)
     668:	d8000215 	stw	zero,8(sp)
     66c:	01000134 	movhi	r4,4
     670:	21020804 	addi	r4,r4,2080
     674:	01800044 	movi	r6,1
     678:	180f883a 	mov	r7,r3
     67c:	00033900 	call	3390 <alt_avalon_spi_command>
     680:	e0bffa45 	stb	r2,-23(fp)
     684:	e0bffe17 	ldw	r2,-8(fp)
     688:	10000015 	stw	zero,0(r2)
     68c:	e03ffa05 	stb	zero,-24(fp)
     690:	00001306 	br	6e0 <ad7124_read_reg+0xd0>
     694:	e0bffe17 	ldw	r2,-8(fp)
     698:	10c00017 	ldw	r3,0(r2)
     69c:	e0bffa03 	ldbu	r2,-24(fp)
     6a0:	e13ffac4 	addi	r4,fp,-21
     6a4:	2085883a 	add	r2,r4,r2
     6a8:	10800003 	ldbu	r2,0(r2)
     6ac:	11003fcc 	andi	r4,r2,255
     6b0:	e17fff03 	ldbu	r5,-4(fp)
     6b4:	e0bffa03 	ldbu	r2,-24(fp)
     6b8:	2885c83a 	sub	r2,r5,r2
     6bc:	10bfffc4 	addi	r2,r2,-1
     6c0:	100490fa 	slli	r2,r2,3
     6c4:	2084983a 	sll	r2,r4,r2
     6c8:	1886b03a 	or	r3,r3,r2
     6cc:	e0bffe17 	ldw	r2,-8(fp)
     6d0:	10c00015 	stw	r3,0(r2)
     6d4:	e0bffa03 	ldbu	r2,-24(fp)
     6d8:	10800044 	addi	r2,r2,1
     6dc:	e0bffa05 	stb	r2,-24(fp)
     6e0:	e0fffa03 	ldbu	r3,-24(fp)
     6e4:	e0bfff03 	ldbu	r2,-4(fp)
     6e8:	18bfea36 	bltu	r3,r2,694 <ad7124_read_reg+0x84>
     6ec:	e0bfff03 	ldbu	r2,-4(fp)
     6f0:	10c000a0 	cmpeqi	r3,r2,2
     6f4:	1800101e 	bne	r3,zero,738 <ad7124_read_reg+0x128>
     6f8:	10c000c8 	cmpgei	r3,r2,3
     6fc:	1800031e 	bne	r3,zero,70c <ad7124_read_reg+0xfc>
     700:	10800060 	cmpeqi	r2,r2,1
     704:	1000061e 	bne	r2,zero,720 <ad7124_read_reg+0x110>
     708:	00001e06 	br	784 <ad7124_read_reg+0x174>
     70c:	10c000e0 	cmpeqi	r3,r2,3
     710:	18000f1e 	bne	r3,zero,750 <ad7124_read_reg+0x140>
     714:	10800120 	cmpeqi	r2,r2,4
     718:	1000151e 	bne	r2,zero,770 <ad7124_read_reg+0x160>
     71c:	00001906 	br	784 <ad7124_read_reg+0x174>
     720:	e0bffe17 	ldw	r2,-8(fp)
     724:	10800017 	ldw	r2,0(r2)
     728:	10c03fcc 	andi	r3,r2,255
     72c:	e0bffe17 	ldw	r2,-8(fp)
     730:	10c00015 	stw	r3,0(r2)
     734:	00001506 	br	78c <ad7124_read_reg+0x17c>
     738:	e0bffe17 	ldw	r2,-8(fp)
     73c:	10800017 	ldw	r2,0(r2)
     740:	10ffffcc 	andi	r3,r2,65535
     744:	e0bffe17 	ldw	r2,-8(fp)
     748:	10c00015 	stw	r3,0(r2)
     74c:	00000f06 	br	78c <ad7124_read_reg+0x17c>
     750:	e0bffe17 	ldw	r2,-8(fp)
     754:	10c00017 	ldw	r3,0(r2)
     758:	00804034 	movhi	r2,256
     75c:	10bfffc4 	addi	r2,r2,-1
     760:	1886703a 	and	r3,r3,r2
     764:	e0bffe17 	ldw	r2,-8(fp)
     768:	10c00015 	stw	r3,0(r2)
     76c:	00000706 	br	78c <ad7124_read_reg+0x17c>
     770:	e0bffe17 	ldw	r2,-8(fp)
     774:	10c00017 	ldw	r3,0(r2)
     778:	e0bffe17 	ldw	r2,-8(fp)
     77c:	10c00015 	stw	r3,0(r2)
     780:	00000206 	br	78c <ad7124_read_reg+0x17c>
     784:	e0bffe17 	ldw	r2,-8(fp)
     788:	10000015 	stw	zero,0(r2)
     78c:	e0bffa43 	ldbu	r2,-23(fp)
     790:	e037883a 	mov	sp,fp
     794:	dfc00117 	ldw	ra,4(sp)
     798:	df000017 	ldw	fp,0(sp)
     79c:	dec00204 	addi	sp,sp,8
     7a0:	f800283a 	ret

000007a4 <read_chan>:
     7a4:	defff904 	addi	sp,sp,-28
     7a8:	dfc00615 	stw	ra,24(sp)
     7ac:	df000515 	stw	fp,20(sp)
     7b0:	df000504 	addi	fp,sp,20
     7b4:	e13ffd15 	stw	r4,-12(fp)
     7b8:	e17ffe15 	stw	r5,-8(fp)
     7bc:	3005883a 	mov	r2,r6
     7c0:	e0bfff05 	stb	r2,-4(fp)
     7c4:	e03ffb05 	stb	zero,-20(fp)
     7c8:	e03ffc15 	stw	zero,-16(fp)
     7cc:	e03ffb05 	stb	zero,-20(fp)
     7d0:	00001406 	br	824 <read_chan+0x80>
     7d4:	e03ffc15 	stw	zero,-16(fp)
     7d8:	e13ffb03 	ldbu	r4,-20(fp)
     7dc:	e0bffe17 	ldw	r2,-8(fp)
     7e0:	11403fcc 	andi	r5,r2,255
     7e4:	e0bfff03 	ldbu	r2,-4(fp)
     7e8:	e0fffc04 	addi	r3,fp,-16
     7ec:	180d883a 	mov	r6,r3
     7f0:	100f883a 	mov	r7,r2
     7f4:	00006100 	call	610 <ad7124_read_reg>
     7f8:	e0bffb03 	ldbu	r2,-20(fp)
     7fc:	1085883a 	add	r2,r2,r2
     800:	1085883a 	add	r2,r2,r2
     804:	1007883a 	mov	r3,r2
     808:	e0bffd17 	ldw	r2,-12(fp)
     80c:	10c5883a 	add	r2,r2,r3
     810:	e0fffc17 	ldw	r3,-16(fp)
     814:	10c00015 	stw	r3,0(r2)
     818:	e0bffb03 	ldbu	r2,-20(fp)
     81c:	10800044 	addi	r2,r2,1
     820:	e0bffb05 	stb	r2,-20(fp)
     824:	e0bffb03 	ldbu	r2,-20(fp)
     828:	10800330 	cmpltui	r2,r2,12
     82c:	103fe91e 	bne	r2,zero,7d4 <read_chan+0x30>
     830:	0005883a 	mov	r2,zero
     834:	e037883a 	mov	sp,fp
     838:	dfc00117 	ldw	ra,4(sp)
     83c:	df000017 	ldw	fp,0(sp)
     840:	dec00204 	addi	sp,sp,8
     844:	f800283a 	ret

00000848 <flip_led>:
     848:	deffff04 	addi	sp,sp,-4
     84c:	df000015 	stw	fp,0(sp)
     850:	d839883a 	mov	fp,sp
     854:	d0a005c3 	ldbu	r2,-32745(gp)
     858:	10c03fcc 	andi	r3,r2,255
     85c:	00800134 	movhi	r2,4
     860:	10821c04 	addi	r2,r2,2160
     864:	10c00035 	stwio	r3,0(r2)
     868:	d0e005c3 	ldbu	r3,-32745(gp)
     86c:	00bfe004 	movi	r2,-128
     870:	1884f03a 	xor	r2,r3,r2
     874:	d0a005c5 	stb	r2,-32745(gp)
     878:	e037883a 	mov	sp,fp
     87c:	df000017 	ldw	fp,0(sp)
     880:	dec00104 	addi	sp,sp,4
     884:	f800283a 	ret

00000888 <set_led>:
     888:	defffe04 	addi	sp,sp,-8
     88c:	df000115 	stw	fp,4(sp)
     890:	df000104 	addi	fp,sp,4
     894:	00801fc4 	movi	r2,127
     898:	e0bfff05 	stb	r2,-4(fp)
     89c:	e0ffff03 	ldbu	r3,-4(fp)
     8a0:	00800134 	movhi	r2,4
     8a4:	10821c04 	addi	r2,r2,2160
     8a8:	10c00035 	stwio	r3,0(r2)
     8ac:	e037883a 	mov	sp,fp
     8b0:	df000017 	ldw	fp,0(sp)
     8b4:	dec00104 	addi	sp,sp,4
     8b8:	f800283a 	ret

000008bc <clear_led>:
     8bc:	defffe04 	addi	sp,sp,-8
     8c0:	df000115 	stw	fp,4(sp)
     8c4:	df000104 	addi	fp,sp,4
     8c8:	00bfffc4 	movi	r2,-1
     8cc:	e0bfff05 	stb	r2,-4(fp)
     8d0:	e0ffff03 	ldbu	r3,-4(fp)
     8d4:	00800134 	movhi	r2,4
     8d8:	10821c04 	addi	r2,r2,2160
     8dc:	10c00035 	stwio	r3,0(r2)
     8e0:	e037883a 	mov	sp,fp
     8e4:	df000017 	ldw	fp,0(sp)
     8e8:	dec00104 	addi	sp,sp,4
     8ec:	f800283a 	ret

000008f0 <setup_conv>:
     8f0:	defff504 	addi	sp,sp,-44
     8f4:	dfc00a15 	stw	ra,40(sp)
     8f8:	df000915 	stw	fp,36(sp)
     8fc:	df000904 	addi	fp,sp,36
     900:	2015883a 	mov	r10,r4
     904:	2813883a 	mov	r9,r5
     908:	3011883a 	mov	r8,r6
     90c:	380d883a 	mov	r6,r7
     910:	e1400217 	ldw	r5,8(fp)
     914:	e1000317 	ldw	r4,12(fp)
     918:	e0c00417 	ldw	r3,16(fp)
     91c:	e0800517 	ldw	r2,20(fp)
     920:	e2bff805 	stb	r10,-32(fp)
     924:	e27ff905 	stb	r9,-28(fp)
     928:	e23ffa05 	stb	r8,-24(fp)
     92c:	e1bffb05 	stb	r6,-20(fp)
     930:	e17ffc0d 	sth	r5,-16(fp)
     934:	e13ffd05 	stb	r4,-12(fp)
     938:	e0fffe05 	stb	r3,-8(fp)
     93c:	e0bfff05 	stb	r2,-4(fp)
     940:	e03ff715 	stw	zero,-36(fp)
     944:	e0bff903 	ldbu	r2,-28(fp)
     948:	108007cc 	andi	r2,r2,31
     94c:	1004917a 	slli	r2,r2,5
     950:	10e00014 	ori	r3,r2,32768
     954:	e0bffa03 	ldbu	r2,-24(fp)
     958:	108007cc 	andi	r2,r2,31
     95c:	1884b03a 	or	r2,r3,r2
     960:	e0bff715 	stw	r2,-36(fp)
     964:	e0fff803 	ldbu	r3,-32(fp)
     968:	e0bff717 	ldw	r2,-36(fp)
     96c:	1809883a 	mov	r4,r3
     970:	01400244 	movi	r5,9
     974:	100d883a 	mov	r6,r2
     978:	01c00084 	movi	r7,2
     97c:	00005140 	call	514 <ad7124_write_reg>
     980:	e0bffb03 	ldbu	r2,-20(fp)
     984:	108001cc 	andi	r2,r2,7
     988:	10827814 	ori	r2,r2,2528
     98c:	e0bff715 	stw	r2,-36(fp)
     990:	e0fff803 	ldbu	r3,-32(fp)
     994:	e0bff717 	ldw	r2,-36(fp)
     998:	1809883a 	mov	r4,r3
     99c:	01400644 	movi	r5,25
     9a0:	100d883a 	mov	r6,r2
     9a4:	01c00084 	movi	r7,2
     9a8:	00005140 	call	514 <ad7124_write_reg>
     9ac:	e0bffc0b 	ldhu	r2,-16(fp)
     9b0:	1081ffcc 	andi	r2,r2,2047
     9b4:	108005b4 	orhi	r2,r2,22
     9b8:	e0bff715 	stw	r2,-36(fp)
     9bc:	e0fff803 	ldbu	r3,-32(fp)
     9c0:	e0bff717 	ldw	r2,-36(fp)
     9c4:	1809883a 	mov	r4,r3
     9c8:	01400844 	movi	r5,33
     9cc:	100d883a 	mov	r6,r2
     9d0:	01c000c4 	movi	r7,3
     9d4:	00005140 	call	514 <ad7124_write_reg>
     9d8:	e0bfff03 	ldbu	r2,-4(fp)
     9dc:	10000926 	beq	r2,zero,a04 <setup_conv+0x114>
     9e0:	00802034 	movhi	r2,128
     9e4:	e0bff715 	stw	r2,-36(fp)
     9e8:	e0fff803 	ldbu	r3,-32(fp)
     9ec:	e0bff717 	ldw	r2,-36(fp)
     9f0:	1809883a 	mov	r4,r3
     9f4:	01400a44 	movi	r5,41
     9f8:	100d883a 	mov	r6,r2
     9fc:	01c000c4 	movi	r7,3
     a00:	00005140 	call	514 <ad7124_write_reg>
     a04:	008001f4 	movhi	r2,7
     a08:	10820604 	addi	r2,r2,2072
     a0c:	e0bff715 	stw	r2,-36(fp)
     a10:	e0fff803 	ldbu	r3,-32(fp)
     a14:	e0bff717 	ldw	r2,-36(fp)
     a18:	1809883a 	mov	r4,r3
     a1c:	014001c4 	movi	r5,7
     a20:	100d883a 	mov	r6,r2
     a24:	01c000c4 	movi	r7,3
     a28:	00005140 	call	514 <ad7124_write_reg>
     a2c:	e0bffd03 	ldbu	r2,-12(fp)
     a30:	100491ba 	slli	r2,r2,6
     a34:	10c03fcc 	andi	r3,r2,255
     a38:	e0bffe03 	ldbu	r2,-8(fp)
     a3c:	108003cc 	andi	r2,r2,15
     a40:	1085883a 	add	r2,r2,r2
     a44:	1085883a 	add	r2,r2,r2
     a48:	1884b03a 	or	r2,r3,r2
     a4c:	e0bff715 	stw	r2,-36(fp)
     a50:	e0fff803 	ldbu	r3,-32(fp)
     a54:	e0bff717 	ldw	r2,-36(fp)
     a58:	1809883a 	mov	r4,r3
     a5c:	01400044 	movi	r5,1
     a60:	100d883a 	mov	r6,r2
     a64:	01c00084 	movi	r7,2
     a68:	00005140 	call	514 <ad7124_write_reg>
     a6c:	e0bff803 	ldbu	r2,-32(fp)
     a70:	1009883a 	mov	r4,r2
     a74:	01400184 	movi	r5,6
     a78:	e1bff704 	addi	r6,fp,-36
     a7c:	01c000c4 	movi	r7,3
     a80:	00006100 	call	610 <ad7124_read_reg>
     a84:	0005883a 	mov	r2,zero
     a88:	e037883a 	mov	sp,fp
     a8c:	dfc00117 	ldw	ra,4(sp)
     a90:	df000017 	ldw	fp,0(sp)
     a94:	dec00204 	addi	sp,sp,8
     a98:	f800283a 	ret

00000a9c <calibrate_ad7124_8>:
     a9c:	defff804 	addi	sp,sp,-32
     aa0:	dfc00715 	stw	ra,28(sp)
     aa4:	df000615 	stw	fp,24(sp)
     aa8:	df000604 	addi	fp,sp,24
     aac:	e03fff15 	stw	zero,-4(fp)
     ab0:	e03ffe05 	stb	zero,-8(fp)
     ab4:	01000034 	movhi	r4,0
     ab8:	21161504 	addi	r4,r4,22612
     abc:	0001bf80 	call	1bf8 <printf>
     ac0:	01000034 	movhi	r4,0
     ac4:	21161804 	addi	r4,r4,22624
     ac8:	0001ce40 	call	1ce4 <puts>
     acc:	e03ffe05 	stb	zero,-8(fp)
     ad0:	00001106 	br	b18 <calibrate_ad7124_8+0x7c>
     ad4:	e0fffe03 	ldbu	r3,-8(fp)
     ad8:	0081ffc4 	movi	r2,2047
     adc:	d8800015 	stw	r2,0(sp)
     ae0:	00800044 	movi	r2,1
     ae4:	d8800115 	stw	r2,4(sp)
     ae8:	00800184 	movi	r2,6
     aec:	d8800215 	stw	r2,8(sp)
     af0:	00800044 	movi	r2,1
     af4:	d8800315 	stw	r2,12(sp)
     af8:	1809883a 	mov	r4,r3
     afc:	01400204 	movi	r5,8
     b00:	018001c4 	movi	r6,7
     b04:	01c00084 	movi	r7,2
     b08:	00008f00 	call	8f0 <setup_conv>
     b0c:	e0bffe03 	ldbu	r2,-8(fp)
     b10:	10800044 	addi	r2,r2,1
     b14:	e0bffe05 	stb	r2,-8(fp)
     b18:	e0bffe03 	ldbu	r2,-8(fp)
     b1c:	10800330 	cmpltui	r2,r2,12
     b20:	103fec1e 	bne	r2,zero,ad4 <calibrate_ad7124_8+0x38>
     b24:	01001eb4 	movhi	r4,122
     b28:	21048004 	addi	r4,r4,4608
     b2c:	0002f1c0 	call	2f1c <usleep>
     b30:	e03ffe05 	stb	zero,-8(fp)
     b34:	00001006 	br	b78 <calibrate_ad7124_8+0xdc>
     b38:	e0fffe03 	ldbu	r3,-8(fp)
     b3c:	0081ffc4 	movi	r2,2047
     b40:	d8800015 	stw	r2,0(sp)
     b44:	00800044 	movi	r2,1
     b48:	d8800115 	stw	r2,4(sp)
     b4c:	00800144 	movi	r2,5
     b50:	d8800215 	stw	r2,8(sp)
     b54:	d8000315 	stw	zero,12(sp)
     b58:	1809883a 	mov	r4,r3
     b5c:	01400204 	movi	r5,8
     b60:	018001c4 	movi	r6,7
     b64:	01c00084 	movi	r7,2
     b68:	00008f00 	call	8f0 <setup_conv>
     b6c:	e0bffe03 	ldbu	r2,-8(fp)
     b70:	10800044 	addi	r2,r2,1
     b74:	e0bffe05 	stb	r2,-8(fp)
     b78:	e0bffe03 	ldbu	r2,-8(fp)
     b7c:	10800330 	cmpltui	r2,r2,12
     b80:	103fed1e 	bne	r2,zero,b38 <calibrate_ad7124_8+0x9c>
     b84:	01000bb4 	movhi	r4,46
     b88:	2131b004 	addi	r4,r4,-14656
     b8c:	0002f1c0 	call	2f1c <usleep>
     b90:	01000034 	movhi	r4,0
     b94:	21163904 	addi	r4,r4,22756
     b98:	0001bf80 	call	1bf8 <printf>
     b9c:	e03ffe05 	stb	zero,-8(fp)
     ba0:	00001206 	br	bec <calibrate_ad7124_8+0x150>
     ba4:	e0fffe03 	ldbu	r3,-8(fp)
     ba8:	e0bfff04 	addi	r2,fp,-4
     bac:	1809883a 	mov	r4,r3
     bb0:	01400c44 	movi	r5,49
     bb4:	100d883a 	mov	r6,r2
     bb8:	01c000c4 	movi	r7,3
     bbc:	00006100 	call	610 <ad7124_read_reg>
     bc0:	e0ffff17 	ldw	r3,-4(fp)
     bc4:	00804034 	movhi	r2,256
     bc8:	10bfffc4 	addi	r2,r2,-1
     bcc:	1884703a 	and	r2,r3,r2
     bd0:	01000034 	movhi	r4,0
     bd4:	21163c04 	addi	r4,r4,22768
     bd8:	100b883a 	mov	r5,r2
     bdc:	0001bf80 	call	1bf8 <printf>
     be0:	e0bffe03 	ldbu	r2,-8(fp)
     be4:	10800044 	addi	r2,r2,1
     be8:	e0bffe05 	stb	r2,-8(fp)
     bec:	e0bffe03 	ldbu	r2,-8(fp)
     bf0:	10800330 	cmpltui	r2,r2,12
     bf4:	103feb1e 	bne	r2,zero,ba4 <calibrate_ad7124_8+0x108>
     bf8:	01000034 	movhi	r4,0
     bfc:	21163e04 	addi	r4,r4,22776
     c00:	0001bf80 	call	1bf8 <printf>
     c04:	e03ffe05 	stb	zero,-8(fp)
     c08:	00001206 	br	c54 <calibrate_ad7124_8+0x1b8>
     c0c:	e0fffe03 	ldbu	r3,-8(fp)
     c10:	e0bfff04 	addi	r2,fp,-4
     c14:	1809883a 	mov	r4,r3
     c18:	01400a44 	movi	r5,41
     c1c:	100d883a 	mov	r6,r2
     c20:	01c000c4 	movi	r7,3
     c24:	00006100 	call	610 <ad7124_read_reg>
     c28:	e0ffff17 	ldw	r3,-4(fp)
     c2c:	00804034 	movhi	r2,256
     c30:	10bfffc4 	addi	r2,r2,-1
     c34:	1884703a 	and	r2,r3,r2
     c38:	01000034 	movhi	r4,0
     c3c:	21163c04 	addi	r4,r4,22768
     c40:	100b883a 	mov	r5,r2
     c44:	0001bf80 	call	1bf8 <printf>
     c48:	e0bffe03 	ldbu	r2,-8(fp)
     c4c:	10800044 	addi	r2,r2,1
     c50:	e0bffe05 	stb	r2,-8(fp)
     c54:	e0bffe03 	ldbu	r2,-8(fp)
     c58:	10800330 	cmpltui	r2,r2,12
     c5c:	103feb1e 	bne	r2,zero,c0c <calibrate_ad7124_8+0x170>
     c60:	01000284 	movi	r4,10
     c64:	0001c4c0 	call	1c4c <putchar>
     c68:	0005883a 	mov	r2,zero
     c6c:	e037883a 	mov	sp,fp
     c70:	dfc00117 	ldw	ra,4(sp)
     c74:	df000017 	ldw	fp,0(sp)
     c78:	dec00204 	addi	sp,sp,8
     c7c:	f800283a 	ret

00000c80 <read_rx_fifo_char>:
     c80:	defffd04 	addi	sp,sp,-12
     c84:	dfc00215 	stw	ra,8(sp)
     c88:	df000115 	stw	fp,4(sp)
     c8c:	df000104 	addi	fp,sp,4
     c90:	00800044 	movi	r2,1
     c94:	e0bfff05 	stb	r2,-4(fp)
     c98:	e0ffff03 	ldbu	r3,-4(fp)
     c9c:	00800134 	movhi	r2,4
     ca0:	10824c04 	addi	r2,r2,2352
     ca4:	10c00035 	stwio	r3,0(r2)
     ca8:	e03fff05 	stb	zero,-4(fp)
     cac:	e0ffff03 	ldbu	r3,-4(fp)
     cb0:	00800134 	movhi	r2,4
     cb4:	10824c04 	addi	r2,r2,2352
     cb8:	10c00035 	stwio	r3,0(r2)
     cbc:	00800134 	movhi	r2,4
     cc0:	10824804 	addi	r2,r2,2336
     cc4:	10800037 	ldwio	r2,0(r2)
     cc8:	e0bfff45 	stb	r2,-3(fp)
     ccc:	e0bfff47 	ldb	r2,-3(fp)
     cd0:	10801858 	cmpnei	r2,r2,97
     cd4:	1000011e 	bne	r2,zero,cdc <read_rx_fifo_char+0x5c>
     cd8:	0000a9c0 	call	a9c <calibrate_ad7124_8>
     cdc:	e0bfff43 	ldbu	r2,-3(fp)
     ce0:	e037883a 	mov	sp,fp
     ce4:	dfc00117 	ldw	ra,4(sp)
     ce8:	df000017 	ldw	fp,0(sp)
     cec:	dec00204 	addi	sp,sp,8
     cf0:	f800283a 	ret

00000cf4 <read_rx_fifo>:
     cf4:	defffb04 	addi	sp,sp,-20
     cf8:	dfc00415 	stw	ra,16(sp)
     cfc:	df000315 	stw	fp,12(sp)
     d00:	dc000215 	stw	r16,8(sp)
     d04:	df000304 	addi	fp,sp,12
     d08:	e13ffe15 	stw	r4,-8(fp)
     d0c:	e03ffd15 	stw	zero,-12(fp)
     d10:	e0bffe17 	ldw	r2,-8(fp)
     d14:	10000005 	stb	zero,0(r2)
     d18:	00800134 	movhi	r2,4
     d1c:	10825004 	addi	r2,r2,2368
     d20:	10800037 	ldwio	r2,0(r2)
     d24:	10002a1e 	bne	r2,zero,dd0 <read_rx_fifo+0xdc>
     d28:	00800134 	movhi	r2,4
     d2c:	10825004 	addi	r2,r2,2368
     d30:	10800037 	ldwio	r2,0(r2)
     d34:	1000201e 	bne	r2,zero,db8 <read_rx_fifo+0xc4>
     d38:	e0fffe17 	ldw	r3,-8(fp)
     d3c:	e0bffd17 	ldw	r2,-12(fp)
     d40:	18a1883a 	add	r16,r3,r2
     d44:	0000c800 	call	c80 <read_rx_fifo_char>
     d48:	80800005 	stb	r2,0(r16)
     d4c:	e0bffd17 	ldw	r2,-12(fp)
     d50:	10800044 	addi	r2,r2,1
     d54:	e0bffd15 	stw	r2,-12(fp)
     d58:	e0bffd17 	ldw	r2,-12(fp)
     d5c:	10810018 	cmpnei	r2,r2,1024
     d60:	1000051e 	bne	r2,zero,d78 <read_rx_fifo+0x84>
     d64:	01000034 	movhi	r4,0
     d68:	21164104 	addi	r4,r4,22788
     d6c:	0001ce40 	call	1ce4 <puts>
     d70:	e0bffd17 	ldw	r2,-12(fp)
     d74:	00001b06 	br	de4 <read_rx_fifo+0xf0>
     d78:	e0bffd17 	ldw	r2,-12(fp)
     d7c:	10bfffc4 	addi	r2,r2,-1
     d80:	e0fffe17 	ldw	r3,-8(fp)
     d84:	1885883a 	add	r2,r3,r2
     d88:	10800003 	ldbu	r2,0(r2)
     d8c:	10803fcc 	andi	r2,r2,255
     d90:	1080201c 	xori	r2,r2,128
     d94:	10bfe004 	addi	r2,r2,-128
     d98:	10800298 	cmpnei	r2,r2,10
     d9c:	1000061e 	bne	r2,zero,db8 <read_rx_fifo+0xc4>
     da0:	e0fffe17 	ldw	r3,-8(fp)
     da4:	e0bffd17 	ldw	r2,-12(fp)
     da8:	1885883a 	add	r2,r3,r2
     dac:	10000005 	stb	zero,0(r2)
     db0:	e0bffd17 	ldw	r2,-12(fp)
     db4:	00000b06 	br	de4 <read_rx_fifo+0xf0>
     db8:	d0a01503 	ldbu	r2,-32684(gp)
     dbc:	10803fcc 	andi	r2,r2,255
     dc0:	10000226 	beq	r2,zero,dcc <read_rx_fifo+0xd8>
     dc4:	e0bffd17 	ldw	r2,-12(fp)
     dc8:	00000606 	br	de4 <read_rx_fifo+0xf0>
     dcc:	003fd606 	br	d28 <read_rx_fifo+0x34>
     dd0:	e0fffe17 	ldw	r3,-8(fp)
     dd4:	e0bffd17 	ldw	r2,-12(fp)
     dd8:	1885883a 	add	r2,r3,r2
     ddc:	10000005 	stb	zero,0(r2)
     de0:	e0bffd17 	ldw	r2,-12(fp)
     de4:	e6ffff04 	addi	sp,fp,-4
     de8:	dfc00217 	ldw	ra,8(sp)
     dec:	df000117 	ldw	fp,4(sp)
     df0:	dc000017 	ldw	r16,0(sp)
     df4:	dec00304 	addi	sp,sp,12
     df8:	f800283a 	ret

00000dfc <write_ltc2605>:
     dfc:	defffb04 	addi	sp,sp,-20
     e00:	dfc00415 	stw	ra,16(sp)
     e04:	df000315 	stw	fp,12(sp)
     e08:	df000304 	addi	fp,sp,12
     e0c:	2807883a 	mov	r3,r5
     e10:	3005883a 	mov	r2,r6
     e14:	e13ffd05 	stb	r4,-12(fp)
     e18:	e0fffe05 	stb	r3,-8(fp)
     e1c:	e0bfff0d 	sth	r2,-4(fp)
     e20:	e0bffd03 	ldbu	r2,-12(fp)
     e24:	01000134 	movhi	r4,4
     e28:	21025804 	addi	r4,r4,2400
     e2c:	100b883a 	mov	r5,r2
     e30:	000d883a 	mov	r6,zero
     e34:	00003180 	call	318 <I2C_start>
     e38:	e0bffe03 	ldbu	r2,-8(fp)
     e3c:	108003cc 	andi	r2,r2,15
     e40:	10800c14 	ori	r2,r2,48
     e44:	10803fcc 	andi	r2,r2,255
     e48:	01000134 	movhi	r4,4
     e4c:	21025804 	addi	r4,r4,2400
     e50:	100b883a 	mov	r5,r2
     e54:	000d883a 	mov	r6,zero
     e58:	00004300 	call	430 <I2C_write>
     e5c:	e0bfff0b 	ldhu	r2,-4(fp)
     e60:	1004d23a 	srli	r2,r2,8
     e64:	10803fcc 	andi	r2,r2,255
     e68:	01000134 	movhi	r4,4
     e6c:	21025804 	addi	r4,r4,2400
     e70:	100b883a 	mov	r5,r2
     e74:	000d883a 	mov	r6,zero
     e78:	00004300 	call	430 <I2C_write>
     e7c:	e0bfff0b 	ldhu	r2,-4(fp)
     e80:	10803fcc 	andi	r2,r2,255
     e84:	01000134 	movhi	r4,4
     e88:	21025804 	addi	r4,r4,2400
     e8c:	100b883a 	mov	r5,r2
     e90:	01800044 	movi	r6,1
     e94:	00004300 	call	430 <I2C_write>
     e98:	0005883a 	mov	r2,zero
     e9c:	e037883a 	mov	sp,fp
     ea0:	dfc00117 	ldw	ra,4(sp)
     ea4:	df000017 	ldw	fp,0(sp)
     ea8:	dec00204 	addi	sp,sp,8
     eac:	f800283a 	ret

00000eb0 <execute_cmd>:
     eb0:	defff704 	addi	sp,sp,-36
     eb4:	dfc00815 	stw	ra,32(sp)
     eb8:	df000715 	stw	fp,28(sp)
     ebc:	df000704 	addi	fp,sp,28
     ec0:	e13ffe15 	stw	r4,-8(fp)
     ec4:	e17fff15 	stw	r5,-4(fp)
     ec8:	e03ff905 	stb	zero,-28(fp)
     ecc:	e03ff945 	stb	zero,-27(fp)
     ed0:	e03ffd0d 	sth	zero,-12(fp)
     ed4:	00800804 	movi	r2,32
     ed8:	e0bffd8d 	sth	r2,-10(fp)
     edc:	e03ffb05 	stb	zero,-20(fp)
     ee0:	e03ffc15 	stw	zero,-16(fp)
     ee4:	e0bffd84 	addi	r2,fp,-10
     ee8:	e13ffe17 	ldw	r4,-8(fp)
     eec:	100b883a 	mov	r5,r2
     ef0:	0001d140 	call	1d14 <strtok>
     ef4:	e0bffa15 	stw	r2,-24(fp)
     ef8:	00003506 	br	fd0 <execute_cmd+0x120>
     efc:	e0bffb03 	ldbu	r2,-20(fp)
     f00:	10000c1e 	bne	r2,zero,f34 <execute_cmd+0x84>
     f04:	e0bffa17 	ldw	r2,-24(fp)
     f08:	10800003 	ldbu	r2,0(r2)
     f0c:	10803fcc 	andi	r2,r2,255
     f10:	1080201c 	xori	r2,r2,128
     f14:	10bfe004 	addi	r2,r2,-128
     f18:	108018e0 	cmpeqi	r2,r2,99
     f1c:	1000021e 	bne	r2,zero,f28 <execute_cmd+0x78>
     f20:	e03ffb05 	stb	zero,-20(fp)
     f24:	00002506 	br	fbc <execute_cmd+0x10c>
     f28:	00800044 	movi	r2,1
     f2c:	e0bffb05 	stb	r2,-20(fp)
     f30:	00002206 	br	fbc <execute_cmd+0x10c>
     f34:	e0bffb03 	ldbu	r2,-20(fp)
     f38:	10800058 	cmpnei	r2,r2,1
     f3c:	1000061e 	bne	r2,zero,f58 <execute_cmd+0xa8>
     f40:	e13ffa17 	ldw	r4,-24(fp)
     f44:	0001ba40 	call	1ba4 <atoi>
     f48:	e0bff905 	stb	r2,-28(fp)
     f4c:	00800084 	movi	r2,2
     f50:	e0bffb05 	stb	r2,-20(fp)
     f54:	00001906 	br	fbc <execute_cmd+0x10c>
     f58:	e0bffb03 	ldbu	r2,-20(fp)
     f5c:	10800098 	cmpnei	r2,r2,2
     f60:	1000061e 	bne	r2,zero,f7c <execute_cmd+0xcc>
     f64:	e13ffa17 	ldw	r4,-24(fp)
     f68:	0001ba40 	call	1ba4 <atoi>
     f6c:	e0bff945 	stb	r2,-27(fp)
     f70:	008000c4 	movi	r2,3
     f74:	e0bffb05 	stb	r2,-20(fp)
     f78:	00001006 	br	fbc <execute_cmd+0x10c>
     f7c:	e0bffb03 	ldbu	r2,-20(fp)
     f80:	108000d8 	cmpnei	r2,r2,3
     f84:	10000d1e 	bne	r2,zero,fbc <execute_cmd+0x10c>
     f88:	e13ffa17 	ldw	r4,-24(fp)
     f8c:	0001ba40 	call	1ba4 <atoi>
     f90:	e0bffd0d 	sth	r2,-12(fp)
     f94:	e13ff903 	ldbu	r4,-28(fp)
     f98:	e0fff943 	ldbu	r3,-27(fp)
     f9c:	e0bffd0b 	ldhu	r2,-12(fp)
     fa0:	180b883a 	mov	r5,r3
     fa4:	100d883a 	mov	r6,r2
     fa8:	0000dfc0 	call	dfc <write_ltc2605>
     fac:	e0bffc17 	ldw	r2,-16(fp)
     fb0:	10800044 	addi	r2,r2,1
     fb4:	e0bffc15 	stw	r2,-16(fp)
     fb8:	e03ffb05 	stb	zero,-20(fp)
     fbc:	e0bffd84 	addi	r2,fp,-10
     fc0:	0009883a 	mov	r4,zero
     fc4:	100b883a 	mov	r5,r2
     fc8:	0001d140 	call	1d14 <strtok>
     fcc:	e0bffa15 	stw	r2,-24(fp)
     fd0:	e0bffa17 	ldw	r2,-24(fp)
     fd4:	103fc91e 	bne	r2,zero,efc <execute_cmd+0x4c>
     fd8:	e0bffc17 	ldw	r2,-16(fp)
     fdc:	e037883a 	mov	sp,fp
     fe0:	dfc00117 	ldw	ra,4(sp)
     fe4:	df000017 	ldw	fp,0(sp)
     fe8:	dec00204 	addi	sp,sp,8
     fec:	f800283a 	ret

00000ff0 <print_table>:
     ff0:	defff904 	addi	sp,sp,-28
     ff4:	dfc00615 	stw	ra,24(sp)
     ff8:	df000515 	stw	fp,20(sp)
     ffc:	df000504 	addi	fp,sp,20
    1000:	e13ffc15 	stw	r4,-16(fp)
    1004:	e17ffd15 	stw	r5,-12(fp)
    1008:	e1bffe15 	stw	r6,-8(fp)
    100c:	e1ffff15 	stw	r7,-4(fp)
    1010:	e03ffb05 	stb	zero,-20(fp)
    1014:	e03ffb45 	stb	zero,-19(fp)
    1018:	01000284 	movi	r4,10
    101c:	0001c4c0 	call	1c4c <putchar>
    1020:	01000034 	movhi	r4,0
    1024:	21164a04 	addi	r4,r4,22824
    1028:	01400044 	movi	r5,1
    102c:	01800484 	movi	r6,18
    1030:	0001bf80 	call	1bf8 <printf>
    1034:	01000034 	movhi	r4,0
    1038:	21161504 	addi	r4,r4,22612
    103c:	0001bf80 	call	1bf8 <printf>
    1040:	e03ffb05 	stb	zero,-20(fp)
    1044:	00000806 	br	1068 <print_table+0x78>
    1048:	e0bffb03 	ldbu	r2,-20(fp)
    104c:	01000034 	movhi	r4,0
    1050:	21165504 	addi	r4,r4,22868
    1054:	100b883a 	mov	r5,r2
    1058:	0001bf80 	call	1bf8 <printf>
    105c:	e0bffb03 	ldbu	r2,-20(fp)
    1060:	10800044 	addi	r2,r2,1
    1064:	e0bffb05 	stb	r2,-20(fp)
    1068:	e0bffb03 	ldbu	r2,-20(fp)
    106c:	10800330 	cmpltui	r2,r2,12
    1070:	103ff51e 	bne	r2,zero,1048 <print_table+0x58>
    1074:	01000284 	movi	r4,10
    1078:	0001c4c0 	call	1c4c <putchar>
    107c:	01000034 	movhi	r4,0
    1080:	21165904 	addi	r4,r4,22884
    1084:	0001bf80 	call	1bf8 <printf>
    1088:	e03ffb05 	stb	zero,-20(fp)
    108c:	00001106 	br	10d4 <print_table+0xe4>
    1090:	e0bffb03 	ldbu	r2,-20(fp)
    1094:	1085883a 	add	r2,r2,r2
    1098:	1085883a 	add	r2,r2,r2
    109c:	1007883a 	mov	r3,r2
    10a0:	e0bffc17 	ldw	r2,-16(fp)
    10a4:	10c5883a 	add	r2,r2,r3
    10a8:	10c00017 	ldw	r3,0(r2)
    10ac:	00804034 	movhi	r2,256
    10b0:	10bfffc4 	addi	r2,r2,-1
    10b4:	1884703a 	and	r2,r3,r2
    10b8:	01000034 	movhi	r4,0
    10bc:	21163c04 	addi	r4,r4,22768
    10c0:	100b883a 	mov	r5,r2
    10c4:	0001bf80 	call	1bf8 <printf>
    10c8:	e0bffb03 	ldbu	r2,-20(fp)
    10cc:	10800044 	addi	r2,r2,1
    10d0:	e0bffb05 	stb	r2,-20(fp)
    10d4:	e0bffb03 	ldbu	r2,-20(fp)
    10d8:	10800330 	cmpltui	r2,r2,12
    10dc:	103fec1e 	bne	r2,zero,1090 <print_table+0xa0>
    10e0:	01000284 	movi	r4,10
    10e4:	0001c4c0 	call	1c4c <putchar>
    10e8:	01000034 	movhi	r4,0
    10ec:	21165c04 	addi	r4,r4,22896
    10f0:	0001bf80 	call	1bf8 <printf>
    10f4:	e03ffb05 	stb	zero,-20(fp)
    10f8:	00001106 	br	1140 <print_table+0x150>
    10fc:	e0bffb03 	ldbu	r2,-20(fp)
    1100:	1085883a 	add	r2,r2,r2
    1104:	1085883a 	add	r2,r2,r2
    1108:	1007883a 	mov	r3,r2
    110c:	e0bffd17 	ldw	r2,-12(fp)
    1110:	10c5883a 	add	r2,r2,r3
    1114:	10c00017 	ldw	r3,0(r2)
    1118:	00804034 	movhi	r2,256
    111c:	10bfffc4 	addi	r2,r2,-1
    1120:	1884703a 	and	r2,r3,r2
    1124:	01000034 	movhi	r4,0
    1128:	21163c04 	addi	r4,r4,22768
    112c:	100b883a 	mov	r5,r2
    1130:	0001bf80 	call	1bf8 <printf>
    1134:	e0bffb03 	ldbu	r2,-20(fp)
    1138:	10800044 	addi	r2,r2,1
    113c:	e0bffb05 	stb	r2,-20(fp)
    1140:	e0bffb03 	ldbu	r2,-20(fp)
    1144:	10800330 	cmpltui	r2,r2,12
    1148:	103fec1e 	bne	r2,zero,10fc <print_table+0x10c>
    114c:	01000284 	movi	r4,10
    1150:	0001c4c0 	call	1c4c <putchar>
    1154:	e03ffb45 	stb	zero,-19(fp)
    1158:	00002506 	br	11f0 <print_table+0x200>
    115c:	e0bffb43 	ldbu	r2,-19(fp)
    1160:	01000034 	movhi	r4,0
    1164:	21165f04 	addi	r4,r4,22908
    1168:	100b883a 	mov	r5,r2
    116c:	0001bf80 	call	1bf8 <printf>
    1170:	e03ffb05 	stb	zero,-20(fp)
    1174:	00001606 	br	11d0 <print_table+0x1e0>
    1178:	e0bffb43 	ldbu	r2,-19(fp)
    117c:	1009883a 	mov	r4,r2
    1180:	01400c04 	movi	r5,48
    1184:	0001b7c0 	call	1b7c <__mulsi3>
    1188:	1007883a 	mov	r3,r2
    118c:	e0800217 	ldw	r2,8(fp)
    1190:	10c7883a 	add	r3,r2,r3
    1194:	e0bffb03 	ldbu	r2,-20(fp)
    1198:	1085883a 	add	r2,r2,r2
    119c:	1085883a 	add	r2,r2,r2
    11a0:	1885883a 	add	r2,r3,r2
    11a4:	10c00017 	ldw	r3,0(r2)
    11a8:	00804034 	movhi	r2,256
    11ac:	10bfffc4 	addi	r2,r2,-1
    11b0:	1884703a 	and	r2,r3,r2
    11b4:	01000034 	movhi	r4,0
    11b8:	21163c04 	addi	r4,r4,22768
    11bc:	100b883a 	mov	r5,r2
    11c0:	0001bf80 	call	1bf8 <printf>
    11c4:	e0bffb03 	ldbu	r2,-20(fp)
    11c8:	10800044 	addi	r2,r2,1
    11cc:	e0bffb05 	stb	r2,-20(fp)
    11d0:	e0bffb03 	ldbu	r2,-20(fp)
    11d4:	10800330 	cmpltui	r2,r2,12
    11d8:	103fe71e 	bne	r2,zero,1178 <print_table+0x188>
    11dc:	01000284 	movi	r4,10
    11e0:	0001c4c0 	call	1c4c <putchar>
    11e4:	e0bffb43 	ldbu	r2,-19(fp)
    11e8:	10800044 	addi	r2,r2,1
    11ec:	e0bffb45 	stb	r2,-19(fp)
    11f0:	e0bffb43 	ldbu	r2,-19(fp)
    11f4:	108001b0 	cmpltui	r2,r2,6
    11f8:	103fd81e 	bne	r2,zero,115c <print_table+0x16c>
    11fc:	e03ffb45 	stb	zero,-19(fp)
    1200:	00002506 	br	1298 <print_table+0x2a8>
    1204:	e0bffb43 	ldbu	r2,-19(fp)
    1208:	01000034 	movhi	r4,0
    120c:	21166204 	addi	r4,r4,22920
    1210:	100b883a 	mov	r5,r2
    1214:	0001bf80 	call	1bf8 <printf>
    1218:	e03ffb05 	stb	zero,-20(fp)
    121c:	00001606 	br	1278 <print_table+0x288>
    1220:	e0bffb43 	ldbu	r2,-19(fp)
    1224:	1009883a 	mov	r4,r2
    1228:	01400c04 	movi	r5,48
    122c:	0001b7c0 	call	1b7c <__mulsi3>
    1230:	1007883a 	mov	r3,r2
    1234:	e0bffe17 	ldw	r2,-8(fp)
    1238:	10c7883a 	add	r3,r2,r3
    123c:	e0bffb03 	ldbu	r2,-20(fp)
    1240:	1085883a 	add	r2,r2,r2
    1244:	1085883a 	add	r2,r2,r2
    1248:	1885883a 	add	r2,r3,r2
    124c:	10c00017 	ldw	r3,0(r2)
    1250:	00804034 	movhi	r2,256
    1254:	10bfffc4 	addi	r2,r2,-1
    1258:	1884703a 	and	r2,r3,r2
    125c:	01000034 	movhi	r4,0
    1260:	21166504 	addi	r4,r4,22932
    1264:	100b883a 	mov	r5,r2
    1268:	0001bf80 	call	1bf8 <printf>
    126c:	e0bffb03 	ldbu	r2,-20(fp)
    1270:	10800044 	addi	r2,r2,1
    1274:	e0bffb05 	stb	r2,-20(fp)
    1278:	e0bffb03 	ldbu	r2,-20(fp)
    127c:	10800330 	cmpltui	r2,r2,12
    1280:	103fe71e 	bne	r2,zero,1220 <print_table+0x230>
    1284:	01000284 	movi	r4,10
    1288:	0001c4c0 	call	1c4c <putchar>
    128c:	e0bffb43 	ldbu	r2,-19(fp)
    1290:	10800044 	addi	r2,r2,1
    1294:	e0bffb45 	stb	r2,-19(fp)
    1298:	e0bffb43 	ldbu	r2,-19(fp)
    129c:	108001b0 	cmpltui	r2,r2,6
    12a0:	103fd81e 	bne	r2,zero,1204 <print_table+0x214>
    12a4:	e03ffb45 	stb	zero,-19(fp)
    12a8:	00002506 	br	1340 <print_table+0x350>
    12ac:	e0bffb43 	ldbu	r2,-19(fp)
    12b0:	01000034 	movhi	r4,0
    12b4:	21166804 	addi	r4,r4,22944
    12b8:	100b883a 	mov	r5,r2
    12bc:	0001bf80 	call	1bf8 <printf>
    12c0:	e03ffb05 	stb	zero,-20(fp)
    12c4:	00001606 	br	1320 <print_table+0x330>
    12c8:	e0bffb43 	ldbu	r2,-19(fp)
    12cc:	1009883a 	mov	r4,r2
    12d0:	01400c04 	movi	r5,48
    12d4:	0001b7c0 	call	1b7c <__mulsi3>
    12d8:	1007883a 	mov	r3,r2
    12dc:	e0800317 	ldw	r2,12(fp)
    12e0:	10c7883a 	add	r3,r2,r3
    12e4:	e0bffb03 	ldbu	r2,-20(fp)
    12e8:	1085883a 	add	r2,r2,r2
    12ec:	1085883a 	add	r2,r2,r2
    12f0:	1885883a 	add	r2,r3,r2
    12f4:	10c00017 	ldw	r3,0(r2)
    12f8:	00804034 	movhi	r2,256
    12fc:	10bfffc4 	addi	r2,r2,-1
    1300:	1884703a 	and	r2,r3,r2
    1304:	01000034 	movhi	r4,0
    1308:	21163c04 	addi	r4,r4,22768
    130c:	100b883a 	mov	r5,r2
    1310:	0001bf80 	call	1bf8 <printf>
    1314:	e0bffb03 	ldbu	r2,-20(fp)
    1318:	10800044 	addi	r2,r2,1
    131c:	e0bffb05 	stb	r2,-20(fp)
    1320:	e0bffb03 	ldbu	r2,-20(fp)
    1324:	10800330 	cmpltui	r2,r2,12
    1328:	103fe71e 	bne	r2,zero,12c8 <print_table+0x2d8>
    132c:	01000284 	movi	r4,10
    1330:	0001c4c0 	call	1c4c <putchar>
    1334:	e0bffb43 	ldbu	r2,-19(fp)
    1338:	10800044 	addi	r2,r2,1
    133c:	e0bffb45 	stb	r2,-19(fp)
    1340:	e0bffb43 	ldbu	r2,-19(fp)
    1344:	108001b0 	cmpltui	r2,r2,6
    1348:	103fd81e 	bne	r2,zero,12ac <print_table+0x2bc>
    134c:	e03ffb45 	stb	zero,-19(fp)
    1350:	00002506 	br	13e8 <print_table+0x3f8>
    1354:	e0bffb43 	ldbu	r2,-19(fp)
    1358:	01000034 	movhi	r4,0
    135c:	21166b04 	addi	r4,r4,22956
    1360:	100b883a 	mov	r5,r2
    1364:	0001bf80 	call	1bf8 <printf>
    1368:	e03ffb05 	stb	zero,-20(fp)
    136c:	00001606 	br	13c8 <print_table+0x3d8>
    1370:	e0bffb43 	ldbu	r2,-19(fp)
    1374:	1009883a 	mov	r4,r2
    1378:	01400c04 	movi	r5,48
    137c:	0001b7c0 	call	1b7c <__mulsi3>
    1380:	1007883a 	mov	r3,r2
    1384:	e0bfff17 	ldw	r2,-4(fp)
    1388:	10c7883a 	add	r3,r2,r3
    138c:	e0bffb03 	ldbu	r2,-20(fp)
    1390:	1085883a 	add	r2,r2,r2
    1394:	1085883a 	add	r2,r2,r2
    1398:	1885883a 	add	r2,r3,r2
    139c:	10c00017 	ldw	r3,0(r2)
    13a0:	00804034 	movhi	r2,256
    13a4:	10bfffc4 	addi	r2,r2,-1
    13a8:	1884703a 	and	r2,r3,r2
    13ac:	01000034 	movhi	r4,0
    13b0:	21166504 	addi	r4,r4,22932
    13b4:	100b883a 	mov	r5,r2
    13b8:	0001bf80 	call	1bf8 <printf>
    13bc:	e0bffb03 	ldbu	r2,-20(fp)
    13c0:	10800044 	addi	r2,r2,1
    13c4:	e0bffb05 	stb	r2,-20(fp)
    13c8:	e0bffb03 	ldbu	r2,-20(fp)
    13cc:	10800330 	cmpltui	r2,r2,12
    13d0:	103fe71e 	bne	r2,zero,1370 <print_table+0x380>
    13d4:	01000284 	movi	r4,10
    13d8:	0001c4c0 	call	1c4c <putchar>
    13dc:	e0bffb43 	ldbu	r2,-19(fp)
    13e0:	10800044 	addi	r2,r2,1
    13e4:	e0bffb45 	stb	r2,-19(fp)
    13e8:	e0bffb43 	ldbu	r2,-19(fp)
    13ec:	108001b0 	cmpltui	r2,r2,6
    13f0:	103fd81e 	bne	r2,zero,1354 <print_table+0x364>
    13f4:	01000034 	movhi	r4,0
    13f8:	21166e04 	addi	r4,r4,22968
    13fc:	0001bf80 	call	1bf8 <printf>
    1400:	e03ffb05 	stb	zero,-20(fp)
    1404:	00001106 	br	144c <print_table+0x45c>
    1408:	e0bffb03 	ldbu	r2,-20(fp)
    140c:	1085883a 	add	r2,r2,r2
    1410:	1085883a 	add	r2,r2,r2
    1414:	1007883a 	mov	r3,r2
    1418:	e0800417 	ldw	r2,16(fp)
    141c:	10c5883a 	add	r2,r2,r3
    1420:	10c00017 	ldw	r3,0(r2)
    1424:	00804034 	movhi	r2,256
    1428:	10bfffc4 	addi	r2,r2,-1
    142c:	1884703a 	and	r2,r3,r2
    1430:	01000034 	movhi	r4,0
    1434:	21163c04 	addi	r4,r4,22768
    1438:	100b883a 	mov	r5,r2
    143c:	0001bf80 	call	1bf8 <printf>
    1440:	e0bffb03 	ldbu	r2,-20(fp)
    1444:	10800044 	addi	r2,r2,1
    1448:	e0bffb05 	stb	r2,-20(fp)
    144c:	e0bffb03 	ldbu	r2,-20(fp)
    1450:	10800330 	cmpltui	r2,r2,12
    1454:	103fec1e 	bne	r2,zero,1408 <print_table+0x418>
    1458:	01000284 	movi	r4,10
    145c:	0001c4c0 	call	1c4c <putchar>
    1460:	01000034 	movhi	r4,0
    1464:	21167104 	addi	r4,r4,22980
    1468:	0001bf80 	call	1bf8 <printf>
    146c:	e03ffb05 	stb	zero,-20(fp)
    1470:	00001106 	br	14b8 <print_table+0x4c8>
    1474:	e0bffb03 	ldbu	r2,-20(fp)
    1478:	1085883a 	add	r2,r2,r2
    147c:	1085883a 	add	r2,r2,r2
    1480:	1007883a 	mov	r3,r2
    1484:	e0800517 	ldw	r2,20(fp)
    1488:	10c5883a 	add	r2,r2,r3
    148c:	10c00017 	ldw	r3,0(r2)
    1490:	00804034 	movhi	r2,256
    1494:	10bfffc4 	addi	r2,r2,-1
    1498:	1884703a 	and	r2,r3,r2
    149c:	01000034 	movhi	r4,0
    14a0:	21163c04 	addi	r4,r4,22768
    14a4:	100b883a 	mov	r5,r2
    14a8:	0001bf80 	call	1bf8 <printf>
    14ac:	e0bffb03 	ldbu	r2,-20(fp)
    14b0:	10800044 	addi	r2,r2,1
    14b4:	e0bffb05 	stb	r2,-20(fp)
    14b8:	e0bffb03 	ldbu	r2,-20(fp)
    14bc:	10800330 	cmpltui	r2,r2,12
    14c0:	103fec1e 	bne	r2,zero,1474 <print_table+0x484>
    14c4:	01000284 	movi	r4,10
    14c8:	0001c4c0 	call	1c4c <putchar>
    14cc:	0005883a 	mov	r2,zero
    14d0:	e037883a 	mov	sp,fp
    14d4:	dfc00117 	ldw	ra,4(sp)
    14d8:	df000017 	ldw	fp,0(sp)
    14dc:	dec00204 	addi	sp,sp,8
    14e0:	f800283a 	ret

000014e4 <main>:
    14e4:	defda204 	addi	sp,sp,-2424
    14e8:	dfc25d15 	stw	ra,2420(sp)
    14ec:	df025c15 	stw	fp,2416(sp)
    14f0:	dc025b15 	stw	r16,2412(sp)
    14f4:	df025c04 	addi	fp,sp,2416
    14f8:	00bfffc4 	movi	r2,-1
    14fc:	e0bdab05 	stb	r2,-2388(fp)
    1500:	e03da805 	stb	zero,-2400(fp)
    1504:	e03da845 	stb	zero,-2399(fp)
    1508:	e03dac15 	stw	zero,-2384(fp)
    150c:	e03da915 	stw	zero,-2396(fp)
    1510:	e03dad15 	stw	zero,-2380(fp)
    1514:	e03daa15 	stw	zero,-2392(fp)
    1518:	e03dae15 	stw	zero,-2376(fp)
    151c:	d0201505 	stb	zero,-32684(gp)
    1520:	e0fdab03 	ldbu	r3,-2388(fp)
    1524:	00800134 	movhi	r2,4
    1528:	10821c04 	addi	r2,r2,2160
    152c:	10c00035 	stwio	r3,0(r2)
    1530:	01000034 	movhi	r4,0
    1534:	21167404 	addi	r4,r4,22992
    1538:	0001ce40 	call	1ce4 <puts>
    153c:	01000034 	movhi	r4,0
    1540:	21168204 	addi	r4,r4,23048
    1544:	01400044 	movi	r5,1
    1548:	01800484 	movi	r6,18
    154c:	0001bf80 	call	1bf8 <printf>
    1550:	00c00244 	movi	r3,9
    1554:	00800134 	movhi	r2,4
    1558:	10824104 	addi	r2,r2,2308
    155c:	10c00035 	stwio	r3,0(r2)
    1560:	0007883a 	mov	r3,zero
    1564:	00800134 	movhi	r2,4
    1568:	10824004 	addi	r2,r2,2304
    156c:	10c00035 	stwio	r3,0(r2)
    1570:	d8000015 	stw	zero,0(sp)
    1574:	0009883a 	mov	r4,zero
    1578:	014000c4 	movi	r5,3
    157c:	01800034 	movhi	r6,0
    1580:	31813704 	addi	r6,r6,1244
    1584:	e1fdae17 	ldw	r7,-2376(fp)
    1588:	0002b240 	call	2b24 <alt_ic_isr_register>
    158c:	00c00144 	movi	r3,5
    1590:	00800134 	movhi	r2,4
    1594:	10824104 	addi	r2,r2,2308
    1598:	10c00035 	stwio	r3,0(r2)
    159c:	01000134 	movhi	r4,4
    15a0:	21025804 	addi	r4,r4,2400
    15a4:	0140bef4 	movhi	r5,763
    15a8:	297c2004 	addi	r5,r5,-3968
    15ac:	018000b4 	movhi	r6,2
    15b0:	31a1a804 	addi	r6,r6,-31072
    15b4:	00002640 	call	264 <I2C_init>
    15b8:	00008480 	call	848 <flip_led>
    15bc:	e03da805 	stb	zero,-2400(fp)
    15c0:	00001006 	br	1604 <main+0x120>
    15c4:	e0fda803 	ldbu	r3,-2400(fp)
    15c8:	0080a004 	movi	r2,640
    15cc:	d8800015 	stw	r2,0(sp)
    15d0:	008000c4 	movi	r2,3
    15d4:	d8800115 	stw	r2,4(sp)
    15d8:	00800044 	movi	r2,1
    15dc:	d8800215 	stw	r2,8(sp)
    15e0:	d8000315 	stw	zero,12(sp)
    15e4:	1809883a 	mov	r4,r3
    15e8:	014001c4 	movi	r5,7
    15ec:	000d883a 	mov	r6,zero
    15f0:	01c00044 	movi	r7,1
    15f4:	00008f00 	call	8f0 <setup_conv>
    15f8:	e0bda803 	ldbu	r2,-2400(fp)
    15fc:	10800044 	addi	r2,r2,1
    1600:	e0bda805 	stb	r2,-2400(fp)
    1604:	e0bda803 	ldbu	r2,-2400(fp)
    1608:	10800330 	cmpltui	r2,r2,12
    160c:	103fed1e 	bne	r2,zero,15c4 <main+0xe0>
    1610:	010000b4 	movhi	r4,2
    1614:	21304e04 	addi	r4,r4,-16072
    1618:	0002f1c0 	call	2f1c <usleep>
    161c:	e0bdaf04 	addi	r2,fp,-2372
    1620:	1009883a 	mov	r4,r2
    1624:	01400084 	movi	r5,2
    1628:	018000c4 	movi	r6,3
    162c:	00007a40 	call	7a4 <read_chan>
    1630:	e03da805 	stb	zero,-2400(fp)
    1634:	00001006 	br	1678 <main+0x194>
    1638:	e0fda803 	ldbu	r3,-2400(fp)
    163c:	0080a004 	movi	r2,640
    1640:	d8800015 	stw	r2,0(sp)
    1644:	008000c4 	movi	r2,3
    1648:	d8800115 	stw	r2,4(sp)
    164c:	00800044 	movi	r2,1
    1650:	d8800215 	stw	r2,8(sp)
    1654:	d8000315 	stw	zero,12(sp)
    1658:	1809883a 	mov	r4,r3
    165c:	014001c4 	movi	r5,7
    1660:	018001c4 	movi	r6,7
    1664:	01c00044 	movi	r7,1
    1668:	00008f00 	call	8f0 <setup_conv>
    166c:	e0bda803 	ldbu	r2,-2400(fp)
    1670:	10800044 	addi	r2,r2,1
    1674:	e0bda805 	stb	r2,-2400(fp)
    1678:	e0bda803 	ldbu	r2,-2400(fp)
    167c:	10800330 	cmpltui	r2,r2,12
    1680:	103fed1e 	bne	r2,zero,1638 <main+0x154>
    1684:	010000b4 	movhi	r4,2
    1688:	21304e04 	addi	r4,r4,-16072
    168c:	0002f1c0 	call	2f1c <usleep>
    1690:	e0bdbb04 	addi	r2,fp,-2324
    1694:	1009883a 	mov	r4,r2
    1698:	01400084 	movi	r5,2
    169c:	018000c4 	movi	r6,3
    16a0:	00007a40 	call	7a4 <read_chan>
    16a4:	e03da845 	stb	zero,-2399(fp)
    16a8:	00006706 	br	1848 <main+0x364>
    16ac:	e03da805 	stb	zero,-2400(fp)
    16b0:	00001806 	br	1714 <main+0x230>
    16b4:	e13da803 	ldbu	r4,-2400(fp)
    16b8:	e0fda843 	ldbu	r3,-2399(fp)
    16bc:	d0a001c4 	addi	r2,gp,-32761
    16c0:	1885883a 	add	r2,r3,r2
    16c4:	10800003 	ldbu	r2,0(r2)
    16c8:	11403fcc 	andi	r5,r2,255
    16cc:	e0fda843 	ldbu	r3,-2399(fp)
    16d0:	d0a00344 	addi	r2,gp,-32755
    16d4:	1885883a 	add	r2,r3,r2
    16d8:	10800003 	ldbu	r2,0(r2)
    16dc:	10c03fcc 	andi	r3,r2,255
    16e0:	0080a004 	movi	r2,640
    16e4:	d8800015 	stw	r2,0(sp)
    16e8:	008000c4 	movi	r2,3
    16ec:	d8800115 	stw	r2,4(sp)
    16f0:	00800044 	movi	r2,1
    16f4:	d8800215 	stw	r2,8(sp)
    16f8:	d8000315 	stw	zero,12(sp)
    16fc:	180d883a 	mov	r6,r3
    1700:	01c00044 	movi	r7,1
    1704:	00008f00 	call	8f0 <setup_conv>
    1708:	e0bda803 	ldbu	r2,-2400(fp)
    170c:	10800044 	addi	r2,r2,1
    1710:	e0bda805 	stb	r2,-2400(fp)
    1714:	e0bda803 	ldbu	r2,-2400(fp)
    1718:	10800330 	cmpltui	r2,r2,12
    171c:	103fe51e 	bne	r2,zero,16b4 <main+0x1d0>
    1720:	010000b4 	movhi	r4,2
    1724:	21304e04 	addi	r4,r4,-16072
    1728:	0002f1c0 	call	2f1c <usleep>
    172c:	e0bda843 	ldbu	r2,-2399(fp)
    1730:	e43e5704 	addi	r16,fp,-1700
    1734:	1009883a 	mov	r4,r2
    1738:	01400c04 	movi	r5,48
    173c:	0001b7c0 	call	1b7c <__mulsi3>
    1740:	8085883a 	add	r2,r16,r2
    1744:	1009883a 	mov	r4,r2
    1748:	01400084 	movi	r5,2
    174c:	018000c4 	movi	r6,3
    1750:	00007a40 	call	7a4 <read_chan>
    1754:	e03da805 	stb	zero,-2400(fp)
    1758:	00001406 	br	17ac <main+0x2c8>
    175c:	e13da803 	ldbu	r4,-2400(fp)
    1760:	e0fda843 	ldbu	r3,-2399(fp)
    1764:	d0a00004 	addi	r2,gp,-32768
    1768:	1885883a 	add	r2,r3,r2
    176c:	10800003 	ldbu	r2,0(r2)
    1770:	10c03fcc 	andi	r3,r2,255
    1774:	0080a004 	movi	r2,640
    1778:	d8800015 	stw	r2,0(sp)
    177c:	008000c4 	movi	r2,3
    1780:	d8800115 	stw	r2,4(sp)
    1784:	00800044 	movi	r2,1
    1788:	d8800215 	stw	r2,8(sp)
    178c:	d8000315 	stw	zero,12(sp)
    1790:	180b883a 	mov	r5,r3
    1794:	000d883a 	mov	r6,zero
    1798:	01c00044 	movi	r7,1
    179c:	00008f00 	call	8f0 <setup_conv>
    17a0:	e0bda803 	ldbu	r2,-2400(fp)
    17a4:	10800044 	addi	r2,r2,1
    17a8:	e0bda805 	stb	r2,-2400(fp)
    17ac:	e0bda803 	ldbu	r2,-2400(fp)
    17b0:	10800330 	cmpltui	r2,r2,12
    17b4:	103fe91e 	bne	r2,zero,175c <main+0x278>
    17b8:	010000b4 	movhi	r4,2
    17bc:	21304e04 	addi	r4,r4,-16072
    17c0:	0002f1c0 	call	2f1c <usleep>
    17c4:	e0bda843 	ldbu	r2,-2399(fp)
    17c8:	e43dc704 	addi	r16,fp,-2276
    17cc:	1009883a 	mov	r4,r2
    17d0:	01400c04 	movi	r5,48
    17d4:	0001b7c0 	call	1b7c <__mulsi3>
    17d8:	8085883a 	add	r2,r16,r2
    17dc:	1009883a 	mov	r4,r2
    17e0:	000b883a 	mov	r5,zero
    17e4:	01800044 	movi	r6,1
    17e8:	00007a40 	call	7a4 <read_chan>
    17ec:	e0bda843 	ldbu	r2,-2399(fp)
    17f0:	e43e9f04 	addi	r16,fp,-1412
    17f4:	1009883a 	mov	r4,r2
    17f8:	01400c04 	movi	r5,48
    17fc:	0001b7c0 	call	1b7c <__mulsi3>
    1800:	8085883a 	add	r2,r16,r2
    1804:	1009883a 	mov	r4,r2
    1808:	01400084 	movi	r5,2
    180c:	018000c4 	movi	r6,3
    1810:	00007a40 	call	7a4 <read_chan>
    1814:	e0bda843 	ldbu	r2,-2399(fp)
    1818:	e43e0f04 	addi	r16,fp,-1988
    181c:	1009883a 	mov	r4,r2
    1820:	01400c04 	movi	r5,48
    1824:	0001b7c0 	call	1b7c <__mulsi3>
    1828:	8085883a 	add	r2,r16,r2
    182c:	1009883a 	mov	r4,r2
    1830:	01400184 	movi	r5,6
    1834:	018000c4 	movi	r6,3
    1838:	00007a40 	call	7a4 <read_chan>
    183c:	e0bda843 	ldbu	r2,-2399(fp)
    1840:	10800044 	addi	r2,r2,1
    1844:	e0bda845 	stb	r2,-2399(fp)
    1848:	e0bda843 	ldbu	r2,-2399(fp)
    184c:	108001b0 	cmpltui	r2,r2,6
    1850:	103f961e 	bne	r2,zero,16ac <main+0x1c8>
    1854:	e03da805 	stb	zero,-2400(fp)
    1858:	00001206 	br	18a4 <main+0x3c0>
    185c:	e13da803 	ldbu	r4,-2400(fp)
    1860:	00800404 	movi	r2,16
    1864:	11403fcc 	andi	r5,r2,255
    1868:	00800444 	movi	r2,17
    186c:	10c03fcc 	andi	r3,r2,255
    1870:	0080a004 	movi	r2,640
    1874:	d8800015 	stw	r2,0(sp)
    1878:	008000c4 	movi	r2,3
    187c:	d8800115 	stw	r2,4(sp)
    1880:	00800044 	movi	r2,1
    1884:	d8800215 	stw	r2,8(sp)
    1888:	d8000315 	stw	zero,12(sp)
    188c:	180d883a 	mov	r6,r3
    1890:	01c00084 	movi	r7,2
    1894:	00008f00 	call	8f0 <setup_conv>
    1898:	e0bda803 	ldbu	r2,-2400(fp)
    189c:	10800044 	addi	r2,r2,1
    18a0:	e0bda805 	stb	r2,-2400(fp)
    18a4:	e0bda803 	ldbu	r2,-2400(fp)
    18a8:	10800330 	cmpltui	r2,r2,12
    18ac:	103feb1e 	bne	r2,zero,185c <main+0x378>
    18b0:	010000b4 	movhi	r4,2
    18b4:	21304e04 	addi	r4,r4,-16072
    18b8:	0002f1c0 	call	2f1c <usleep>
    18bc:	e0bee704 	addi	r2,fp,-1124
    18c0:	1009883a 	mov	r4,r2
    18c4:	01400084 	movi	r5,2
    18c8:	018000c4 	movi	r6,3
    18cc:	00007a40 	call	7a4 <read_chan>
    18d0:	e03da805 	stb	zero,-2400(fp)
    18d4:	00001206 	br	1920 <main+0x43c>
    18d8:	e13da803 	ldbu	r4,-2400(fp)
    18dc:	00800384 	movi	r2,14
    18e0:	11403fcc 	andi	r5,r2,255
    18e4:	008003c4 	movi	r2,15
    18e8:	10c03fcc 	andi	r3,r2,255
    18ec:	0080a004 	movi	r2,640
    18f0:	d8800015 	stw	r2,0(sp)
    18f4:	008000c4 	movi	r2,3
    18f8:	d8800115 	stw	r2,4(sp)
    18fc:	00800044 	movi	r2,1
    1900:	d8800215 	stw	r2,8(sp)
    1904:	d8000315 	stw	zero,12(sp)
    1908:	180d883a 	mov	r6,r3
    190c:	01c00084 	movi	r7,2
    1910:	00008f00 	call	8f0 <setup_conv>
    1914:	e0bda803 	ldbu	r2,-2400(fp)
    1918:	10800044 	addi	r2,r2,1
    191c:	e0bda805 	stb	r2,-2400(fp)
    1920:	e0bda803 	ldbu	r2,-2400(fp)
    1924:	10800330 	cmpltui	r2,r2,12
    1928:	103feb1e 	bne	r2,zero,18d8 <main+0x3f4>
    192c:	010000b4 	movhi	r4,2
    1930:	21304e04 	addi	r4,r4,-16072
    1934:	0002f1c0 	call	2f1c <usleep>
    1938:	e0bef304 	addi	r2,fp,-1076
    193c:	1009883a 	mov	r4,r2
    1940:	01400084 	movi	r5,2
    1944:	018000c4 	movi	r6,3
    1948:	00007a40 	call	7a4 <read_chan>
    194c:	e13daf04 	addi	r4,fp,-2372
    1950:	e17dbb04 	addi	r5,fp,-2324
    1954:	e1bdc704 	addi	r6,fp,-2276
    1958:	e0fe0f04 	addi	r3,fp,-1988
    195c:	e0be5704 	addi	r2,fp,-1700
    1960:	d8800015 	stw	r2,0(sp)
    1964:	e0be9f04 	addi	r2,fp,-1412
    1968:	d8800115 	stw	r2,4(sp)
    196c:	e0bee704 	addi	r2,fp,-1124
    1970:	d8800215 	stw	r2,8(sp)
    1974:	e0bef304 	addi	r2,fp,-1076
    1978:	d8800315 	stw	r2,12(sp)
    197c:	180f883a 	mov	r7,r3
    1980:	0000ff00 	call	ff0 <print_table>
    1984:	e03da915 	stw	zero,-2396(fp)
    1988:	e03daa15 	stw	zero,-2392(fp)
    198c:	e03dac15 	stw	zero,-2384(fp)
    1990:	e03da915 	stw	zero,-2396(fp)
    1994:	00001206 	br	19e0 <main+0x4fc>
    1998:	e0beff04 	addi	r2,fp,-1028
    199c:	01000034 	movhi	r4,0
    19a0:	21168904 	addi	r4,r4,23076
    19a4:	100b883a 	mov	r5,r2
    19a8:	0001bf80 	call	1bf8 <printf>
    19ac:	e0fda917 	ldw	r3,-2396(fp)
    19b0:	e0bdac17 	ldw	r2,-2384(fp)
    19b4:	1885883a 	add	r2,r3,r2
    19b8:	e0bda915 	stw	r2,-2396(fp)
    19bc:	e0beff04 	addi	r2,fp,-1028
    19c0:	1009883a 	mov	r4,r2
    19c4:	e17dac17 	ldw	r5,-2384(fp)
    19c8:	0000eb00 	call	eb0 <execute_cmd>
    19cc:	e0bdad15 	stw	r2,-2380(fp)
    19d0:	e0fdaa17 	ldw	r3,-2392(fp)
    19d4:	e0bdad17 	ldw	r2,-2380(fp)
    19d8:	1885883a 	add	r2,r3,r2
    19dc:	e0bdaa15 	stw	r2,-2392(fp)
    19e0:	e0beff04 	addi	r2,fp,-1028
    19e4:	1009883a 	mov	r4,r2
    19e8:	0000cf40 	call	cf4 <read_rx_fifo>
    19ec:	e0bdac15 	stw	r2,-2384(fp)
    19f0:	e0bdac17 	ldw	r2,-2384(fp)
    19f4:	103fe81e 	bne	r2,zero,1998 <main+0x4b4>
    19f8:	01000034 	movhi	r4,0
    19fc:	21168a04 	addi	r4,r4,23080
    1a00:	e17da917 	ldw	r5,-2396(fp)
    1a04:	e1bdaa17 	ldw	r6,-2392(fp)
    1a08:	0001bf80 	call	1bf8 <printf>
    1a0c:	d0a01503 	ldbu	r2,-32684(gp)
    1a10:	10803fcc 	andi	r2,r2,255
    1a14:	10000426 	beq	r2,zero,1a28 <main+0x544>
    1a18:	01000034 	movhi	r4,0
    1a1c:	21169604 	addi	r4,r4,23128
    1a20:	0001ce40 	call	1ce4 <puts>
    1a24:	00000406 	br	1a38 <main+0x554>
    1a28:	0001883a 	nop
    1a2c:	d0a01503 	ldbu	r2,-32684(gp)
    1a30:	10803fcc 	andi	r2,r2,255
    1a34:	103ffd26 	beq	r2,zero,1a2c <main+0x548>
    1a38:	d0201505 	stb	zero,-32684(gp)
    1a3c:	00c00144 	movi	r3,5
    1a40:	00800134 	movhi	r2,4
    1a44:	10824104 	addi	r2,r2,2308
    1a48:	10c00035 	stwio	r3,0(r2)
    1a4c:	003eda06 	br	15b8 <main+0xd4>

00001a50 <udivmodsi4>:
    1a50:	2900182e 	bgeu	r5,r4,1ab4 <udivmodsi4+0x64>
    1a54:	28001716 	blt	r5,zero,1ab4 <udivmodsi4+0x64>
    1a58:	00800804 	movi	r2,32
    1a5c:	00c00044 	movi	r3,1
    1a60:	00000206 	br	1a6c <udivmodsi4+0x1c>
    1a64:	10001126 	beq	r2,zero,1aac <udivmodsi4+0x5c>
    1a68:	28000516 	blt	r5,zero,1a80 <udivmodsi4+0x30>
    1a6c:	294b883a 	add	r5,r5,r5
    1a70:	10bfffc4 	addi	r2,r2,-1
    1a74:	18c7883a 	add	r3,r3,r3
    1a78:	293ffa36 	bltu	r5,r4,1a64 <udivmodsi4+0x14>
    1a7c:	18000b26 	beq	r3,zero,1aac <udivmodsi4+0x5c>
    1a80:	0005883a 	mov	r2,zero
    1a84:	21400236 	bltu	r4,r5,1a90 <udivmodsi4+0x40>
    1a88:	2149c83a 	sub	r4,r4,r5
    1a8c:	10c4b03a 	or	r2,r2,r3
    1a90:	1806d07a 	srli	r3,r3,1
    1a94:	280ad07a 	srli	r5,r5,1
    1a98:	183ffa1e 	bne	r3,zero,1a84 <udivmodsi4+0x34>
    1a9c:	3000011e 	bne	r6,zero,1aa4 <udivmodsi4+0x54>
    1aa0:	f800283a 	ret
    1aa4:	2005883a 	mov	r2,r4
    1aa8:	f800283a 	ret
    1aac:	0005883a 	mov	r2,zero
    1ab0:	003ffa06 	br	1a9c <udivmodsi4+0x4c>
    1ab4:	00c00044 	movi	r3,1
    1ab8:	003ff106 	br	1a80 <udivmodsi4+0x30>

00001abc <__divsi3>:
    1abc:	defffe04 	addi	sp,sp,-8
    1ac0:	dfc00115 	stw	ra,4(sp)
    1ac4:	dc000015 	stw	r16,0(sp)
    1ac8:	20000b16 	blt	r4,zero,1af8 <__divsi3+0x3c>
    1acc:	0021883a 	mov	r16,zero
    1ad0:	28000c16 	blt	r5,zero,1b04 <__divsi3+0x48>
    1ad4:	000d883a 	mov	r6,zero
    1ad8:	0001a500 	call	1a50 <udivmodsi4>
    1adc:	0407c83a 	sub	r3,zero,r16
    1ae0:	1884f03a 	xor	r2,r3,r2
    1ae4:	1405883a 	add	r2,r2,r16
    1ae8:	dfc00117 	ldw	ra,4(sp)
    1aec:	dc000017 	ldw	r16,0(sp)
    1af0:	dec00204 	addi	sp,sp,8
    1af4:	f800283a 	ret
    1af8:	0109c83a 	sub	r4,zero,r4
    1afc:	04000044 	movi	r16,1
    1b00:	283ff40e 	bge	r5,zero,1ad4 <__divsi3+0x18>
    1b04:	014bc83a 	sub	r5,zero,r5
    1b08:	8400005c 	xori	r16,r16,1
    1b0c:	003ff106 	br	1ad4 <__divsi3+0x18>

00001b10 <__modsi3>:
    1b10:	defffd04 	addi	sp,sp,-12
    1b14:	dfc00215 	stw	ra,8(sp)
    1b18:	dc400115 	stw	r17,4(sp)
    1b1c:	dc000015 	stw	r16,0(sp)
    1b20:	20000c16 	blt	r4,zero,1b54 <__modsi3+0x44>
    1b24:	0023883a 	mov	r17,zero
    1b28:	0021883a 	mov	r16,zero
    1b2c:	28000d16 	blt	r5,zero,1b64 <__modsi3+0x54>
    1b30:	01800044 	movi	r6,1
    1b34:	0001a500 	call	1a50 <udivmodsi4>
    1b38:	1404f03a 	xor	r2,r2,r16
    1b3c:	8885883a 	add	r2,r17,r2
    1b40:	dfc00217 	ldw	ra,8(sp)
    1b44:	dc400117 	ldw	r17,4(sp)
    1b48:	dc000017 	ldw	r16,0(sp)
    1b4c:	dec00304 	addi	sp,sp,12
    1b50:	f800283a 	ret
    1b54:	0109c83a 	sub	r4,zero,r4
    1b58:	04400044 	movi	r17,1
    1b5c:	043fffc4 	movi	r16,-1
    1b60:	283ff30e 	bge	r5,zero,1b30 <__modsi3+0x20>
    1b64:	014bc83a 	sub	r5,zero,r5
    1b68:	003ff106 	br	1b30 <__modsi3+0x20>

00001b6c <__udivsi3>:
    1b6c:	000d883a 	mov	r6,zero
    1b70:	0001a501 	jmpi	1a50 <udivmodsi4>

00001b74 <__umodsi3>:
    1b74:	01800044 	movi	r6,1
    1b78:	0001a501 	jmpi	1a50 <udivmodsi4>

00001b7c <__mulsi3>:
    1b7c:	0005883a 	mov	r2,zero
    1b80:	20000726 	beq	r4,zero,1ba0 <__mulsi3+0x24>
    1b84:	20c0004c 	andi	r3,r4,1
    1b88:	2008d07a 	srli	r4,r4,1
    1b8c:	18000126 	beq	r3,zero,1b94 <__mulsi3+0x18>
    1b90:	1145883a 	add	r2,r2,r5
    1b94:	294b883a 	add	r5,r5,r5
    1b98:	203ffa1e 	bne	r4,zero,1b84 <__mulsi3+0x8>
    1b9c:	f800283a 	ret
    1ba0:	f800283a 	ret

00001ba4 <atoi>:
    1ba4:	000b883a 	mov	r5,zero
    1ba8:	01800284 	movi	r6,10
    1bac:	000209c1 	jmpi	209c <strtol>

00001bb0 <_atoi_r>:
    1bb0:	000d883a 	mov	r6,zero
    1bb4:	01c00284 	movi	r7,10
    1bb8:	0001e741 	jmpi	1e74 <_strtol_r>

00001bbc <_printf_r>:
    1bbc:	defffd04 	addi	sp,sp,-12
    1bc0:	dfc00015 	stw	ra,0(sp)
    1bc4:	d9800115 	stw	r6,4(sp)
    1bc8:	d9c00215 	stw	r7,8(sp)
    1bcc:	20c00217 	ldw	r3,8(r4)
    1bd0:	280d883a 	mov	r6,r5
    1bd4:	01400034 	movhi	r5,0
    1bd8:	2949af04 	addi	r5,r5,9916
    1bdc:	19400115 	stw	r5,4(r3)
    1be0:	21400217 	ldw	r5,8(r4)
    1be4:	d9c00104 	addi	r7,sp,4
    1be8:	000212c0 	call	212c <___vfprintf_internal_r>
    1bec:	dfc00017 	ldw	ra,0(sp)
    1bf0:	dec00304 	addi	sp,sp,12
    1bf4:	f800283a 	ret

00001bf8 <printf>:
    1bf8:	defffc04 	addi	sp,sp,-16
    1bfc:	dfc00015 	stw	ra,0(sp)
    1c00:	d9400115 	stw	r5,4(sp)
    1c04:	d9800215 	stw	r6,8(sp)
    1c08:	d9c00315 	stw	r7,12(sp)
    1c0c:	00800034 	movhi	r2,0
    1c10:	10985704 	addi	r2,r2,24924
    1c14:	10800017 	ldw	r2,0(r2)
    1c18:	200b883a 	mov	r5,r4
    1c1c:	01000034 	movhi	r4,0
    1c20:	10c00217 	ldw	r3,8(r2)
    1c24:	2109af04 	addi	r4,r4,9916
    1c28:	d9800104 	addi	r6,sp,4
    1c2c:	19000115 	stw	r4,4(r3)
    1c30:	11000217 	ldw	r4,8(r2)
    1c34:	00026980 	call	2698 <__vfprintf_internal>
    1c38:	dfc00017 	ldw	ra,0(sp)
    1c3c:	dec00404 	addi	sp,sp,16
    1c40:	f800283a 	ret

00001c44 <_putchar_r>:
    1c44:	21800217 	ldw	r6,8(r4)
    1c48:	0002a241 	jmpi	2a24 <_putc_r>

00001c4c <putchar>:
    1c4c:	00800034 	movhi	r2,0
    1c50:	10985704 	addi	r2,r2,24924
    1c54:	200b883a 	mov	r5,r4
    1c58:	11000017 	ldw	r4,0(r2)
    1c5c:	21800217 	ldw	r6,8(r4)
    1c60:	0002a241 	jmpi	2a24 <_putc_r>

00001c64 <_puts_r>:
    1c64:	defffd04 	addi	sp,sp,-12
    1c68:	dc000015 	stw	r16,0(sp)
    1c6c:	2021883a 	mov	r16,r4
    1c70:	2809883a 	mov	r4,r5
    1c74:	dfc00215 	stw	ra,8(sp)
    1c78:	dc400115 	stw	r17,4(sp)
    1c7c:	2823883a 	mov	r17,r5
    1c80:	0001cf80 	call	1cf8 <strlen>
    1c84:	81400217 	ldw	r5,8(r16)
    1c88:	00c00034 	movhi	r3,0
    1c8c:	18c9af04 	addi	r3,r3,9916
    1c90:	28c00115 	stw	r3,4(r5)
    1c94:	8009883a 	mov	r4,r16
    1c98:	880d883a 	mov	r6,r17
    1c9c:	100f883a 	mov	r7,r2
    1ca0:	00026bc0 	call	26bc <__sfvwrite_small_dev>
    1ca4:	00ffffc4 	movi	r3,-1
    1ca8:	10c00926 	beq	r2,r3,1cd0 <_puts_r+0x6c>
    1cac:	81400217 	ldw	r5,8(r16)
    1cb0:	01800034 	movhi	r6,0
    1cb4:	8009883a 	mov	r4,r16
    1cb8:	28800117 	ldw	r2,4(r5)
    1cbc:	3196a004 	addi	r6,r6,23168
    1cc0:	01c00044 	movi	r7,1
    1cc4:	103ee83a 	callr	r2
    1cc8:	10bfffe0 	cmpeqi	r2,r2,-1
    1ccc:	0085c83a 	sub	r2,zero,r2
    1cd0:	dfc00217 	ldw	ra,8(sp)
    1cd4:	dc400117 	ldw	r17,4(sp)
    1cd8:	dc000017 	ldw	r16,0(sp)
    1cdc:	dec00304 	addi	sp,sp,12
    1ce0:	f800283a 	ret

00001ce4 <puts>:
    1ce4:	00800034 	movhi	r2,0
    1ce8:	10985704 	addi	r2,r2,24924
    1cec:	200b883a 	mov	r5,r4
    1cf0:	11000017 	ldw	r4,0(r2)
    1cf4:	0001c641 	jmpi	1c64 <_puts_r>

00001cf8 <strlen>:
    1cf8:	2005883a 	mov	r2,r4
    1cfc:	10c00007 	ldb	r3,0(r2)
    1d00:	18000226 	beq	r3,zero,1d0c <strlen+0x14>
    1d04:	10800044 	addi	r2,r2,1
    1d08:	003ffc06 	br	1cfc <strlen+0x4>
    1d0c:	1105c83a 	sub	r2,r2,r4
    1d10:	f800283a 	ret

00001d14 <strtok>:
    1d14:	00800034 	movhi	r2,0
    1d18:	defffc04 	addi	sp,sp,-16
    1d1c:	10985704 	addi	r2,r2,24924
    1d20:	dc000115 	stw	r16,4(sp)
    1d24:	14000017 	ldw	r16,0(r2)
    1d28:	dc400215 	stw	r17,8(sp)
    1d2c:	dfc00315 	stw	ra,12(sp)
    1d30:	80803617 	ldw	r2,216(r16)
    1d34:	2023883a 	mov	r17,r4
    1d38:	1000211e 	bne	r2,zero,1dc0 <strtok+0xac>
    1d3c:	01001404 	movi	r4,80
    1d40:	d9400015 	stw	r5,0(sp)
    1d44:	00027680 	call	2768 <malloc>
    1d48:	80803615 	stw	r2,216(r16)
    1d4c:	10000215 	stw	zero,8(r2)
    1d50:	10000015 	stw	zero,0(r2)
    1d54:	10000115 	stw	zero,4(r2)
    1d58:	80803617 	ldw	r2,216(r16)
    1d5c:	10000415 	stw	zero,16(r2)
    1d60:	10000315 	stw	zero,12(r2)
    1d64:	80803617 	ldw	r2,216(r16)
    1d68:	10000615 	stw	zero,24(r2)
    1d6c:	10000515 	stw	zero,20(r2)
    1d70:	80803617 	ldw	r2,216(r16)
    1d74:	10000b15 	stw	zero,44(r2)
    1d78:	10000a15 	stw	zero,40(r2)
    1d7c:	80803617 	ldw	r2,216(r16)
    1d80:	10000d15 	stw	zero,52(r2)
    1d84:	10000c15 	stw	zero,48(r2)
    1d88:	80803617 	ldw	r2,216(r16)
    1d8c:	10000f15 	stw	zero,60(r2)
    1d90:	10000e15 	stw	zero,56(r2)
    1d94:	80803617 	ldw	r2,216(r16)
    1d98:	10001115 	stw	zero,68(r2)
    1d9c:	10001015 	stw	zero,64(r2)
    1da0:	80803617 	ldw	r2,216(r16)
    1da4:	10001315 	stw	zero,76(r2)
    1da8:	10001215 	stw	zero,72(r2)
    1dac:	80803617 	ldw	r2,216(r16)
    1db0:	10000705 	stb	zero,28(r2)
    1db4:	80803617 	ldw	r2,216(r16)
    1db8:	d9400017 	ldw	r5,0(sp)
    1dbc:	10000915 	stw	zero,36(r2)
    1dc0:	81803617 	ldw	r6,216(r16)
    1dc4:	8809883a 	mov	r4,r17
    1dc8:	01c00044 	movi	r7,1
    1dcc:	dfc00317 	ldw	ra,12(sp)
    1dd0:	dc400217 	ldw	r17,8(sp)
    1dd4:	dc000117 	ldw	r16,4(sp)
    1dd8:	dec00404 	addi	sp,sp,16
    1ddc:	0001de01 	jmpi	1de0 <__strtok_r>

00001de0 <__strtok_r>:
    1de0:	2000021e 	bne	r4,zero,1dec <__strtok_r+0xc>
    1de4:	31000017 	ldw	r4,0(r6)
    1de8:	20001e26 	beq	r4,zero,1e64 <__strtok_r+0x84>
    1dec:	2005883a 	mov	r2,r4
    1df0:	12000007 	ldb	r8,0(r2)
    1df4:	21000044 	addi	r4,r4,1
    1df8:	2807883a 	mov	r3,r5
    1dfc:	1a400007 	ldb	r9,0(r3)
    1e00:	48000626 	beq	r9,zero,1e1c <__strtok_r+0x3c>
    1e04:	18c00044 	addi	r3,r3,1
    1e08:	427ffc1e 	bne	r8,r9,1dfc <__strtok_r+0x1c>
    1e0c:	383ff71e 	bne	r7,zero,1dec <__strtok_r+0xc>
    1e10:	31000015 	stw	r4,0(r6)
    1e14:	10000005 	stb	zero,0(r2)
    1e18:	f800283a 	ret
    1e1c:	4000061e 	bne	r8,zero,1e38 <__strtok_r+0x58>
    1e20:	30000015 	stw	zero,0(r6)
    1e24:	00000f06 	br	1e64 <__strtok_r+0x84>
    1e28:	19c00007 	ldb	r7,0(r3)
    1e2c:	3a400726 	beq	r7,r9,1e4c <__strtok_r+0x6c>
    1e30:	18c00044 	addi	r3,r3,1
    1e34:	383ffc1e 	bne	r7,zero,1e28 <__strtok_r+0x48>
    1e38:	2011883a 	mov	r8,r4
    1e3c:	42400007 	ldb	r9,0(r8)
    1e40:	21000044 	addi	r4,r4,1
    1e44:	2807883a 	mov	r3,r5
    1e48:	003ff706 	br	1e28 <__strtok_r+0x48>
    1e4c:	48000226 	beq	r9,zero,1e58 <__strtok_r+0x78>
    1e50:	40000005 	stb	zero,0(r8)
    1e54:	00000106 	br	1e5c <__strtok_r+0x7c>
    1e58:	0009883a 	mov	r4,zero
    1e5c:	31000015 	stw	r4,0(r6)
    1e60:	f800283a 	ret
    1e64:	0005883a 	mov	r2,zero
    1e68:	f800283a 	ret

00001e6c <strtok_r>:
    1e6c:	01c00044 	movi	r7,1
    1e70:	0001de01 	jmpi	1de0 <__strtok_r>

00001e74 <_strtol_r>:
    1e74:	00800034 	movhi	r2,0
    1e78:	defff304 	addi	sp,sp,-52
    1e7c:	10985504 	addi	r2,r2,24916
    1e80:	dc800515 	stw	r18,20(sp)
    1e84:	14800017 	ldw	r18,0(r2)
    1e88:	df000b15 	stw	fp,44(sp)
    1e8c:	ddc00a15 	stw	r23,40(sp)
    1e90:	dd000715 	stw	r20,28(sp)
    1e94:	dc000315 	stw	r16,12(sp)
    1e98:	dfc00c15 	stw	ra,48(sp)
    1e9c:	dd800915 	stw	r22,36(sp)
    1ea0:	dd400815 	stw	r21,32(sp)
    1ea4:	dcc00615 	stw	r19,24(sp)
    1ea8:	dc400415 	stw	r17,16(sp)
    1eac:	d9000015 	stw	r4,0(sp)
    1eb0:	2829883a 	mov	r20,r5
    1eb4:	302f883a 	mov	r23,r6
    1eb8:	3839883a 	mov	fp,r7
    1ebc:	2821883a 	mov	r16,r5
    1ec0:	8005883a 	mov	r2,r16
    1ec4:	14400003 	ldbu	r17,0(r2)
    1ec8:	84000044 	addi	r16,r16,1
    1ecc:	9447883a 	add	r3,r18,r17
    1ed0:	18c00043 	ldbu	r3,1(r3)
    1ed4:	18c0020c 	andi	r3,r3,8
    1ed8:	183ff91e 	bne	r3,zero,1ec0 <_strtol_r+0x4c>
    1edc:	00c00b44 	movi	r3,45
    1ee0:	88c0041e 	bne	r17,r3,1ef4 <_strtol_r+0x80>
    1ee4:	14000084 	addi	r16,r2,2
    1ee8:	14400043 	ldbu	r17,1(r2)
    1eec:	04c00044 	movi	r19,1
    1ef0:	00000506 	br	1f08 <_strtol_r+0x94>
    1ef4:	00c00ac4 	movi	r3,43
    1ef8:	88c0021e 	bne	r17,r3,1f04 <_strtol_r+0x90>
    1efc:	14400043 	ldbu	r17,1(r2)
    1f00:	14000084 	addi	r16,r2,2
    1f04:	0027883a 	mov	r19,zero
    1f08:	e0000326 	beq	fp,zero,1f18 <_strtol_r+0xa4>
    1f0c:	00800404 	movi	r2,16
    1f10:	e0800a1e 	bne	fp,r2,1f3c <_strtol_r+0xc8>
    1f14:	00005206 	br	2060 <_strtol_r+0x1ec>
    1f18:	00800c04 	movi	r2,48
    1f1c:	88804e1e 	bne	r17,r2,2058 <_strtol_r+0x1e4>
    1f20:	80800003 	ldbu	r2,0(r16)
    1f24:	00c01604 	movi	r3,88
    1f28:	108037cc 	andi	r2,r2,223
    1f2c:	10c0461e 	bne	r2,r3,2048 <_strtol_r+0x1d4>
    1f30:	84400043 	ldbu	r17,1(r16)
    1f34:	07000404 	movi	fp,16
    1f38:	84000084 	addi	r16,r16,2
    1f3c:	05a00034 	movhi	r22,32768
    1f40:	b5bfffc4 	addi	r22,r22,-1
    1f44:	9dad883a 	add	r22,r19,r22
    1f48:	b009883a 	mov	r4,r22
    1f4c:	e00b883a 	mov	r5,fp
    1f50:	0001b740 	call	1b74 <__umodsi3>
    1f54:	b009883a 	mov	r4,r22
    1f58:	e00b883a 	mov	r5,fp
    1f5c:	102b883a 	mov	r21,r2
    1f60:	0001b6c0 	call	1b6c <__udivsi3>
    1f64:	102d883a 	mov	r22,r2
    1f68:	0009883a 	mov	r4,zero
    1f6c:	0007883a 	mov	r3,zero
    1f70:	01c00044 	movi	r7,1
    1f74:	027fffc4 	movi	r9,-1
    1f78:	9445883a 	add	r2,r18,r17
    1f7c:	12000043 	ldbu	r8,1(r2)
    1f80:	4080010c 	andi	r2,r8,4
    1f84:	10000226 	beq	r2,zero,1f90 <_strtol_r+0x11c>
    1f88:	8c7ff404 	addi	r17,r17,-48
    1f8c:	00000706 	br	1fac <_strtol_r+0x138>
    1f90:	420000cc 	andi	r8,r8,3
    1f94:	40001826 	beq	r8,zero,1ff8 <_strtol_r+0x184>
    1f98:	41c00226 	beq	r8,r7,1fa4 <_strtol_r+0x130>
    1f9c:	020015c4 	movi	r8,87
    1fa0:	00000106 	br	1fa8 <_strtol_r+0x134>
    1fa4:	02000dc4 	movi	r8,55
    1fa8:	8a23c83a 	sub	r17,r17,r8
    1fac:	8f00120e 	bge	r17,fp,1ff8 <_strtol_r+0x184>
    1fb0:	22400e26 	beq	r4,r9,1fec <_strtol_r+0x178>
    1fb4:	b0c00c36 	bltu	r22,r3,1fe8 <_strtol_r+0x174>
    1fb8:	1d80011e 	bne	r3,r22,1fc0 <_strtol_r+0x14c>
    1fbc:	ac400a16 	blt	r21,r17,1fe8 <_strtol_r+0x174>
    1fc0:	1809883a 	mov	r4,r3
    1fc4:	e00b883a 	mov	r5,fp
    1fc8:	d9c00115 	stw	r7,4(sp)
    1fcc:	da400215 	stw	r9,8(sp)
    1fd0:	0001b7c0 	call	1b7c <__mulsi3>
    1fd4:	8887883a 	add	r3,r17,r2
    1fd8:	01000044 	movi	r4,1
    1fdc:	d9c00117 	ldw	r7,4(sp)
    1fe0:	da400217 	ldw	r9,8(sp)
    1fe4:	00000106 	br	1fec <_strtol_r+0x178>
    1fe8:	013fffc4 	movi	r4,-1
    1fec:	84400003 	ldbu	r17,0(r16)
    1ff0:	84000044 	addi	r16,r16,1
    1ff4:	003fe006 	br	1f78 <_strtol_r+0x104>
    1ff8:	017fffc4 	movi	r5,-1
    1ffc:	1805883a 	mov	r2,r3
    2000:	2140081e 	bne	r4,r5,2024 <_strtol_r+0x1b0>
    2004:	d9000017 	ldw	r4,0(sp)
    2008:	00a00034 	movhi	r2,32768
    200c:	00c00884 	movi	r3,34
    2010:	1145883a 	add	r2,r2,r5
    2014:	20c00015 	stw	r3,0(r4)
    2018:	9885883a 	add	r2,r19,r2
    201c:	b800051e 	bne	r23,zero,2034 <_strtol_r+0x1c0>
    2020:	00001206 	br	206c <_strtol_r+0x1f8>
    2024:	98000126 	beq	r19,zero,202c <_strtol_r+0x1b8>
    2028:	00c5c83a 	sub	r2,zero,r3
    202c:	b8000f26 	beq	r23,zero,206c <_strtol_r+0x1f8>
    2030:	20000226 	beq	r4,zero,203c <_strtol_r+0x1c8>
    2034:	843fffc4 	addi	r16,r16,-1
    2038:	00000106 	br	2040 <_strtol_r+0x1cc>
    203c:	a021883a 	mov	r16,r20
    2040:	bc000015 	stw	r16,0(r23)
    2044:	00000906 	br	206c <_strtol_r+0x1f8>
    2048:	04400c04 	movi	r17,48
    204c:	e03fbb1e 	bne	fp,zero,1f3c <_strtol_r+0xc8>
    2050:	07000204 	movi	fp,8
    2054:	003fb906 	br	1f3c <_strtol_r+0xc8>
    2058:	07000284 	movi	fp,10
    205c:	003fb706 	br	1f3c <_strtol_r+0xc8>
    2060:	00800c04 	movi	r2,48
    2064:	88bfb51e 	bne	r17,r2,1f3c <_strtol_r+0xc8>
    2068:	003fad06 	br	1f20 <_strtol_r+0xac>
    206c:	dfc00c17 	ldw	ra,48(sp)
    2070:	df000b17 	ldw	fp,44(sp)
    2074:	ddc00a17 	ldw	r23,40(sp)
    2078:	dd800917 	ldw	r22,36(sp)
    207c:	dd400817 	ldw	r21,32(sp)
    2080:	dd000717 	ldw	r20,28(sp)
    2084:	dcc00617 	ldw	r19,24(sp)
    2088:	dc800517 	ldw	r18,20(sp)
    208c:	dc400417 	ldw	r17,16(sp)
    2090:	dc000317 	ldw	r16,12(sp)
    2094:	dec00d04 	addi	sp,sp,52
    2098:	f800283a 	ret

0000209c <strtol>:
    209c:	2007883a 	mov	r3,r4
    20a0:	01000034 	movhi	r4,0
    20a4:	21185704 	addi	r4,r4,24924
    20a8:	21000017 	ldw	r4,0(r4)
    20ac:	2805883a 	mov	r2,r5
    20b0:	300f883a 	mov	r7,r6
    20b4:	180b883a 	mov	r5,r3
    20b8:	100d883a 	mov	r6,r2
    20bc:	0001e741 	jmpi	1e74 <_strtol_r>

000020c0 <print_repeat>:
    20c0:	defffb04 	addi	sp,sp,-20
    20c4:	dc800315 	stw	r18,12(sp)
    20c8:	dc400215 	stw	r17,8(sp)
    20cc:	dc000115 	stw	r16,4(sp)
    20d0:	dfc00415 	stw	ra,16(sp)
    20d4:	2025883a 	mov	r18,r4
    20d8:	2823883a 	mov	r17,r5
    20dc:	d9800005 	stb	r6,0(sp)
    20e0:	3821883a 	mov	r16,r7
    20e4:	04000a0e 	bge	zero,r16,2110 <print_repeat+0x50>
    20e8:	88800117 	ldw	r2,4(r17)
    20ec:	9009883a 	mov	r4,r18
    20f0:	880b883a 	mov	r5,r17
    20f4:	d80d883a 	mov	r6,sp
    20f8:	01c00044 	movi	r7,1
    20fc:	103ee83a 	callr	r2
    2100:	843fffc4 	addi	r16,r16,-1
    2104:	103ff726 	beq	r2,zero,20e4 <print_repeat+0x24>
    2108:	00bfffc4 	movi	r2,-1
    210c:	00000106 	br	2114 <print_repeat+0x54>
    2110:	0005883a 	mov	r2,zero
    2114:	dfc00417 	ldw	ra,16(sp)
    2118:	dc800317 	ldw	r18,12(sp)
    211c:	dc400217 	ldw	r17,8(sp)
    2120:	dc000117 	ldw	r16,4(sp)
    2124:	dec00504 	addi	sp,sp,20
    2128:	f800283a 	ret

0000212c <___vfprintf_internal_r>:
    212c:	deffe304 	addi	sp,sp,-116
    2130:	d8c00804 	addi	r3,sp,32
    2134:	df001b15 	stw	fp,108(sp)
    2138:	ddc01a15 	stw	r23,104(sp)
    213c:	dd801915 	stw	r22,100(sp)
    2140:	dd401815 	stw	r21,96(sp)
    2144:	dd001715 	stw	r20,92(sp)
    2148:	dcc01615 	stw	r19,88(sp)
    214c:	dc801515 	stw	r18,84(sp)
    2150:	dc401415 	stw	r17,80(sp)
    2154:	dc001315 	stw	r16,76(sp)
    2158:	dfc01c15 	stw	ra,112(sp)
    215c:	2029883a 	mov	r20,r4
    2160:	2823883a 	mov	r17,r5
    2164:	3839883a 	mov	fp,r7
    2168:	d9800f15 	stw	r6,60(sp)
    216c:	0021883a 	mov	r16,zero
    2170:	d8000e15 	stw	zero,56(sp)
    2174:	002f883a 	mov	r23,zero
    2178:	002b883a 	mov	r21,zero
    217c:	0027883a 	mov	r19,zero
    2180:	0025883a 	mov	r18,zero
    2184:	d8000c15 	stw	zero,48(sp)
    2188:	d8000b15 	stw	zero,44(sp)
    218c:	002d883a 	mov	r22,zero
    2190:	d8c00915 	stw	r3,36(sp)
    2194:	d8c00f17 	ldw	r3,60(sp)
    2198:	19000003 	ldbu	r4,0(r3)
    219c:	20803fcc 	andi	r2,r4,255
    21a0:	1080201c 	xori	r2,r2,128
    21a4:	10bfe004 	addi	r2,r2,-128
    21a8:	10012e26 	beq	r2,zero,2664 <___vfprintf_internal_r+0x538>
    21ac:	01400044 	movi	r5,1
    21b0:	b1401426 	beq	r22,r5,2204 <___vfprintf_internal_r+0xd8>
    21b4:	2d800216 	blt	r5,r22,21c0 <___vfprintf_internal_r+0x94>
    21b8:	b0000626 	beq	r22,zero,21d4 <___vfprintf_internal_r+0xa8>
    21bc:	00012506 	br	2654 <___vfprintf_internal_r+0x528>
    21c0:	01400084 	movi	r5,2
    21c4:	b1401d26 	beq	r22,r5,223c <___vfprintf_internal_r+0x110>
    21c8:	014000c4 	movi	r5,3
    21cc:	b1402b26 	beq	r22,r5,227c <___vfprintf_internal_r+0x150>
    21d0:	00012006 	br	2654 <___vfprintf_internal_r+0x528>
    21d4:	01400944 	movi	r5,37
    21d8:	11410d26 	beq	r2,r5,2610 <___vfprintf_internal_r+0x4e4>
    21dc:	88800117 	ldw	r2,4(r17)
    21e0:	d9000005 	stb	r4,0(sp)
    21e4:	880b883a 	mov	r5,r17
    21e8:	a009883a 	mov	r4,r20
    21ec:	d80d883a 	mov	r6,sp
    21f0:	01c00044 	movi	r7,1
    21f4:	103ee83a 	callr	r2
    21f8:	1000e81e 	bne	r2,zero,259c <___vfprintf_internal_r+0x470>
    21fc:	84000044 	addi	r16,r16,1
    2200:	00011406 	br	2654 <___vfprintf_internal_r+0x528>
    2204:	01400c04 	movi	r5,48
    2208:	11410a26 	beq	r2,r5,2634 <___vfprintf_internal_r+0x508>
    220c:	01400944 	movi	r5,37
    2210:	11400a1e 	bne	r2,r5,223c <___vfprintf_internal_r+0x110>
    2214:	d8800005 	stb	r2,0(sp)
    2218:	88800117 	ldw	r2,4(r17)
    221c:	a009883a 	mov	r4,r20
    2220:	880b883a 	mov	r5,r17
    2224:	d80d883a 	mov	r6,sp
    2228:	b00f883a 	mov	r7,r22
    222c:	103ee83a 	callr	r2
    2230:	1000da1e 	bne	r2,zero,259c <___vfprintf_internal_r+0x470>
    2234:	84000044 	addi	r16,r16,1
    2238:	00010506 	br	2650 <___vfprintf_internal_r+0x524>
    223c:	25bff404 	addi	r22,r4,-48
    2240:	b5803fcc 	andi	r22,r22,255
    2244:	00c00244 	movi	r3,9
    2248:	1d800936 	bltu	r3,r22,2270 <___vfprintf_internal_r+0x144>
    224c:	00bfffc4 	movi	r2,-1
    2250:	90800426 	beq	r18,r2,2264 <___vfprintf_internal_r+0x138>
    2254:	9009883a 	mov	r4,r18
    2258:	01400284 	movi	r5,10
    225c:	0001b7c0 	call	1b7c <__mulsi3>
    2260:	00000106 	br	2268 <___vfprintf_internal_r+0x13c>
    2264:	0005883a 	mov	r2,zero
    2268:	15a5883a 	add	r18,r2,r22
    226c:	0000f206 	br	2638 <___vfprintf_internal_r+0x50c>
    2270:	01400b84 	movi	r5,46
    2274:	1140f426 	beq	r2,r5,2648 <___vfprintf_internal_r+0x51c>
    2278:	05800084 	movi	r22,2
    227c:	213ff404 	addi	r4,r4,-48
    2280:	20c03fcc 	andi	r3,r4,255
    2284:	01000244 	movi	r4,9
    2288:	20c00b36 	bltu	r4,r3,22b8 <___vfprintf_internal_r+0x18c>
    228c:	00bfffc4 	movi	r2,-1
    2290:	98800626 	beq	r19,r2,22ac <___vfprintf_internal_r+0x180>
    2294:	9809883a 	mov	r4,r19
    2298:	01400284 	movi	r5,10
    229c:	d8c01115 	stw	r3,68(sp)
    22a0:	0001b7c0 	call	1b7c <__mulsi3>
    22a4:	d8c01117 	ldw	r3,68(sp)
    22a8:	00000106 	br	22b0 <___vfprintf_internal_r+0x184>
    22ac:	0005883a 	mov	r2,zero
    22b0:	10e7883a 	add	r19,r2,r3
    22b4:	0000e706 	br	2654 <___vfprintf_internal_r+0x528>
    22b8:	01401b04 	movi	r5,108
    22bc:	1140e026 	beq	r2,r5,2640 <___vfprintf_internal_r+0x514>
    22c0:	013fffc4 	movi	r4,-1
    22c4:	99000226 	beq	r19,r4,22d0 <___vfprintf_internal_r+0x1a4>
    22c8:	d8000b15 	stw	zero,44(sp)
    22cc:	00000106 	br	22d4 <___vfprintf_internal_r+0x1a8>
    22d0:	04c00044 	movi	r19,1
    22d4:	01001a44 	movi	r4,105
    22d8:	11001626 	beq	r2,r4,2334 <___vfprintf_internal_r+0x208>
    22dc:	20800916 	blt	r4,r2,2304 <___vfprintf_internal_r+0x1d8>
    22e0:	010018c4 	movi	r4,99
    22e4:	11009626 	beq	r2,r4,2540 <___vfprintf_internal_r+0x414>
    22e8:	01001904 	movi	r4,100
    22ec:	11001126 	beq	r2,r4,2334 <___vfprintf_internal_r+0x208>
    22f0:	01001604 	movi	r4,88
    22f4:	1100d61e 	bne	r2,r4,2650 <___vfprintf_internal_r+0x524>
    22f8:	00c00044 	movi	r3,1
    22fc:	d8c00e15 	stw	r3,56(sp)
    2300:	00001406 	br	2354 <___vfprintf_internal_r+0x228>
    2304:	01001cc4 	movi	r4,115
    2308:	1100a626 	beq	r2,r4,25a4 <___vfprintf_internal_r+0x478>
    230c:	20800416 	blt	r4,r2,2320 <___vfprintf_internal_r+0x1f4>
    2310:	01001bc4 	movi	r4,111
    2314:	1100ce1e 	bne	r2,r4,2650 <___vfprintf_internal_r+0x524>
    2318:	05400204 	movi	r21,8
    231c:	00000e06 	br	2358 <___vfprintf_internal_r+0x22c>
    2320:	01001d44 	movi	r4,117
    2324:	11000c26 	beq	r2,r4,2358 <___vfprintf_internal_r+0x22c>
    2328:	01001e04 	movi	r4,120
    232c:	11000926 	beq	r2,r4,2354 <___vfprintf_internal_r+0x228>
    2330:	0000c706 	br	2650 <___vfprintf_internal_r+0x524>
    2334:	e0800104 	addi	r2,fp,4
    2338:	b8000726 	beq	r23,zero,2358 <___vfprintf_internal_r+0x22c>
    233c:	d8800d15 	stw	r2,52(sp)
    2340:	e7000017 	ldw	fp,0(fp)
    2344:	e000080e 	bge	fp,zero,2368 <___vfprintf_internal_r+0x23c>
    2348:	0739c83a 	sub	fp,zero,fp
    234c:	02000044 	movi	r8,1
    2350:	00000606 	br	236c <___vfprintf_internal_r+0x240>
    2354:	05400404 	movi	r21,16
    2358:	e0c00104 	addi	r3,fp,4
    235c:	d8c00d15 	stw	r3,52(sp)
    2360:	e7000017 	ldw	fp,0(fp)
    2364:	002f883a 	mov	r23,zero
    2368:	0011883a 	mov	r8,zero
    236c:	002d883a 	mov	r22,zero
    2370:	dd87883a 	add	r3,sp,r22
    2374:	e0001a26 	beq	fp,zero,23e0 <___vfprintf_internal_r+0x2b4>
    2378:	e009883a 	mov	r4,fp
    237c:	a80b883a 	mov	r5,r21
    2380:	d8c01115 	stw	r3,68(sp)
    2384:	da001215 	stw	r8,72(sp)
    2388:	0001b6c0 	call	1b6c <__udivsi3>
    238c:	a809883a 	mov	r4,r21
    2390:	100b883a 	mov	r5,r2
    2394:	d8801015 	stw	r2,64(sp)
    2398:	0001b7c0 	call	1b7c <__mulsi3>
    239c:	e085c83a 	sub	r2,fp,r2
    23a0:	01000244 	movi	r4,9
    23a4:	d8c01117 	ldw	r3,68(sp)
    23a8:	d9801017 	ldw	r6,64(sp)
    23ac:	da001217 	ldw	r8,72(sp)
    23b0:	20800216 	blt	r4,r2,23bc <___vfprintf_internal_r+0x290>
    23b4:	17000c04 	addi	fp,r2,48
    23b8:	00000506 	br	23d0 <___vfprintf_internal_r+0x2a4>
    23bc:	d9400e17 	ldw	r5,56(sp)
    23c0:	28000226 	beq	r5,zero,23cc <___vfprintf_internal_r+0x2a0>
    23c4:	17000dc4 	addi	fp,r2,55
    23c8:	00000106 	br	23d0 <___vfprintf_internal_r+0x2a4>
    23cc:	170015c4 	addi	fp,r2,87
    23d0:	1f000005 	stb	fp,0(r3)
    23d4:	b5800044 	addi	r22,r22,1
    23d8:	3039883a 	mov	fp,r6
    23dc:	003fe406 	br	2370 <___vfprintf_internal_r+0x244>
    23e0:	1ec5c83a 	sub	r2,r3,sp
    23e4:	d8800a15 	stw	r2,40(sp)
    23e8:	9885c83a 	sub	r2,r19,r2
    23ec:	1839883a 	mov	fp,r3
    23f0:	00800e0e 	bge	zero,r2,242c <___vfprintf_internal_r+0x300>
    23f4:	182d883a 	mov	r22,r3
    23f8:	1885883a 	add	r2,r3,r2
    23fc:	01000c04 	movi	r4,48
    2400:	d9400917 	ldw	r5,36(sp)
    2404:	b007883a 	mov	r3,r22
    2408:	b140052e 	bgeu	r22,r5,2420 <___vfprintf_internal_r+0x2f4>
    240c:	b5800044 	addi	r22,r22,1
    2410:	19000005 	stb	r4,0(r3)
    2414:	b039883a 	mov	fp,r22
    2418:	b0bff91e 	bne	r22,r2,2400 <___vfprintf_internal_r+0x2d4>
    241c:	00000106 	br	2424 <___vfprintf_internal_r+0x2f8>
    2420:	b039883a 	mov	fp,r22
    2424:	b6edc83a 	sub	r22,r22,sp
    2428:	dd800a15 	stw	r22,40(sp)
    242c:	d8800a17 	ldw	r2,40(sp)
    2430:	1207883a 	add	r3,r2,r8
    2434:	90edc83a 	sub	r22,r18,r3
    2438:	d8c00b17 	ldw	r3,44(sp)
    243c:	18001726 	beq	r3,zero,249c <___vfprintf_internal_r+0x370>
    2440:	40000a26 	beq	r8,zero,246c <___vfprintf_internal_r+0x340>
    2444:	00800b44 	movi	r2,45
    2448:	d8800805 	stb	r2,32(sp)
    244c:	88800117 	ldw	r2,4(r17)
    2450:	a009883a 	mov	r4,r20
    2454:	880b883a 	mov	r5,r17
    2458:	d9800804 	addi	r6,sp,32
    245c:	01c00044 	movi	r7,1
    2460:	103ee83a 	callr	r2
    2464:	10004d1e 	bne	r2,zero,259c <___vfprintf_internal_r+0x470>
    2468:	84000044 	addi	r16,r16,1
    246c:	0580070e 	bge	zero,r22,248c <___vfprintf_internal_r+0x360>
    2470:	a009883a 	mov	r4,r20
    2474:	880b883a 	mov	r5,r17
    2478:	01800c04 	movi	r6,48
    247c:	b00f883a 	mov	r7,r22
    2480:	00020c00 	call	20c0 <print_repeat>
    2484:	1000451e 	bne	r2,zero,259c <___vfprintf_internal_r+0x470>
    2488:	85a1883a 	add	r16,r16,r22
    248c:	d9000a17 	ldw	r4,40(sp)
    2490:	e007883a 	mov	r3,fp
    2494:	272dc83a 	sub	r22,r4,fp
    2498:	00002206 	br	2524 <___vfprintf_internal_r+0x3f8>
    249c:	0580090e 	bge	zero,r22,24c4 <___vfprintf_internal_r+0x398>
    24a0:	a009883a 	mov	r4,r20
    24a4:	880b883a 	mov	r5,r17
    24a8:	01800804 	movi	r6,32
    24ac:	b00f883a 	mov	r7,r22
    24b0:	da001215 	stw	r8,72(sp)
    24b4:	00020c00 	call	20c0 <print_repeat>
    24b8:	da001217 	ldw	r8,72(sp)
    24bc:	1000371e 	bne	r2,zero,259c <___vfprintf_internal_r+0x470>
    24c0:	85a1883a 	add	r16,r16,r22
    24c4:	403ff126 	beq	r8,zero,248c <___vfprintf_internal_r+0x360>
    24c8:	00800b44 	movi	r2,45
    24cc:	d8800805 	stb	r2,32(sp)
    24d0:	88800117 	ldw	r2,4(r17)
    24d4:	a009883a 	mov	r4,r20
    24d8:	880b883a 	mov	r5,r17
    24dc:	d9800804 	addi	r6,sp,32
    24e0:	01c00044 	movi	r7,1
    24e4:	103ee83a 	callr	r2
    24e8:	10002c1e 	bne	r2,zero,259c <___vfprintf_internal_r+0x470>
    24ec:	84000044 	addi	r16,r16,1
    24f0:	003fe606 	br	248c <___vfprintf_internal_r+0x360>
    24f4:	18ffffc4 	addi	r3,r3,-1
    24f8:	18800003 	ldbu	r2,0(r3)
    24fc:	a009883a 	mov	r4,r20
    2500:	d8c01115 	stw	r3,68(sp)
    2504:	d8800805 	stb	r2,32(sp)
    2508:	88800117 	ldw	r2,4(r17)
    250c:	880b883a 	mov	r5,r17
    2510:	d9800804 	addi	r6,sp,32
    2514:	01c00044 	movi	r7,1
    2518:	103ee83a 	callr	r2
    251c:	d8c01117 	ldw	r3,68(sp)
    2520:	10001e1e 	bne	r2,zero,259c <___vfprintf_internal_r+0x470>
    2524:	80c5c83a 	sub	r2,r16,r3
    2528:	1d89883a 	add	r4,r3,r22
    252c:	e085883a 	add	r2,fp,r2
    2530:	013ff016 	blt	zero,r4,24f4 <___vfprintf_internal_r+0x3c8>
    2534:	1021883a 	mov	r16,r2
    2538:	df000d17 	ldw	fp,52(sp)
    253c:	00004406 	br	2650 <___vfprintf_internal_r+0x524>
    2540:	01000044 	movi	r4,1
    2544:	2480080e 	bge	r4,r18,2568 <___vfprintf_internal_r+0x43c>
    2548:	95bfffc4 	addi	r22,r18,-1
    254c:	a009883a 	mov	r4,r20
    2550:	880b883a 	mov	r5,r17
    2554:	01800804 	movi	r6,32
    2558:	b00f883a 	mov	r7,r22
    255c:	00020c00 	call	20c0 <print_repeat>
    2560:	10000e1e 	bne	r2,zero,259c <___vfprintf_internal_r+0x470>
    2564:	85a1883a 	add	r16,r16,r22
    2568:	e0800017 	ldw	r2,0(fp)
    256c:	a009883a 	mov	r4,r20
    2570:	880b883a 	mov	r5,r17
    2574:	d8800005 	stb	r2,0(sp)
    2578:	88800117 	ldw	r2,4(r17)
    257c:	d80d883a 	mov	r6,sp
    2580:	01c00044 	movi	r7,1
    2584:	e5800104 	addi	r22,fp,4
    2588:	103ee83a 	callr	r2
    258c:	1000031e 	bne	r2,zero,259c <___vfprintf_internal_r+0x470>
    2590:	84000044 	addi	r16,r16,1
    2594:	b039883a 	mov	fp,r22
    2598:	00002d06 	br	2650 <___vfprintf_internal_r+0x524>
    259c:	00bfffc4 	movi	r2,-1
    25a0:	00003106 	br	2668 <___vfprintf_internal_r+0x53c>
    25a4:	e5800017 	ldw	r22,0(fp)
    25a8:	e0c00104 	addi	r3,fp,4
    25ac:	d8c00a15 	stw	r3,40(sp)
    25b0:	b009883a 	mov	r4,r22
    25b4:	0001cf80 	call	1cf8 <strlen>
    25b8:	9091c83a 	sub	r8,r18,r2
    25bc:	1039883a 	mov	fp,r2
    25c0:	0200090e 	bge	zero,r8,25e8 <___vfprintf_internal_r+0x4bc>
    25c4:	400f883a 	mov	r7,r8
    25c8:	a009883a 	mov	r4,r20
    25cc:	880b883a 	mov	r5,r17
    25d0:	01800804 	movi	r6,32
    25d4:	da001215 	stw	r8,72(sp)
    25d8:	00020c00 	call	20c0 <print_repeat>
    25dc:	da001217 	ldw	r8,72(sp)
    25e0:	103fee1e 	bne	r2,zero,259c <___vfprintf_internal_r+0x470>
    25e4:	8221883a 	add	r16,r16,r8
    25e8:	88800117 	ldw	r2,4(r17)
    25ec:	a009883a 	mov	r4,r20
    25f0:	880b883a 	mov	r5,r17
    25f4:	b00d883a 	mov	r6,r22
    25f8:	e00f883a 	mov	r7,fp
    25fc:	103ee83a 	callr	r2
    2600:	103fe61e 	bne	r2,zero,259c <___vfprintf_internal_r+0x470>
    2604:	8721883a 	add	r16,r16,fp
    2608:	df000a17 	ldw	fp,40(sp)
    260c:	00001006 	br	2650 <___vfprintf_internal_r+0x524>
    2610:	05c00044 	movi	r23,1
    2614:	04ffffc4 	movi	r19,-1
    2618:	d8000e15 	stw	zero,56(sp)
    261c:	05400284 	movi	r21,10
    2620:	9825883a 	mov	r18,r19
    2624:	d8000c15 	stw	zero,48(sp)
    2628:	d8000b15 	stw	zero,44(sp)
    262c:	b82d883a 	mov	r22,r23
    2630:	00000806 	br	2654 <___vfprintf_internal_r+0x528>
    2634:	dd800b15 	stw	r22,44(sp)
    2638:	05800084 	movi	r22,2
    263c:	00000506 	br	2654 <___vfprintf_internal_r+0x528>
    2640:	00c00044 	movi	r3,1
    2644:	d8c00c15 	stw	r3,48(sp)
    2648:	058000c4 	movi	r22,3
    264c:	00000106 	br	2654 <___vfprintf_internal_r+0x528>
    2650:	002d883a 	mov	r22,zero
    2654:	d8c00f17 	ldw	r3,60(sp)
    2658:	18c00044 	addi	r3,r3,1
    265c:	d8c00f15 	stw	r3,60(sp)
    2660:	003ecc06 	br	2194 <___vfprintf_internal_r+0x68>
    2664:	8005883a 	mov	r2,r16
    2668:	dfc01c17 	ldw	ra,112(sp)
    266c:	df001b17 	ldw	fp,108(sp)
    2670:	ddc01a17 	ldw	r23,104(sp)
    2674:	dd801917 	ldw	r22,100(sp)
    2678:	dd401817 	ldw	r21,96(sp)
    267c:	dd001717 	ldw	r20,92(sp)
    2680:	dcc01617 	ldw	r19,88(sp)
    2684:	dc801517 	ldw	r18,84(sp)
    2688:	dc401417 	ldw	r17,80(sp)
    268c:	dc001317 	ldw	r16,76(sp)
    2690:	dec01d04 	addi	sp,sp,116
    2694:	f800283a 	ret

00002698 <__vfprintf_internal>:
    2698:	2007883a 	mov	r3,r4
    269c:	01000034 	movhi	r4,0
    26a0:	21185704 	addi	r4,r4,24924
    26a4:	21000017 	ldw	r4,0(r4)
    26a8:	2805883a 	mov	r2,r5
    26ac:	300f883a 	mov	r7,r6
    26b0:	180b883a 	mov	r5,r3
    26b4:	100d883a 	mov	r6,r2
    26b8:	000212c1 	jmpi	212c <___vfprintf_internal_r>

000026bc <__sfvwrite_small_dev>:
    26bc:	2880000b 	ldhu	r2,0(r5)
    26c0:	defffa04 	addi	sp,sp,-24
    26c4:	dc000015 	stw	r16,0(sp)
    26c8:	dfc00515 	stw	ra,20(sp)
    26cc:	dd000415 	stw	r20,16(sp)
    26d0:	dcc00315 	stw	r19,12(sp)
    26d4:	dc800215 	stw	r18,8(sp)
    26d8:	dc400115 	stw	r17,4(sp)
    26dc:	1080020c 	andi	r2,r2,8
    26e0:	2821883a 	mov	r16,r5
    26e4:	10001726 	beq	r2,zero,2744 <__sfvwrite_small_dev+0x88>
    26e8:	2880008f 	ldh	r2,2(r5)
    26ec:	10001216 	blt	r2,zero,2738 <__sfvwrite_small_dev+0x7c>
    26f0:	2027883a 	mov	r19,r4
    26f4:	3025883a 	mov	r18,r6
    26f8:	3823883a 	mov	r17,r7
    26fc:	05010004 	movi	r20,1024
    2700:	04400b0e 	bge	zero,r17,2730 <__sfvwrite_small_dev+0x74>
    2704:	8140008f 	ldh	r5,2(r16)
    2708:	880f883a 	mov	r7,r17
    270c:	a440010e 	bge	r20,r17,2714 <__sfvwrite_small_dev+0x58>
    2710:	01c10004 	movi	r7,1024
    2714:	9809883a 	mov	r4,r19
    2718:	900d883a 	mov	r6,r18
    271c:	0002acc0 	call	2acc <_write_r>
    2720:	0080050e 	bge	zero,r2,2738 <__sfvwrite_small_dev+0x7c>
    2724:	88a3c83a 	sub	r17,r17,r2
    2728:	90a5883a 	add	r18,r18,r2
    272c:	003ff406 	br	2700 <__sfvwrite_small_dev+0x44>
    2730:	0005883a 	mov	r2,zero
    2734:	00000406 	br	2748 <__sfvwrite_small_dev+0x8c>
    2738:	8080000b 	ldhu	r2,0(r16)
    273c:	10801014 	ori	r2,r2,64
    2740:	8080000d 	sth	r2,0(r16)
    2744:	00bfffc4 	movi	r2,-1
    2748:	dfc00517 	ldw	ra,20(sp)
    274c:	dd000417 	ldw	r20,16(sp)
    2750:	dcc00317 	ldw	r19,12(sp)
    2754:	dc800217 	ldw	r18,8(sp)
    2758:	dc400117 	ldw	r17,4(sp)
    275c:	dc000017 	ldw	r16,0(sp)
    2760:	dec00604 	addi	sp,sp,24
    2764:	f800283a 	ret

00002768 <malloc>:
    2768:	00800034 	movhi	r2,0
    276c:	10985704 	addi	r2,r2,24924
    2770:	200b883a 	mov	r5,r4
    2774:	11000017 	ldw	r4,0(r2)
    2778:	00028741 	jmpi	2874 <_malloc_r>

0000277c <free>:
    277c:	00800034 	movhi	r2,0
    2780:	10985704 	addi	r2,r2,24924
    2784:	200b883a 	mov	r5,r4
    2788:	11000017 	ldw	r4,0(r2)
    278c:	00027901 	jmpi	2790 <_free_r>

00002790 <_free_r>:
    2790:	28003726 	beq	r5,zero,2870 <_free_r+0xe0>
    2794:	28ffff17 	ldw	r3,-4(r5)
    2798:	28bfff04 	addi	r2,r5,-4
    279c:	1800010e 	bge	r3,zero,27a4 <_free_r+0x14>
    27a0:	10c5883a 	add	r2,r2,r3
    27a4:	01400034 	movhi	r5,0
    27a8:	29586604 	addi	r5,r5,24984
    27ac:	28c00017 	ldw	r3,0(r5)
    27b0:	280d883a 	mov	r6,r5
    27b4:	1800031e 	bne	r3,zero,27c4 <_free_r+0x34>
    27b8:	10000115 	stw	zero,4(r2)
    27bc:	28800015 	stw	r2,0(r5)
    27c0:	f800283a 	ret
    27c4:	10c00c2e 	bgeu	r2,r3,27f8 <_free_r+0x68>
    27c8:	11400017 	ldw	r5,0(r2)
    27cc:	1149883a 	add	r4,r2,r5
    27d0:	20c0041e 	bne	r4,r3,27e4 <_free_r+0x54>
    27d4:	20c00017 	ldw	r3,0(r4)
    27d8:	28c7883a 	add	r3,r5,r3
    27dc:	10c00015 	stw	r3,0(r2)
    27e0:	20c00117 	ldw	r3,4(r4)
    27e4:	10c00115 	stw	r3,4(r2)
    27e8:	30800015 	stw	r2,0(r6)
    27ec:	f800283a 	ret
    27f0:	11400336 	bltu	r2,r5,2800 <_free_r+0x70>
    27f4:	2807883a 	mov	r3,r5
    27f8:	19400117 	ldw	r5,4(r3)
    27fc:	283ffc1e 	bne	r5,zero,27f0 <_free_r+0x60>
    2800:	19c00017 	ldw	r7,0(r3)
    2804:	19cd883a 	add	r6,r3,r7
    2808:	30800a1e 	bne	r6,r2,2834 <_free_r+0xa4>
    280c:	10800017 	ldw	r2,0(r2)
    2810:	3885883a 	add	r2,r7,r2
    2814:	18800015 	stw	r2,0(r3)
    2818:	1889883a 	add	r4,r3,r2
    281c:	2140141e 	bne	r4,r5,2870 <_free_r+0xe0>
    2820:	29000017 	ldw	r4,0(r5)
    2824:	1105883a 	add	r2,r2,r4
    2828:	18800015 	stw	r2,0(r3)
    282c:	28800117 	ldw	r2,4(r5)
    2830:	00000e06 	br	286c <_free_r+0xdc>
    2834:	1180032e 	bgeu	r2,r6,2844 <_free_r+0xb4>
    2838:	00800304 	movi	r2,12
    283c:	20800015 	stw	r2,0(r4)
    2840:	f800283a 	ret
    2844:	11800017 	ldw	r6,0(r2)
    2848:	1189883a 	add	r4,r2,r6
    284c:	2140061e 	bne	r4,r5,2868 <_free_r+0xd8>
    2850:	29000017 	ldw	r4,0(r5)
    2854:	3109883a 	add	r4,r6,r4
    2858:	11000015 	stw	r4,0(r2)
    285c:	29000117 	ldw	r4,4(r5)
    2860:	11000115 	stw	r4,4(r2)
    2864:	00000106 	br	286c <_free_r+0xdc>
    2868:	11400115 	stw	r5,4(r2)
    286c:	18800115 	stw	r2,4(r3)
    2870:	f800283a 	ret

00002874 <_malloc_r>:
    2874:	defffb04 	addi	sp,sp,-20
    2878:	00bfff04 	movi	r2,-4
    287c:	dc000015 	stw	r16,0(sp)
    2880:	2c0000c4 	addi	r16,r5,3
    2884:	80a0703a 	and	r16,r16,r2
    2888:	dc800215 	stw	r18,8(sp)
    288c:	dfc00415 	stw	ra,16(sp)
    2890:	dcc00315 	stw	r19,12(sp)
    2894:	dc400115 	stw	r17,4(sp)
    2898:	84000204 	addi	r16,r16,8
    289c:	00800304 	movi	r2,12
    28a0:	2025883a 	mov	r18,r4
    28a4:	8080022e 	bgeu	r16,r2,28b0 <_malloc_r+0x3c>
    28a8:	1021883a 	mov	r16,r2
    28ac:	00000506 	br	28c4 <_malloc_r+0x50>
    28b0:	8000040e 	bge	r16,zero,28c4 <_malloc_r+0x50>
    28b4:	00800304 	movi	r2,12
    28b8:	90800015 	stw	r2,0(r18)
    28bc:	0005883a 	mov	r2,zero
    28c0:	00003c06 	br	29b4 <_malloc_r+0x140>
    28c4:	817ffb36 	bltu	r16,r5,28b4 <_malloc_r+0x40>
    28c8:	01000034 	movhi	r4,0
    28cc:	21186604 	addi	r4,r4,24984
    28d0:	20800017 	ldw	r2,0(r4)
    28d4:	1007883a 	mov	r3,r2
    28d8:	18000926 	beq	r3,zero,2900 <_malloc_r+0x8c>
    28dc:	19400017 	ldw	r5,0(r3)
    28e0:	2c0bc83a 	sub	r5,r5,r16
    28e4:	28001716 	blt	r5,zero,2944 <_malloc_r+0xd0>
    28e8:	018002c4 	movi	r6,11
    28ec:	31400d2e 	bgeu	r6,r5,2924 <_malloc_r+0xb0>
    28f0:	19400015 	stw	r5,0(r3)
    28f4:	1945883a 	add	r2,r3,r5
    28f8:	14000015 	stw	r16,0(r2)
    28fc:	1000231e 	bne	r2,zero,298c <_malloc_r+0x118>
    2900:	04400034 	movhi	r17,0
    2904:	8c586504 	addi	r17,r17,24980
    2908:	88800017 	ldw	r2,0(r17)
    290c:	1000101e 	bne	r2,zero,2950 <_malloc_r+0xdc>
    2910:	9009883a 	mov	r4,r18
    2914:	000b883a 	mov	r5,zero
    2918:	0002a7c0 	call	2a7c <_sbrk_r>
    291c:	88800015 	stw	r2,0(r17)
    2920:	00000b06 	br	2950 <_malloc_r+0xdc>
    2924:	10c0031e 	bne	r2,r3,2934 <_malloc_r+0xc0>
    2928:	10c00117 	ldw	r3,4(r2)
    292c:	20c00015 	stw	r3,0(r4)
    2930:	00001606 	br	298c <_malloc_r+0x118>
    2934:	19000117 	ldw	r4,4(r3)
    2938:	11000115 	stw	r4,4(r2)
    293c:	1805883a 	mov	r2,r3
    2940:	00001206 	br	298c <_malloc_r+0x118>
    2944:	1805883a 	mov	r2,r3
    2948:	18c00117 	ldw	r3,4(r3)
    294c:	003fe206 	br	28d8 <_malloc_r+0x64>
    2950:	9009883a 	mov	r4,r18
    2954:	800b883a 	mov	r5,r16
    2958:	0002a7c0 	call	2a7c <_sbrk_r>
    295c:	04ffffc4 	movi	r19,-1
    2960:	14ffd426 	beq	r2,r19,28b4 <_malloc_r+0x40>
    2964:	144000c4 	addi	r17,r2,3
    2968:	00ffff04 	movi	r3,-4
    296c:	88e2703a 	and	r17,r17,r3
    2970:	88800526 	beq	r17,r2,2988 <_malloc_r+0x114>
    2974:	9009883a 	mov	r4,r18
    2978:	888bc83a 	sub	r5,r17,r2
    297c:	0002a7c0 	call	2a7c <_sbrk_r>
    2980:	14ffcc26 	beq	r2,r19,28b4 <_malloc_r+0x40>
    2984:	8805883a 	mov	r2,r17
    2988:	14000015 	stw	r16,0(r2)
    298c:	114002c4 	addi	r5,r2,11
    2990:	00fffe04 	movi	r3,-8
    2994:	11000104 	addi	r4,r2,4
    2998:	28c6703a 	and	r3,r5,r3
    299c:	1909c83a 	sub	r4,r3,r4
    29a0:	20000326 	beq	r4,zero,29b0 <_malloc_r+0x13c>
    29a4:	110b883a 	add	r5,r2,r4
    29a8:	0109c83a 	sub	r4,zero,r4
    29ac:	29000015 	stw	r4,0(r5)
    29b0:	1805883a 	mov	r2,r3
    29b4:	dfc00417 	ldw	ra,16(sp)
    29b8:	dcc00317 	ldw	r19,12(sp)
    29bc:	dc800217 	ldw	r18,8(sp)
    29c0:	dc400117 	ldw	r17,4(sp)
    29c4:	dc000017 	ldw	r16,0(sp)
    29c8:	dec00504 	addi	sp,sp,20
    29cc:	f800283a 	ret

000029d0 <putc>:
    29d0:	defffd04 	addi	sp,sp,-12
    29d4:	00800034 	movhi	r2,0
    29d8:	dc000115 	stw	r16,4(sp)
    29dc:	dfc00215 	stw	ra,8(sp)
    29e0:	1089af04 	addi	r2,r2,9916
    29e4:	28800115 	stw	r2,4(r5)
    29e8:	00800034 	movhi	r2,0
    29ec:	10985704 	addi	r2,r2,24924
    29f0:	d9000005 	stb	r4,0(sp)
    29f4:	2021883a 	mov	r16,r4
    29f8:	11000017 	ldw	r4,0(r2)
    29fc:	d80d883a 	mov	r6,sp
    2a00:	01c00044 	movi	r7,1
    2a04:	00026bc0 	call	26bc <__sfvwrite_small_dev>
    2a08:	00ffffc4 	movi	r3,-1
    2a0c:	10c00126 	beq	r2,r3,2a14 <putc+0x44>
    2a10:	8005883a 	mov	r2,r16
    2a14:	dfc00217 	ldw	ra,8(sp)
    2a18:	dc000117 	ldw	r16,4(sp)
    2a1c:	dec00304 	addi	sp,sp,12
    2a20:	f800283a 	ret

00002a24 <_putc_r>:
    2a24:	defffd04 	addi	sp,sp,-12
    2a28:	00800034 	movhi	r2,0
    2a2c:	dc000115 	stw	r16,4(sp)
    2a30:	dfc00215 	stw	ra,8(sp)
    2a34:	1089af04 	addi	r2,r2,9916
    2a38:	30800115 	stw	r2,4(r6)
    2a3c:	00800034 	movhi	r2,0
    2a40:	10985704 	addi	r2,r2,24924
    2a44:	11000017 	ldw	r4,0(r2)
    2a48:	2821883a 	mov	r16,r5
    2a4c:	01c00044 	movi	r7,1
    2a50:	300b883a 	mov	r5,r6
    2a54:	d80d883a 	mov	r6,sp
    2a58:	dc000005 	stb	r16,0(sp)
    2a5c:	00026bc0 	call	26bc <__sfvwrite_small_dev>
    2a60:	00ffffc4 	movi	r3,-1
    2a64:	10c00126 	beq	r2,r3,2a6c <_putc_r+0x48>
    2a68:	8005883a 	mov	r2,r16
    2a6c:	dfc00217 	ldw	ra,8(sp)
    2a70:	dc000117 	ldw	r16,4(sp)
    2a74:	dec00304 	addi	sp,sp,12
    2a78:	f800283a 	ret

00002a7c <_sbrk_r>:
    2a7c:	defffd04 	addi	sp,sp,-12
    2a80:	dc000015 	stw	r16,0(sp)
    2a84:	04000034 	movhi	r16,0
    2a88:	dc400115 	stw	r17,4(sp)
    2a8c:	84186704 	addi	r16,r16,24988
    2a90:	2023883a 	mov	r17,r4
    2a94:	2809883a 	mov	r4,r5
    2a98:	dfc00215 	stw	ra,8(sp)
    2a9c:	80000015 	stw	zero,0(r16)
    2aa0:	0002e6c0 	call	2e6c <sbrk>
    2aa4:	00ffffc4 	movi	r3,-1
    2aa8:	10c0031e 	bne	r2,r3,2ab8 <_sbrk_r+0x3c>
    2aac:	80c00017 	ldw	r3,0(r16)
    2ab0:	18000126 	beq	r3,zero,2ab8 <_sbrk_r+0x3c>
    2ab4:	88c00015 	stw	r3,0(r17)
    2ab8:	dfc00217 	ldw	ra,8(sp)
    2abc:	dc400117 	ldw	r17,4(sp)
    2ac0:	dc000017 	ldw	r16,0(sp)
    2ac4:	dec00304 	addi	sp,sp,12
    2ac8:	f800283a 	ret

00002acc <_write_r>:
    2acc:	defffd04 	addi	sp,sp,-12
    2ad0:	dc000015 	stw	r16,0(sp)
    2ad4:	04000034 	movhi	r16,0
    2ad8:	dc400115 	stw	r17,4(sp)
    2adc:	84186704 	addi	r16,r16,24988
    2ae0:	2023883a 	mov	r17,r4
    2ae4:	2809883a 	mov	r4,r5
    2ae8:	300b883a 	mov	r5,r6
    2aec:	380d883a 	mov	r6,r7
    2af0:	dfc00215 	stw	ra,8(sp)
    2af4:	80000015 	stw	zero,0(r16)
    2af8:	0002f9c0 	call	2f9c <write>
    2afc:	00ffffc4 	movi	r3,-1
    2b00:	10c0031e 	bne	r2,r3,2b10 <_write_r+0x44>
    2b04:	80c00017 	ldw	r3,0(r16)
    2b08:	18000126 	beq	r3,zero,2b10 <_write_r+0x44>
    2b0c:	88c00015 	stw	r3,0(r17)
    2b10:	dfc00217 	ldw	ra,8(sp)
    2b14:	dc400117 	ldw	r17,4(sp)
    2b18:	dc000017 	ldw	r16,0(sp)
    2b1c:	dec00304 	addi	sp,sp,12
    2b20:	f800283a 	ret

00002b24 <alt_ic_isr_register>:
    2b24:	defff904 	addi	sp,sp,-28
    2b28:	dfc00615 	stw	ra,24(sp)
    2b2c:	df000515 	stw	fp,20(sp)
    2b30:	df000504 	addi	fp,sp,20
    2b34:	e13ffc15 	stw	r4,-16(fp)
    2b38:	e17ffd15 	stw	r5,-12(fp)
    2b3c:	e1bffe15 	stw	r6,-8(fp)
    2b40:	e1ffff15 	stw	r7,-4(fp)
    2b44:	e0800217 	ldw	r2,8(fp)
    2b48:	d8800015 	stw	r2,0(sp)
    2b4c:	e13ffc17 	ldw	r4,-16(fp)
    2b50:	e17ffd17 	ldw	r5,-12(fp)
    2b54:	e1bffe17 	ldw	r6,-8(fp)
    2b58:	e1ffff17 	ldw	r7,-4(fp)
    2b5c:	0002d040 	call	2d04 <alt_iic_isr_register>
    2b60:	e037883a 	mov	sp,fp
    2b64:	dfc00117 	ldw	ra,4(sp)
    2b68:	df000017 	ldw	fp,0(sp)
    2b6c:	dec00204 	addi	sp,sp,8
    2b70:	f800283a 	ret

00002b74 <alt_ic_irq_enable>:
    2b74:	defff904 	addi	sp,sp,-28
    2b78:	df000615 	stw	fp,24(sp)
    2b7c:	df000604 	addi	fp,sp,24
    2b80:	e13ffe15 	stw	r4,-8(fp)
    2b84:	e17fff15 	stw	r5,-4(fp)
    2b88:	e0bfff17 	ldw	r2,-4(fp)
    2b8c:	e0bffa15 	stw	r2,-24(fp)
    2b90:	0005303a 	rdctl	r2,status
    2b94:	e0bffb15 	stw	r2,-20(fp)
    2b98:	e0fffb17 	ldw	r3,-20(fp)
    2b9c:	00bfff84 	movi	r2,-2
    2ba0:	1884703a 	and	r2,r3,r2
    2ba4:	1001703a 	wrctl	status,r2
    2ba8:	e0bffb17 	ldw	r2,-20(fp)
    2bac:	e0bffc15 	stw	r2,-16(fp)
    2bb0:	e0bffa17 	ldw	r2,-24(fp)
    2bb4:	00c00044 	movi	r3,1
    2bb8:	1884983a 	sll	r2,r3,r2
    2bbc:	1007883a 	mov	r3,r2
    2bc0:	00800034 	movhi	r2,0
    2bc4:	10986804 	addi	r2,r2,24992
    2bc8:	10800017 	ldw	r2,0(r2)
    2bcc:	1886b03a 	or	r3,r3,r2
    2bd0:	00800034 	movhi	r2,0
    2bd4:	10986804 	addi	r2,r2,24992
    2bd8:	10c00015 	stw	r3,0(r2)
    2bdc:	00800034 	movhi	r2,0
    2be0:	10986804 	addi	r2,r2,24992
    2be4:	10800017 	ldw	r2,0(r2)
    2be8:	100170fa 	wrctl	ienable,r2
    2bec:	e0bffc17 	ldw	r2,-16(fp)
    2bf0:	e0bffd15 	stw	r2,-12(fp)
    2bf4:	e0bffd17 	ldw	r2,-12(fp)
    2bf8:	1001703a 	wrctl	status,r2
    2bfc:	0005883a 	mov	r2,zero
    2c00:	0001883a 	nop
    2c04:	e037883a 	mov	sp,fp
    2c08:	df000017 	ldw	fp,0(sp)
    2c0c:	dec00104 	addi	sp,sp,4
    2c10:	f800283a 	ret

00002c14 <alt_ic_irq_disable>:
    2c14:	defff904 	addi	sp,sp,-28
    2c18:	df000615 	stw	fp,24(sp)
    2c1c:	df000604 	addi	fp,sp,24
    2c20:	e13ffe15 	stw	r4,-8(fp)
    2c24:	e17fff15 	stw	r5,-4(fp)
    2c28:	e0bfff17 	ldw	r2,-4(fp)
    2c2c:	e0bffa15 	stw	r2,-24(fp)
    2c30:	0005303a 	rdctl	r2,status
    2c34:	e0bffb15 	stw	r2,-20(fp)
    2c38:	e0fffb17 	ldw	r3,-20(fp)
    2c3c:	00bfff84 	movi	r2,-2
    2c40:	1884703a 	and	r2,r3,r2
    2c44:	1001703a 	wrctl	status,r2
    2c48:	e0bffb17 	ldw	r2,-20(fp)
    2c4c:	e0bffc15 	stw	r2,-16(fp)
    2c50:	e0bffa17 	ldw	r2,-24(fp)
    2c54:	00c00044 	movi	r3,1
    2c58:	1884983a 	sll	r2,r3,r2
    2c5c:	0084303a 	nor	r2,zero,r2
    2c60:	1007883a 	mov	r3,r2
    2c64:	00800034 	movhi	r2,0
    2c68:	10986804 	addi	r2,r2,24992
    2c6c:	10800017 	ldw	r2,0(r2)
    2c70:	1886703a 	and	r3,r3,r2
    2c74:	00800034 	movhi	r2,0
    2c78:	10986804 	addi	r2,r2,24992
    2c7c:	10c00015 	stw	r3,0(r2)
    2c80:	00800034 	movhi	r2,0
    2c84:	10986804 	addi	r2,r2,24992
    2c88:	10800017 	ldw	r2,0(r2)
    2c8c:	100170fa 	wrctl	ienable,r2
    2c90:	e0bffc17 	ldw	r2,-16(fp)
    2c94:	e0bffd15 	stw	r2,-12(fp)
    2c98:	e0bffd17 	ldw	r2,-12(fp)
    2c9c:	1001703a 	wrctl	status,r2
    2ca0:	0005883a 	mov	r2,zero
    2ca4:	0001883a 	nop
    2ca8:	e037883a 	mov	sp,fp
    2cac:	df000017 	ldw	fp,0(sp)
    2cb0:	dec00104 	addi	sp,sp,4
    2cb4:	f800283a 	ret

00002cb8 <alt_ic_irq_enabled>:
    2cb8:	defffc04 	addi	sp,sp,-16
    2cbc:	df000315 	stw	fp,12(sp)
    2cc0:	df000304 	addi	fp,sp,12
    2cc4:	e13ffe15 	stw	r4,-8(fp)
    2cc8:	e17fff15 	stw	r5,-4(fp)
    2ccc:	000530fa 	rdctl	r2,ienable
    2cd0:	e0bffd15 	stw	r2,-12(fp)
    2cd4:	e0bfff17 	ldw	r2,-4(fp)
    2cd8:	00c00044 	movi	r3,1
    2cdc:	1884983a 	sll	r2,r3,r2
    2ce0:	1007883a 	mov	r3,r2
    2ce4:	e0bffd17 	ldw	r2,-12(fp)
    2ce8:	1884703a 	and	r2,r3,r2
    2cec:	1004c03a 	cmpne	r2,r2,zero
    2cf0:	10803fcc 	andi	r2,r2,255
    2cf4:	e037883a 	mov	sp,fp
    2cf8:	df000017 	ldw	fp,0(sp)
    2cfc:	dec00104 	addi	sp,sp,4
    2d00:	f800283a 	ret

00002d04 <alt_iic_isr_register>:
    2d04:	defff504 	addi	sp,sp,-44
    2d08:	dfc00a15 	stw	ra,40(sp)
    2d0c:	df000915 	stw	fp,36(sp)
    2d10:	df000904 	addi	fp,sp,36
    2d14:	e13ffc15 	stw	r4,-16(fp)
    2d18:	e17ffd15 	stw	r5,-12(fp)
    2d1c:	e1bffe15 	stw	r6,-8(fp)
    2d20:	e1ffff15 	stw	r7,-4(fp)
    2d24:	00bffa84 	movi	r2,-22
    2d28:	e0bff715 	stw	r2,-36(fp)
    2d2c:	e0bffd17 	ldw	r2,-12(fp)
    2d30:	e0bff815 	stw	r2,-32(fp)
    2d34:	e0bff817 	ldw	r2,-32(fp)
    2d38:	10800808 	cmpgei	r2,r2,32
    2d3c:	1000271e 	bne	r2,zero,2ddc <alt_iic_isr_register+0xd8>
    2d40:	0005303a 	rdctl	r2,status
    2d44:	e0bffa15 	stw	r2,-24(fp)
    2d48:	e0fffa17 	ldw	r3,-24(fp)
    2d4c:	00bfff84 	movi	r2,-2
    2d50:	1884703a 	and	r2,r3,r2
    2d54:	1001703a 	wrctl	status,r2
    2d58:	e0bffa17 	ldw	r2,-24(fp)
    2d5c:	e0bff915 	stw	r2,-28(fp)
    2d60:	00800034 	movhi	r2,0
    2d64:	10986d04 	addi	r2,r2,25012
    2d68:	e0fff817 	ldw	r3,-32(fp)
    2d6c:	180690fa 	slli	r3,r3,3
    2d70:	10c5883a 	add	r2,r2,r3
    2d74:	e0fffe17 	ldw	r3,-8(fp)
    2d78:	10c00015 	stw	r3,0(r2)
    2d7c:	00800034 	movhi	r2,0
    2d80:	10986d04 	addi	r2,r2,25012
    2d84:	e0fff817 	ldw	r3,-32(fp)
    2d88:	180690fa 	slli	r3,r3,3
    2d8c:	18c00104 	addi	r3,r3,4
    2d90:	10c5883a 	add	r2,r2,r3
    2d94:	e0ffff17 	ldw	r3,-4(fp)
    2d98:	10c00015 	stw	r3,0(r2)
    2d9c:	e0bffe17 	ldw	r2,-8(fp)
    2da0:	10000526 	beq	r2,zero,2db8 <alt_iic_isr_register+0xb4>
    2da4:	e0bff817 	ldw	r2,-32(fp)
    2da8:	e13ffc17 	ldw	r4,-16(fp)
    2dac:	100b883a 	mov	r5,r2
    2db0:	0002b740 	call	2b74 <alt_ic_irq_enable>
    2db4:	00000406 	br	2dc8 <alt_iic_isr_register+0xc4>
    2db8:	e0bff817 	ldw	r2,-32(fp)
    2dbc:	e13ffc17 	ldw	r4,-16(fp)
    2dc0:	100b883a 	mov	r5,r2
    2dc4:	0002c140 	call	2c14 <alt_ic_irq_disable>
    2dc8:	e0bff715 	stw	r2,-36(fp)
    2dcc:	e0bff917 	ldw	r2,-28(fp)
    2dd0:	e0bffb15 	stw	r2,-20(fp)
    2dd4:	e0bffb17 	ldw	r2,-20(fp)
    2dd8:	1001703a 	wrctl	status,r2
    2ddc:	e0bff717 	ldw	r2,-36(fp)
    2de0:	e037883a 	mov	sp,fp
    2de4:	dfc00117 	ldw	ra,4(sp)
    2de8:	df000017 	ldw	fp,0(sp)
    2dec:	dec00204 	addi	sp,sp,8
    2df0:	f800283a 	ret

00002df4 <alt_main>:
    2df4:	defffd04 	addi	sp,sp,-12
    2df8:	dfc00215 	stw	ra,8(sp)
    2dfc:	df000115 	stw	fp,4(sp)
    2e00:	df000104 	addi	fp,sp,4
    2e04:	0009883a 	mov	r4,zero
    2e08:	00030d40 	call	30d4 <alt_irq_init>
    2e0c:	0001883a 	nop
    2e10:	00031080 	call	3108 <alt_sys_init>
    2e14:	01000034 	movhi	r4,0
    2e18:	21174204 	addi	r4,r4,23816
    2e1c:	01400034 	movhi	r5,0
    2e20:	29574204 	addi	r5,r5,23816
    2e24:	01800034 	movhi	r6,0
    2e28:	31974204 	addi	r6,r6,23816
    2e2c:	0004e740 	call	4e74 <alt_io_redirect>
    2e30:	0004b880 	call	4b88 <_do_ctors>
    2e34:	01000034 	movhi	r4,0
    2e38:	2112f904 	addi	r4,r4,19428
    2e3c:	00054a80 	call	54a8 <atexit>
    2e40:	d1201a17 	ldw	r4,-32664(gp)
    2e44:	d0e01b17 	ldw	r3,-32660(gp)
    2e48:	d0a01c17 	ldw	r2,-32656(gp)
    2e4c:	180b883a 	mov	r5,r3
    2e50:	100d883a 	mov	r6,r2
    2e54:	00014e40 	call	14e4 <main>
    2e58:	e0bfff15 	stw	r2,-4(fp)
    2e5c:	01000044 	movi	r4,1
    2e60:	000496c0 	call	496c <close>
    2e64:	e13fff17 	ldw	r4,-4(fp)
    2e68:	00054bc0 	call	54bc <exit>

00002e6c <sbrk>:
    2e6c:	defff904 	addi	sp,sp,-28
    2e70:	df000615 	stw	fp,24(sp)
    2e74:	df000604 	addi	fp,sp,24
    2e78:	e13fff15 	stw	r4,-4(fp)
    2e7c:	0005303a 	rdctl	r2,status
    2e80:	e0bffc15 	stw	r2,-16(fp)
    2e84:	e0fffc17 	ldw	r3,-16(fp)
    2e88:	00bfff84 	movi	r2,-2
    2e8c:	1884703a 	and	r2,r3,r2
    2e90:	1001703a 	wrctl	status,r2
    2e94:	e0bffc17 	ldw	r2,-16(fp)
    2e98:	e0bffa15 	stw	r2,-24(fp)
    2e9c:	d0a00a17 	ldw	r2,-32728(gp)
    2ea0:	10c000c4 	addi	r3,r2,3
    2ea4:	00bfff04 	movi	r2,-4
    2ea8:	1884703a 	and	r2,r3,r2
    2eac:	d0a00a15 	stw	r2,-32728(gp)
    2eb0:	d0e00a17 	ldw	r3,-32728(gp)
    2eb4:	e0bfff17 	ldw	r2,-4(fp)
    2eb8:	1887883a 	add	r3,r3,r2
    2ebc:	00800074 	movhi	r2,1
    2ec0:	10a36604 	addi	r2,r2,-29288
    2ec4:	10c0062e 	bgeu	r2,r3,2ee0 <sbrk+0x74>
    2ec8:	e0bffa17 	ldw	r2,-24(fp)
    2ecc:	e0bffd15 	stw	r2,-12(fp)
    2ed0:	e0bffd17 	ldw	r2,-12(fp)
    2ed4:	1001703a 	wrctl	status,r2
    2ed8:	00bfffc4 	movi	r2,-1
    2edc:	00000b06 	br	2f0c <sbrk+0xa0>
    2ee0:	d0a00a17 	ldw	r2,-32728(gp)
    2ee4:	e0bffb15 	stw	r2,-20(fp)
    2ee8:	d0e00a17 	ldw	r3,-32728(gp)
    2eec:	e0bfff17 	ldw	r2,-4(fp)
    2ef0:	1885883a 	add	r2,r3,r2
    2ef4:	d0a00a15 	stw	r2,-32728(gp)
    2ef8:	e0bffa17 	ldw	r2,-24(fp)
    2efc:	e0bffe15 	stw	r2,-8(fp)
    2f00:	e0bffe17 	ldw	r2,-8(fp)
    2f04:	1001703a 	wrctl	status,r2
    2f08:	e0bffb17 	ldw	r2,-20(fp)
    2f0c:	e037883a 	mov	sp,fp
    2f10:	df000017 	ldw	fp,0(sp)
    2f14:	dec00104 	addi	sp,sp,4
    2f18:	f800283a 	ret

00002f1c <usleep>:
    2f1c:	defffd04 	addi	sp,sp,-12
    2f20:	dfc00215 	stw	ra,8(sp)
    2f24:	df000115 	stw	fp,4(sp)
    2f28:	df000104 	addi	fp,sp,4
    2f2c:	e13fff15 	stw	r4,-4(fp)
    2f30:	e13fff17 	ldw	r4,-4(fp)
    2f34:	00047c40 	call	47c4 <alt_busy_sleep>
    2f38:	e037883a 	mov	sp,fp
    2f3c:	dfc00117 	ldw	ra,4(sp)
    2f40:	df000017 	ldw	fp,0(sp)
    2f44:	dec00204 	addi	sp,sp,8
    2f48:	f800283a 	ret

00002f4c <alt_get_errno>:
    2f4c:	defffe04 	addi	sp,sp,-8
    2f50:	dfc00115 	stw	ra,4(sp)
    2f54:	df000015 	stw	fp,0(sp)
    2f58:	d839883a 	mov	fp,sp
    2f5c:	00800034 	movhi	r2,0
    2f60:	10986104 	addi	r2,r2,24964
    2f64:	10800017 	ldw	r2,0(r2)
    2f68:	10000526 	beq	r2,zero,2f80 <alt_get_errno+0x34>
    2f6c:	00800034 	movhi	r2,0
    2f70:	10986104 	addi	r2,r2,24964
    2f74:	10800017 	ldw	r2,0(r2)
    2f78:	103ee83a 	callr	r2
    2f7c:	00000206 	br	2f88 <alt_get_errno+0x3c>
    2f80:	00800034 	movhi	r2,0
    2f84:	10986704 	addi	r2,r2,24988
    2f88:	e037883a 	mov	sp,fp
    2f8c:	dfc00117 	ldw	ra,4(sp)
    2f90:	df000017 	ldw	fp,0(sp)
    2f94:	dec00204 	addi	sp,sp,8
    2f98:	f800283a 	ret

00002f9c <write>:
    2f9c:	defff904 	addi	sp,sp,-28
    2fa0:	dfc00615 	stw	ra,24(sp)
    2fa4:	df000515 	stw	fp,20(sp)
    2fa8:	df000504 	addi	fp,sp,20
    2fac:	e13ffd15 	stw	r4,-12(fp)
    2fb0:	e17ffe15 	stw	r5,-8(fp)
    2fb4:	e1bfff15 	stw	r6,-4(fp)
    2fb8:	e0bffd17 	ldw	r2,-12(fp)
    2fbc:	10000816 	blt	r2,zero,2fe0 <write+0x44>
    2fc0:	e13ffd17 	ldw	r4,-12(fp)
    2fc4:	01400304 	movi	r5,12
    2fc8:	0001b7c0 	call	1b7c <__mulsi3>
    2fcc:	1007883a 	mov	r3,r2
    2fd0:	00800034 	movhi	r2,0
    2fd4:	1097ef04 	addi	r2,r2,24508
    2fd8:	1885883a 	add	r2,r3,r2
    2fdc:	00000106 	br	2fe4 <write+0x48>
    2fe0:	0005883a 	mov	r2,zero
    2fe4:	e0bffb15 	stw	r2,-20(fp)
    2fe8:	e0bffb17 	ldw	r2,-20(fp)
    2fec:	10002126 	beq	r2,zero,3074 <write+0xd8>
    2ff0:	e0bffb17 	ldw	r2,-20(fp)
    2ff4:	10800217 	ldw	r2,8(r2)
    2ff8:	108000cc 	andi	r2,r2,3
    2ffc:	10001826 	beq	r2,zero,3060 <write+0xc4>
    3000:	e0bffb17 	ldw	r2,-20(fp)
    3004:	10800017 	ldw	r2,0(r2)
    3008:	10800617 	ldw	r2,24(r2)
    300c:	10001426 	beq	r2,zero,3060 <write+0xc4>
    3010:	e0bffb17 	ldw	r2,-20(fp)
    3014:	10800017 	ldw	r2,0(r2)
    3018:	10800617 	ldw	r2,24(r2)
    301c:	e0ffff17 	ldw	r3,-4(fp)
    3020:	e13ffb17 	ldw	r4,-20(fp)
    3024:	e17ffe17 	ldw	r5,-8(fp)
    3028:	180d883a 	mov	r6,r3
    302c:	103ee83a 	callr	r2
    3030:	e0bffc15 	stw	r2,-16(fp)
    3034:	e0bffc17 	ldw	r2,-16(fp)
    3038:	1000070e 	bge	r2,zero,3058 <write+0xbc>
    303c:	0002f4c0 	call	2f4c <alt_get_errno>
    3040:	1007883a 	mov	r3,r2
    3044:	e0bffc17 	ldw	r2,-16(fp)
    3048:	0085c83a 	sub	r2,zero,r2
    304c:	18800015 	stw	r2,0(r3)
    3050:	00bfffc4 	movi	r2,-1
    3054:	00000c06 	br	3088 <write+0xec>
    3058:	e0bffc17 	ldw	r2,-16(fp)
    305c:	00000a06 	br	3088 <write+0xec>
    3060:	0002f4c0 	call	2f4c <alt_get_errno>
    3064:	1007883a 	mov	r3,r2
    3068:	00800344 	movi	r2,13
    306c:	18800015 	stw	r2,0(r3)
    3070:	00000406 	br	3084 <write+0xe8>
    3074:	0002f4c0 	call	2f4c <alt_get_errno>
    3078:	1007883a 	mov	r3,r2
    307c:	00801444 	movi	r2,81
    3080:	18800015 	stw	r2,0(r3)
    3084:	00bfffc4 	movi	r2,-1
    3088:	e037883a 	mov	sp,fp
    308c:	dfc00117 	ldw	ra,4(sp)
    3090:	df000017 	ldw	fp,0(sp)
    3094:	dec00204 	addi	sp,sp,8
    3098:	f800283a 	ret

0000309c <alt_dev_reg>:
    309c:	defffd04 	addi	sp,sp,-12
    30a0:	dfc00215 	stw	ra,8(sp)
    30a4:	df000115 	stw	fp,4(sp)
    30a8:	df000104 	addi	fp,sp,4
    30ac:	e13fff15 	stw	r4,-4(fp)
    30b0:	e13fff17 	ldw	r4,-4(fp)
    30b4:	01400034 	movhi	r5,0
    30b8:	29585e04 	addi	r5,r5,24952
    30bc:	0004ae40 	call	4ae4 <alt_dev_llist_insert>
    30c0:	e037883a 	mov	sp,fp
    30c4:	dfc00117 	ldw	ra,4(sp)
    30c8:	df000017 	ldw	fp,0(sp)
    30cc:	dec00204 	addi	sp,sp,8
    30d0:	f800283a 	ret

000030d4 <alt_irq_init>:
    30d4:	defffd04 	addi	sp,sp,-12
    30d8:	dfc00215 	stw	ra,8(sp)
    30dc:	df000115 	stw	fp,4(sp)
    30e0:	df000104 	addi	fp,sp,4
    30e4:	e13fff15 	stw	r4,-4(fp)
    30e8:	00052100 	call	5210 <altera_nios2_gen2_irq_init>
    30ec:	00800044 	movi	r2,1
    30f0:	1001703a 	wrctl	status,r2
    30f4:	e037883a 	mov	sp,fp
    30f8:	dfc00117 	ldw	ra,4(sp)
    30fc:	df000017 	ldw	fp,0(sp)
    3100:	dec00204 	addi	sp,sp,8
    3104:	f800283a 	ret

00003108 <alt_sys_init>:
    3108:	defffe04 	addi	sp,sp,-8
    310c:	dfc00115 	stw	ra,4(sp)
    3110:	df000015 	stw	fp,0(sp)
    3114:	d839883a 	mov	fp,sp
    3118:	01000034 	movhi	r4,0
    311c:	21178f04 	addi	r4,r4,24124
    3120:	000309c0 	call	309c <alt_dev_reg>
    3124:	0001883a 	nop
    3128:	0001883a 	nop
    312c:	01000034 	movhi	r4,0
    3130:	21179a04 	addi	r4,r4,24168
    3134:	000309c0 	call	309c <alt_dev_reg>
    3138:	01000034 	movhi	r4,0
    313c:	2117a504 	addi	r4,r4,24212
    3140:	000413c0 	call	413c <altera_onchip_flash_init>
    3144:	e037883a 	mov	sp,fp
    3148:	dfc00117 	ldw	ra,4(sp)
    314c:	df000017 	ldw	fp,0(sp)
    3150:	dec00204 	addi	sp,sp,8
    3154:	f800283a 	ret

00003158 <altera_avalon_jtag_uart_read_fd>:
    3158:	defffa04 	addi	sp,sp,-24
    315c:	dfc00515 	stw	ra,20(sp)
    3160:	df000415 	stw	fp,16(sp)
    3164:	df000404 	addi	fp,sp,16
    3168:	e13ffd15 	stw	r4,-12(fp)
    316c:	e17ffe15 	stw	r5,-8(fp)
    3170:	e1bfff15 	stw	r6,-4(fp)
    3174:	e0bffd17 	ldw	r2,-12(fp)
    3178:	10800017 	ldw	r2,0(r2)
    317c:	e0bffc15 	stw	r2,-16(fp)
    3180:	e0bffc17 	ldw	r2,-16(fp)
    3184:	10c00a04 	addi	r3,r2,40
    3188:	e0bffd17 	ldw	r2,-12(fp)
    318c:	10800217 	ldw	r2,8(r2)
    3190:	1809883a 	mov	r4,r3
    3194:	e17ffe17 	ldw	r5,-8(fp)
    3198:	e1bfff17 	ldw	r6,-4(fp)
    319c:	100f883a 	mov	r7,r2
    31a0:	00032180 	call	3218 <altera_avalon_jtag_uart_read>
    31a4:	e037883a 	mov	sp,fp
    31a8:	dfc00117 	ldw	ra,4(sp)
    31ac:	df000017 	ldw	fp,0(sp)
    31b0:	dec00204 	addi	sp,sp,8
    31b4:	f800283a 	ret

000031b8 <altera_avalon_jtag_uart_write_fd>:
    31b8:	defffa04 	addi	sp,sp,-24
    31bc:	dfc00515 	stw	ra,20(sp)
    31c0:	df000415 	stw	fp,16(sp)
    31c4:	df000404 	addi	fp,sp,16
    31c8:	e13ffd15 	stw	r4,-12(fp)
    31cc:	e17ffe15 	stw	r5,-8(fp)
    31d0:	e1bfff15 	stw	r6,-4(fp)
    31d4:	e0bffd17 	ldw	r2,-12(fp)
    31d8:	10800017 	ldw	r2,0(r2)
    31dc:	e0bffc15 	stw	r2,-16(fp)
    31e0:	e0bffc17 	ldw	r2,-16(fp)
    31e4:	10c00a04 	addi	r3,r2,40
    31e8:	e0bffd17 	ldw	r2,-12(fp)
    31ec:	10800217 	ldw	r2,8(r2)
    31f0:	1809883a 	mov	r4,r3
    31f4:	e17ffe17 	ldw	r5,-8(fp)
    31f8:	e1bfff17 	ldw	r6,-4(fp)
    31fc:	100f883a 	mov	r7,r2
    3200:	00032fc0 	call	32fc <altera_avalon_jtag_uart_write>
    3204:	e037883a 	mov	sp,fp
    3208:	dfc00117 	ldw	ra,4(sp)
    320c:	df000017 	ldw	fp,0(sp)
    3210:	dec00204 	addi	sp,sp,8
    3214:	f800283a 	ret

00003218 <altera_avalon_jtag_uart_read>:
    3218:	defff704 	addi	sp,sp,-36
    321c:	df000815 	stw	fp,32(sp)
    3220:	df000804 	addi	fp,sp,32
    3224:	e13ffc15 	stw	r4,-16(fp)
    3228:	e17ffd15 	stw	r5,-12(fp)
    322c:	e1bffe15 	stw	r6,-8(fp)
    3230:	e1ffff15 	stw	r7,-4(fp)
    3234:	e0bffc17 	ldw	r2,-16(fp)
    3238:	10800017 	ldw	r2,0(r2)
    323c:	e0bff915 	stw	r2,-28(fp)
    3240:	e0bffd17 	ldw	r2,-12(fp)
    3244:	e0bff815 	stw	r2,-32(fp)
    3248:	e0bffe17 	ldw	r2,-8(fp)
    324c:	e0fffd17 	ldw	r3,-12(fp)
    3250:	1885883a 	add	r2,r3,r2
    3254:	e0bffa15 	stw	r2,-24(fp)
    3258:	00001406 	br	32ac <altera_avalon_jtag_uart_read+0x94>
    325c:	e0bff917 	ldw	r2,-28(fp)
    3260:	10800037 	ldwio	r2,0(r2)
    3264:	e0bffb15 	stw	r2,-20(fp)
    3268:	e0bffb17 	ldw	r2,-20(fp)
    326c:	10a0000c 	andi	r2,r2,32768
    3270:	10000626 	beq	r2,zero,328c <altera_avalon_jtag_uart_read+0x74>
    3274:	e0bff817 	ldw	r2,-32(fp)
    3278:	10c00044 	addi	r3,r2,1
    327c:	e0fff815 	stw	r3,-32(fp)
    3280:	e0fffb17 	ldw	r3,-20(fp)
    3284:	10c00005 	stb	r3,0(r2)
    3288:	00000806 	br	32ac <altera_avalon_jtag_uart_read+0x94>
    328c:	e0fff817 	ldw	r3,-32(fp)
    3290:	e0bffd17 	ldw	r2,-12(fp)
    3294:	18800126 	beq	r3,r2,329c <altera_avalon_jtag_uart_read+0x84>
    3298:	00000706 	br	32b8 <altera_avalon_jtag_uart_read+0xa0>
    329c:	e0bfff17 	ldw	r2,-4(fp)
    32a0:	1090000c 	andi	r2,r2,16384
    32a4:	10000126 	beq	r2,zero,32ac <altera_avalon_jtag_uart_read+0x94>
    32a8:	00000306 	br	32b8 <altera_avalon_jtag_uart_read+0xa0>
    32ac:	e0fff817 	ldw	r3,-32(fp)
    32b0:	e0bffa17 	ldw	r2,-24(fp)
    32b4:	18bfe936 	bltu	r3,r2,325c <altera_avalon_jtag_uart_read+0x44>
    32b8:	e0fff817 	ldw	r3,-32(fp)
    32bc:	e0bffd17 	ldw	r2,-12(fp)
    32c0:	18800426 	beq	r3,r2,32d4 <altera_avalon_jtag_uart_read+0xbc>
    32c4:	e0fff817 	ldw	r3,-32(fp)
    32c8:	e0bffd17 	ldw	r2,-12(fp)
    32cc:	1885c83a 	sub	r2,r3,r2
    32d0:	00000606 	br	32ec <altera_avalon_jtag_uart_read+0xd4>
    32d4:	e0bfff17 	ldw	r2,-4(fp)
    32d8:	1090000c 	andi	r2,r2,16384
    32dc:	10000226 	beq	r2,zero,32e8 <altera_avalon_jtag_uart_read+0xd0>
    32e0:	00bffd44 	movi	r2,-11
    32e4:	00000106 	br	32ec <altera_avalon_jtag_uart_read+0xd4>
    32e8:	00bffec4 	movi	r2,-5
    32ec:	e037883a 	mov	sp,fp
    32f0:	df000017 	ldw	fp,0(sp)
    32f4:	dec00104 	addi	sp,sp,4
    32f8:	f800283a 	ret

000032fc <altera_avalon_jtag_uart_write>:
    32fc:	defff904 	addi	sp,sp,-28
    3300:	df000615 	stw	fp,24(sp)
    3304:	df000604 	addi	fp,sp,24
    3308:	e13ffc15 	stw	r4,-16(fp)
    330c:	e17ffd15 	stw	r5,-12(fp)
    3310:	e1bffe15 	stw	r6,-8(fp)
    3314:	e1ffff15 	stw	r7,-4(fp)
    3318:	e0bffc17 	ldw	r2,-16(fp)
    331c:	10800017 	ldw	r2,0(r2)
    3320:	e0bffa15 	stw	r2,-24(fp)
    3324:	e0bffe17 	ldw	r2,-8(fp)
    3328:	e0fffd17 	ldw	r3,-12(fp)
    332c:	1885883a 	add	r2,r3,r2
    3330:	e0bffb15 	stw	r2,-20(fp)
    3334:	00000e06 	br	3370 <altera_avalon_jtag_uart_write+0x74>
    3338:	e0bffa17 	ldw	r2,-24(fp)
    333c:	10800104 	addi	r2,r2,4
    3340:	10800037 	ldwio	r2,0(r2)
    3344:	10bfffec 	andhi	r2,r2,65535
    3348:	10000926 	beq	r2,zero,3370 <altera_avalon_jtag_uart_write+0x74>
    334c:	e0fffa17 	ldw	r3,-24(fp)
    3350:	e0bffd17 	ldw	r2,-12(fp)
    3354:	11000044 	addi	r4,r2,1
    3358:	e13ffd15 	stw	r4,-12(fp)
    335c:	10800003 	ldbu	r2,0(r2)
    3360:	10803fcc 	andi	r2,r2,255
    3364:	1080201c 	xori	r2,r2,128
    3368:	10bfe004 	addi	r2,r2,-128
    336c:	18800035 	stwio	r2,0(r3)
    3370:	e0fffd17 	ldw	r3,-12(fp)
    3374:	e0bffb17 	ldw	r2,-20(fp)
    3378:	18bfef36 	bltu	r3,r2,3338 <altera_avalon_jtag_uart_write+0x3c>
    337c:	e0bffe17 	ldw	r2,-8(fp)
    3380:	e037883a 	mov	sp,fp
    3384:	df000017 	ldw	fp,0(sp)
    3388:	dec00104 	addi	sp,sp,4
    338c:	f800283a 	ret

00003390 <alt_avalon_spi_command>:
    3390:	defff404 	addi	sp,sp,-48
    3394:	df000b15 	stw	fp,44(sp)
    3398:	df000b04 	addi	fp,sp,44
    339c:	e13ffc15 	stw	r4,-16(fp)
    33a0:	e17ffd15 	stw	r5,-12(fp)
    33a4:	e1bffe15 	stw	r6,-8(fp)
    33a8:	e1ffff15 	stw	r7,-4(fp)
    33ac:	e0ffff17 	ldw	r3,-4(fp)
    33b0:	e0bffe17 	ldw	r2,-8(fp)
    33b4:	1885883a 	add	r2,r3,r2
    33b8:	e0bff815 	stw	r2,-32(fp)
    33bc:	e0c00217 	ldw	r3,8(fp)
    33c0:	e0800117 	ldw	r2,4(fp)
    33c4:	1885883a 	add	r2,r3,r2
    33c8:	e0bff915 	stw	r2,-28(fp)
    33cc:	e0800117 	ldw	r2,4(fp)
    33d0:	e0bff515 	stw	r2,-44(fp)
    33d4:	e0bffe17 	ldw	r2,-8(fp)
    33d8:	e0bff615 	stw	r2,-40(fp)
    33dc:	00800044 	movi	r2,1
    33e0:	e0bff715 	stw	r2,-36(fp)
    33e4:	e0bffc17 	ldw	r2,-16(fp)
    33e8:	10800504 	addi	r2,r2,20
    33ec:	1009883a 	mov	r4,r2
    33f0:	e0bffd17 	ldw	r2,-12(fp)
    33f4:	00c00044 	movi	r3,1
    33f8:	1884983a 	sll	r2,r3,r2
    33fc:	20800035 	stwio	r2,0(r4)
    3400:	e0800317 	ldw	r2,12(fp)
    3404:	1080008c 	andi	r2,r2,2
    3408:	1000051e 	bne	r2,zero,3420 <alt_avalon_spi_command+0x90>
    340c:	e0bffc17 	ldw	r2,-16(fp)
    3410:	10800304 	addi	r2,r2,12
    3414:	1007883a 	mov	r3,r2
    3418:	00810004 	movi	r2,1024
    341c:	18800035 	stwio	r2,0(r3)
    3420:	e0bffc17 	ldw	r2,-16(fp)
    3424:	10800037 	ldwio	r2,0(r2)
    3428:	e0bffc17 	ldw	r2,-16(fp)
    342c:	10800204 	addi	r2,r2,8
    3430:	10800037 	ldwio	r2,0(r2)
    3434:	e0bffa15 	stw	r2,-24(fp)
    3438:	e0bffa17 	ldw	r2,-24(fp)
    343c:	1080100c 	andi	r2,r2,64
    3440:	10000226 	beq	r2,zero,344c <alt_avalon_spi_command+0xbc>
    3444:	e0bff717 	ldw	r2,-36(fp)
    3448:	1000031e 	bne	r2,zero,3458 <alt_avalon_spi_command+0xc8>
    344c:	e0bffa17 	ldw	r2,-24(fp)
    3450:	1080200c 	andi	r2,r2,128
    3454:	103ff426 	beq	r2,zero,3428 <alt_avalon_spi_command+0x98>
    3458:	e0bffa17 	ldw	r2,-24(fp)
    345c:	1080100c 	andi	r2,r2,64
    3460:	10001e26 	beq	r2,zero,34dc <alt_avalon_spi_command+0x14c>
    3464:	e0bff717 	ldw	r2,-36(fp)
    3468:	00801c0e 	bge	zero,r2,34dc <alt_avalon_spi_command+0x14c>
    346c:	e0bff717 	ldw	r2,-36(fp)
    3470:	10bfffc4 	addi	r2,r2,-1
    3474:	e0bff715 	stw	r2,-36(fp)
    3478:	e0ffff17 	ldw	r3,-4(fp)
    347c:	e0bff817 	ldw	r2,-32(fp)
    3480:	18800a2e 	bgeu	r3,r2,34ac <alt_avalon_spi_command+0x11c>
    3484:	e0bffc17 	ldw	r2,-16(fp)
    3488:	10800104 	addi	r2,r2,4
    348c:	1009883a 	mov	r4,r2
    3490:	e0bfff17 	ldw	r2,-4(fp)
    3494:	10c00044 	addi	r3,r2,1
    3498:	e0ffff15 	stw	r3,-4(fp)
    349c:	10800003 	ldbu	r2,0(r2)
    34a0:	10803fcc 	andi	r2,r2,255
    34a4:	20800035 	stwio	r2,0(r4)
    34a8:	00000c06 	br	34dc <alt_avalon_spi_command+0x14c>
    34ac:	e0bff517 	ldw	r2,-44(fp)
    34b0:	10000826 	beq	r2,zero,34d4 <alt_avalon_spi_command+0x144>
    34b4:	e0bff517 	ldw	r2,-44(fp)
    34b8:	10bfffc4 	addi	r2,r2,-1
    34bc:	e0bff515 	stw	r2,-44(fp)
    34c0:	e0bffc17 	ldw	r2,-16(fp)
    34c4:	10800104 	addi	r2,r2,4
    34c8:	0007883a 	mov	r3,zero
    34cc:	10c00035 	stwio	r3,0(r2)
    34d0:	00000206 	br	34dc <alt_avalon_spi_command+0x14c>
    34d4:	00bf0004 	movi	r2,-1024
    34d8:	e0bff715 	stw	r2,-36(fp)
    34dc:	e0bffa17 	ldw	r2,-24(fp)
    34e0:	1080200c 	andi	r2,r2,128
    34e4:	10001726 	beq	r2,zero,3544 <alt_avalon_spi_command+0x1b4>
    34e8:	e0bffc17 	ldw	r2,-16(fp)
    34ec:	10800037 	ldwio	r2,0(r2)
    34f0:	e0bffb15 	stw	r2,-20(fp)
    34f4:	e0bff617 	ldw	r2,-40(fp)
    34f8:	10000426 	beq	r2,zero,350c <alt_avalon_spi_command+0x17c>
    34fc:	e0bff617 	ldw	r2,-40(fp)
    3500:	10bfffc4 	addi	r2,r2,-1
    3504:	e0bff615 	stw	r2,-40(fp)
    3508:	00000506 	br	3520 <alt_avalon_spi_command+0x190>
    350c:	e0800217 	ldw	r2,8(fp)
    3510:	10c00044 	addi	r3,r2,1
    3514:	e0c00215 	stw	r3,8(fp)
    3518:	e0fffb17 	ldw	r3,-20(fp)
    351c:	10c00005 	stb	r3,0(r2)
    3520:	e0bff717 	ldw	r2,-36(fp)
    3524:	10800044 	addi	r2,r2,1
    3528:	e0bff715 	stw	r2,-36(fp)
    352c:	e0bff617 	ldw	r2,-40(fp)
    3530:	1000041e 	bne	r2,zero,3544 <alt_avalon_spi_command+0x1b4>
    3534:	e0c00217 	ldw	r3,8(fp)
    3538:	e0bff917 	ldw	r2,-28(fp)
    353c:	1880011e 	bne	r3,r2,3544 <alt_avalon_spi_command+0x1b4>
    3540:	00000106 	br	3548 <alt_avalon_spi_command+0x1b8>
    3544:	003fb806 	br	3428 <alt_avalon_spi_command+0x98>
    3548:	e0bffc17 	ldw	r2,-16(fp)
    354c:	10800204 	addi	r2,r2,8
    3550:	10800037 	ldwio	r2,0(r2)
    3554:	e0bffa15 	stw	r2,-24(fp)
    3558:	e0bffa17 	ldw	r2,-24(fp)
    355c:	1080080c 	andi	r2,r2,32
    3560:	103ff926 	beq	r2,zero,3548 <alt_avalon_spi_command+0x1b8>
    3564:	e0800317 	ldw	r2,12(fp)
    3568:	1080004c 	andi	r2,r2,1
    356c:	1000041e 	bne	r2,zero,3580 <alt_avalon_spi_command+0x1f0>
    3570:	e0bffc17 	ldw	r2,-16(fp)
    3574:	10800304 	addi	r2,r2,12
    3578:	0007883a 	mov	r3,zero
    357c:	10c00035 	stwio	r3,0(r2)
    3580:	e0800117 	ldw	r2,4(fp)
    3584:	e037883a 	mov	sp,fp
    3588:	df000017 	ldw	fp,0(sp)
    358c:	dec00104 	addi	sp,sp,4
    3590:	f800283a 	ret

00003594 <altera_avalon_uart_read_fd>:
    3594:	defffa04 	addi	sp,sp,-24
    3598:	dfc00515 	stw	ra,20(sp)
    359c:	df000415 	stw	fp,16(sp)
    35a0:	df000404 	addi	fp,sp,16
    35a4:	e13ffd15 	stw	r4,-12(fp)
    35a8:	e17ffe15 	stw	r5,-8(fp)
    35ac:	e1bfff15 	stw	r6,-4(fp)
    35b0:	e0bffd17 	ldw	r2,-12(fp)
    35b4:	10800017 	ldw	r2,0(r2)
    35b8:	e0bffc15 	stw	r2,-16(fp)
    35bc:	e0bffc17 	ldw	r2,-16(fp)
    35c0:	10c00a04 	addi	r3,r2,40
    35c4:	e0bffd17 	ldw	r2,-12(fp)
    35c8:	10800217 	ldw	r2,8(r2)
    35cc:	1809883a 	mov	r4,r3
    35d0:	e17ffe17 	ldw	r5,-8(fp)
    35d4:	e1bfff17 	ldw	r6,-4(fp)
    35d8:	100f883a 	mov	r7,r2
    35dc:	00036a40 	call	36a4 <altera_avalon_uart_read>
    35e0:	e037883a 	mov	sp,fp
    35e4:	dfc00117 	ldw	ra,4(sp)
    35e8:	df000017 	ldw	fp,0(sp)
    35ec:	dec00204 	addi	sp,sp,8
    35f0:	f800283a 	ret

000035f4 <altera_avalon_uart_write_fd>:
    35f4:	defffa04 	addi	sp,sp,-24
    35f8:	dfc00515 	stw	ra,20(sp)
    35fc:	df000415 	stw	fp,16(sp)
    3600:	df000404 	addi	fp,sp,16
    3604:	e13ffd15 	stw	r4,-12(fp)
    3608:	e17ffe15 	stw	r5,-8(fp)
    360c:	e1bfff15 	stw	r6,-4(fp)
    3610:	e0bffd17 	ldw	r2,-12(fp)
    3614:	10800017 	ldw	r2,0(r2)
    3618:	e0bffc15 	stw	r2,-16(fp)
    361c:	e0bffc17 	ldw	r2,-16(fp)
    3620:	10c00a04 	addi	r3,r2,40
    3624:	e0bffd17 	ldw	r2,-12(fp)
    3628:	10800217 	ldw	r2,8(r2)
    362c:	1809883a 	mov	r4,r3
    3630:	e17ffe17 	ldw	r5,-8(fp)
    3634:	e1bfff17 	ldw	r6,-4(fp)
    3638:	100f883a 	mov	r7,r2
    363c:	00037b80 	call	37b8 <altera_avalon_uart_write>
    3640:	e037883a 	mov	sp,fp
    3644:	dfc00117 	ldw	ra,4(sp)
    3648:	df000017 	ldw	fp,0(sp)
    364c:	dec00204 	addi	sp,sp,8
    3650:	f800283a 	ret

00003654 <alt_get_errno>:
    3654:	defffe04 	addi	sp,sp,-8
    3658:	dfc00115 	stw	ra,4(sp)
    365c:	df000015 	stw	fp,0(sp)
    3660:	d839883a 	mov	fp,sp
    3664:	00800034 	movhi	r2,0
    3668:	10986104 	addi	r2,r2,24964
    366c:	10800017 	ldw	r2,0(r2)
    3670:	10000526 	beq	r2,zero,3688 <alt_get_errno+0x34>
    3674:	00800034 	movhi	r2,0
    3678:	10986104 	addi	r2,r2,24964
    367c:	10800017 	ldw	r2,0(r2)
    3680:	103ee83a 	callr	r2
    3684:	00000206 	br	3690 <alt_get_errno+0x3c>
    3688:	00800034 	movhi	r2,0
    368c:	10986704 	addi	r2,r2,24988
    3690:	e037883a 	mov	sp,fp
    3694:	dfc00117 	ldw	ra,4(sp)
    3698:	df000017 	ldw	fp,0(sp)
    369c:	dec00204 	addi	sp,sp,8
    36a0:	f800283a 	ret

000036a4 <altera_avalon_uart_read>:
    36a4:	defff804 	addi	sp,sp,-32
    36a8:	dfc00715 	stw	ra,28(sp)
    36ac:	df000615 	stw	fp,24(sp)
    36b0:	df000604 	addi	fp,sp,24
    36b4:	e13ffc15 	stw	r4,-16(fp)
    36b8:	e17ffd15 	stw	r5,-12(fp)
    36bc:	e1bffe15 	stw	r6,-8(fp)
    36c0:	e1ffff15 	stw	r7,-4(fp)
    36c4:	e0bfff17 	ldw	r2,-4(fp)
    36c8:	1090000c 	andi	r2,r2,16384
    36cc:	1005003a 	cmpeq	r2,r2,zero
    36d0:	10803fcc 	andi	r2,r2,255
    36d4:	e0bffa15 	stw	r2,-24(fp)
    36d8:	e0bffc17 	ldw	r2,-16(fp)
    36dc:	10800017 	ldw	r2,0(r2)
    36e0:	10800204 	addi	r2,r2,8
    36e4:	10800037 	ldwio	r2,0(r2)
    36e8:	e0bffb15 	stw	r2,-20(fp)
    36ec:	e0bffc17 	ldw	r2,-16(fp)
    36f0:	10800017 	ldw	r2,0(r2)
    36f4:	10800204 	addi	r2,r2,8
    36f8:	0007883a 	mov	r3,zero
    36fc:	10c00035 	stwio	r3,0(r2)
    3700:	e0bffb17 	ldw	r2,-20(fp)
    3704:	1080200c 	andi	r2,r2,128
    3708:	10000b26 	beq	r2,zero,3738 <altera_avalon_uart_read+0x94>
    370c:	e0bffc17 	ldw	r2,-16(fp)
    3710:	10800017 	ldw	r2,0(r2)
    3714:	10800037 	ldwio	r2,0(r2)
    3718:	1007883a 	mov	r3,r2
    371c:	e0bffd17 	ldw	r2,-12(fp)
    3720:	10c00005 	stb	r3,0(r2)
    3724:	e0bffb17 	ldw	r2,-20(fp)
    3728:	108000cc 	andi	r2,r2,3
    372c:	1000021e 	bne	r2,zero,3738 <altera_avalon_uart_read+0x94>
    3730:	00800044 	movi	r2,1
    3734:	00000706 	br	3754 <altera_avalon_uart_read+0xb0>
    3738:	e0bffa17 	ldw	r2,-24(fp)
    373c:	103fe61e 	bne	r2,zero,36d8 <altera_avalon_uart_read+0x34>
    3740:	00036540 	call	3654 <alt_get_errno>
    3744:	1007883a 	mov	r3,r2
    3748:	008002c4 	movi	r2,11
    374c:	18800015 	stw	r2,0(r3)
    3750:	0005883a 	mov	r2,zero
    3754:	e037883a 	mov	sp,fp
    3758:	dfc00117 	ldw	ra,4(sp)
    375c:	df000017 	ldw	fp,0(sp)
    3760:	dec00204 	addi	sp,sp,8
    3764:	f800283a 	ret

00003768 <alt_get_errno>:
    3768:	defffe04 	addi	sp,sp,-8
    376c:	dfc00115 	stw	ra,4(sp)
    3770:	df000015 	stw	fp,0(sp)
    3774:	d839883a 	mov	fp,sp
    3778:	00800034 	movhi	r2,0
    377c:	10986104 	addi	r2,r2,24964
    3780:	10800017 	ldw	r2,0(r2)
    3784:	10000526 	beq	r2,zero,379c <alt_get_errno+0x34>
    3788:	00800034 	movhi	r2,0
    378c:	10986104 	addi	r2,r2,24964
    3790:	10800017 	ldw	r2,0(r2)
    3794:	103ee83a 	callr	r2
    3798:	00000206 	br	37a4 <alt_get_errno+0x3c>
    379c:	00800034 	movhi	r2,0
    37a0:	10986704 	addi	r2,r2,24988
    37a4:	e037883a 	mov	sp,fp
    37a8:	dfc00117 	ldw	ra,4(sp)
    37ac:	df000017 	ldw	fp,0(sp)
    37b0:	dec00204 	addi	sp,sp,8
    37b4:	f800283a 	ret

000037b8 <altera_avalon_uart_write>:
    37b8:	defff704 	addi	sp,sp,-36
    37bc:	dfc00815 	stw	ra,32(sp)
    37c0:	df000715 	stw	fp,28(sp)
    37c4:	df000704 	addi	fp,sp,28
    37c8:	e13ffc15 	stw	r4,-16(fp)
    37cc:	e17ffd15 	stw	r5,-12(fp)
    37d0:	e1bffe15 	stw	r6,-8(fp)
    37d4:	e1ffff15 	stw	r7,-4(fp)
    37d8:	e0bfff17 	ldw	r2,-4(fp)
    37dc:	1090000c 	andi	r2,r2,16384
    37e0:	1005003a 	cmpeq	r2,r2,zero
    37e4:	10803fcc 	andi	r2,r2,255
    37e8:	e0bffa15 	stw	r2,-24(fp)
    37ec:	e0bffe17 	ldw	r2,-8(fp)
    37f0:	e0bff915 	stw	r2,-28(fp)
    37f4:	e0bffc17 	ldw	r2,-16(fp)
    37f8:	10800017 	ldw	r2,0(r2)
    37fc:	10800204 	addi	r2,r2,8
    3800:	10800037 	ldwio	r2,0(r2)
    3804:	e0bffb15 	stw	r2,-20(fp)
    3808:	e0bffb17 	ldw	r2,-20(fp)
    380c:	1080100c 	andi	r2,r2,64
    3810:	10000f26 	beq	r2,zero,3850 <altera_avalon_uart_write+0x98>
    3814:	e0bffc17 	ldw	r2,-16(fp)
    3818:	10800017 	ldw	r2,0(r2)
    381c:	10800104 	addi	r2,r2,4
    3820:	1009883a 	mov	r4,r2
    3824:	e0bffd17 	ldw	r2,-12(fp)
    3828:	10c00044 	addi	r3,r2,1
    382c:	e0fffd15 	stw	r3,-12(fp)
    3830:	10800003 	ldbu	r2,0(r2)
    3834:	10803fcc 	andi	r2,r2,255
    3838:	1080201c 	xori	r2,r2,128
    383c:	10bfe004 	addi	r2,r2,-128
    3840:	20800035 	stwio	r2,0(r4)
    3844:	e0bff917 	ldw	r2,-28(fp)
    3848:	10bfffc4 	addi	r2,r2,-1
    384c:	e0bff915 	stw	r2,-28(fp)
    3850:	e0bffa17 	ldw	r2,-24(fp)
    3854:	10000226 	beq	r2,zero,3860 <altera_avalon_uart_write+0xa8>
    3858:	e0bff917 	ldw	r2,-28(fp)
    385c:	103fe51e 	bne	r2,zero,37f4 <altera_avalon_uart_write+0x3c>
    3860:	e0bff917 	ldw	r2,-28(fp)
    3864:	10000426 	beq	r2,zero,3878 <altera_avalon_uart_write+0xc0>
    3868:	00037680 	call	3768 <alt_get_errno>
    386c:	1007883a 	mov	r3,r2
    3870:	008002c4 	movi	r2,11
    3874:	18800015 	stw	r2,0(r3)
    3878:	e0fffe17 	ldw	r3,-8(fp)
    387c:	e0bff917 	ldw	r2,-28(fp)
    3880:	1885c83a 	sub	r2,r3,r2
    3884:	e037883a 	mov	sp,fp
    3888:	dfc00117 	ldw	ra,4(sp)
    388c:	df000017 	ldw	fp,0(sp)
    3890:	dec00204 	addi	sp,sp,8
    3894:	f800283a 	ret

00003898 <alt_flash_device_register>:
    3898:	defffd04 	addi	sp,sp,-12
    389c:	dfc00215 	stw	ra,8(sp)
    38a0:	df000115 	stw	fp,4(sp)
    38a4:	df000104 	addi	fp,sp,4
    38a8:	e13fff15 	stw	r4,-4(fp)
    38ac:	e13fff17 	ldw	r4,-4(fp)
    38b0:	01400034 	movhi	r5,0
    38b4:	29586204 	addi	r5,r5,24968
    38b8:	0004ae40 	call	4ae4 <alt_dev_llist_insert>
    38bc:	e037883a 	mov	sp,fp
    38c0:	dfc00117 	ldw	ra,4(sp)
    38c4:	df000017 	ldw	fp,0(sp)
    38c8:	dec00204 	addi	sp,sp,8
    38cc:	f800283a 	ret

000038d0 <alt_onchip_flash_read>:
    38d0:	defff704 	addi	sp,sp,-36
    38d4:	dfc00815 	stw	ra,32(sp)
    38d8:	df000715 	stw	fp,28(sp)
    38dc:	df000704 	addi	fp,sp,28
    38e0:	e13ffc15 	stw	r4,-16(fp)
    38e4:	e17ffd15 	stw	r5,-12(fp)
    38e8:	e1bffe15 	stw	r6,-8(fp)
    38ec:	e1ffff15 	stw	r7,-4(fp)
    38f0:	e03ff915 	stw	zero,-28(fp)
    38f4:	e0bffc17 	ldw	r2,-16(fp)
    38f8:	e0bffa15 	stw	r2,-24(fp)
    38fc:	e0bffa17 	ldw	r2,-24(fp)
    3900:	10800b17 	ldw	r2,44(r2)
    3904:	e0fffd17 	ldw	r3,-12(fp)
    3908:	1880060e 	bge	r3,r2,3924 <alt_onchip_flash_read+0x54>
    390c:	e0fffd17 	ldw	r3,-12(fp)
    3910:	e0bfff17 	ldw	r2,-4(fp)
    3914:	1885883a 	add	r2,r3,r2
    3918:	e0fffa17 	ldw	r3,-24(fp)
    391c:	18c00b17 	ldw	r3,44(r3)
    3920:	1880020e 	bge	r3,r2,392c <alt_onchip_flash_read+0x5c>
    3924:	00bffc84 	movi	r2,-14
    3928:	00001706 	br	3988 <alt_onchip_flash_read+0xb8>
    392c:	e0bffa17 	ldw	r2,-24(fp)
    3930:	10c00a17 	ldw	r3,40(r2)
    3934:	e0bffd17 	ldw	r2,-12(fp)
    3938:	1887883a 	add	r3,r3,r2
    393c:	e0bfff17 	ldw	r2,-4(fp)
    3940:	e13ffe17 	ldw	r4,-8(fp)
    3944:	180b883a 	mov	r5,r3
    3948:	100d883a 	mov	r6,r2
    394c:	000550c0 	call	550c <memcpy>
    3950:	e0bffa17 	ldw	r2,-24(fp)
    3954:	10802f17 	ldw	r2,188(r2)
    3958:	10000a26 	beq	r2,zero,3984 <alt_onchip_flash_read+0xb4>
    395c:	e0bffa17 	ldw	r2,-24(fp)
    3960:	10802f17 	ldw	r2,188(r2)
    3964:	10800037 	ldwio	r2,0(r2)
    3968:	1080010c 	andi	r2,r2,4
    396c:	e0bffb15 	stw	r2,-20(fp)
    3970:	e0bffb17 	ldw	r2,-20(fp)
    3974:	10800120 	cmpeqi	r2,r2,4
    3978:	1000021e 	bne	r2,zero,3984 <alt_onchip_flash_read+0xb4>
    397c:	00bffec4 	movi	r2,-5
    3980:	e0bff915 	stw	r2,-28(fp)
    3984:	e0bff917 	ldw	r2,-28(fp)
    3988:	e037883a 	mov	sp,fp
    398c:	dfc00117 	ldw	ra,4(sp)
    3990:	df000017 	ldw	fp,0(sp)
    3994:	dec00204 	addi	sp,sp,8
    3998:	f800283a 	ret

0000399c <alt_onchip_flash_get_info>:
    399c:	defffa04 	addi	sp,sp,-24
    39a0:	df000515 	stw	fp,20(sp)
    39a4:	df000504 	addi	fp,sp,20
    39a8:	e13ffd15 	stw	r4,-12(fp)
    39ac:	e17ffe15 	stw	r5,-8(fp)
    39b0:	e1bfff15 	stw	r6,-4(fp)
    39b4:	e03ffb15 	stw	zero,-20(fp)
    39b8:	e0bffd17 	ldw	r2,-12(fp)
    39bc:	e0bffc15 	stw	r2,-16(fp)
    39c0:	e0bfff17 	ldw	r2,-4(fp)
    39c4:	10000426 	beq	r2,zero,39d8 <alt_onchip_flash_get_info+0x3c>
    39c8:	e0bffc17 	ldw	r2,-16(fp)
    39cc:	10c00c17 	ldw	r3,48(r2)
    39d0:	e0bfff17 	ldw	r2,-4(fp)
    39d4:	10c00015 	stw	r3,0(r2)
    39d8:	e0bffc17 	ldw	r2,-16(fp)
    39dc:	10800c17 	ldw	r2,48(r2)
    39e0:	1000031e 	bne	r2,zero,39f0 <alt_onchip_flash_get_info+0x54>
    39e4:	00bffd04 	movi	r2,-12
    39e8:	e0bffb15 	stw	r2,-20(fp)
    39ec:	00000d06 	br	3a24 <alt_onchip_flash_get_info+0x88>
    39f0:	e0bffc17 	ldw	r2,-16(fp)
    39f4:	10800c17 	ldw	r2,48(r2)
    39f8:	10800250 	cmplti	r2,r2,9
    39fc:	1000031e 	bne	r2,zero,3a0c <alt_onchip_flash_get_info+0x70>
    3a00:	00bffc84 	movi	r2,-14
    3a04:	e0bffb15 	stw	r2,-20(fp)
    3a08:	00000606 	br	3a24 <alt_onchip_flash_get_info+0x88>
    3a0c:	e0bffe17 	ldw	r2,-8(fp)
    3a10:	10000426 	beq	r2,zero,3a24 <alt_onchip_flash_get_info+0x88>
    3a14:	e0bffc17 	ldw	r2,-16(fp)
    3a18:	10c00d04 	addi	r3,r2,52
    3a1c:	e0bffe17 	ldw	r2,-8(fp)
    3a20:	10c00015 	stw	r3,0(r2)
    3a24:	e0bffb17 	ldw	r2,-20(fp)
    3a28:	e037883a 	mov	sp,fp
    3a2c:	df000017 	ldw	fp,0(sp)
    3a30:	dec00104 	addi	sp,sp,4
    3a34:	f800283a 	ret

00003a38 <alt_onchip_flash_erase_block>:
    3a38:	defff904 	addi	sp,sp,-28
    3a3c:	dfc00615 	stw	ra,24(sp)
    3a40:	df000515 	stw	fp,20(sp)
    3a44:	df000504 	addi	fp,sp,20
    3a48:	e13ffe15 	stw	r4,-8(fp)
    3a4c:	e17fff15 	stw	r5,-4(fp)
    3a50:	e03ffb15 	stw	zero,-20(fp)
    3a54:	e0bffe17 	ldw	r2,-8(fp)
    3a58:	e0bffc15 	stw	r2,-16(fp)
    3a5c:	e0bffc17 	ldw	r2,-16(fp)
    3a60:	10800b17 	ldw	r2,44(r2)
    3a64:	e0ffff17 	ldw	r3,-4(fp)
    3a68:	18800216 	blt	r3,r2,3a74 <alt_onchip_flash_erase_block+0x3c>
    3a6c:	00bffc84 	movi	r2,-14
    3a70:	00004606 	br	3b8c <alt_onchip_flash_erase_block+0x154>
    3a74:	e0bffc17 	ldw	r2,-16(fp)
    3a78:	10802f17 	ldw	r2,188(r2)
    3a7c:	10000326 	beq	r2,zero,3a8c <alt_onchip_flash_erase_block+0x54>
    3a80:	e0bffc17 	ldw	r2,-16(fp)
    3a84:	10802e17 	ldw	r2,184(r2)
    3a88:	10000226 	beq	r2,zero,3a94 <alt_onchip_flash_erase_block+0x5c>
    3a8c:	00bffb44 	movi	r2,-19
    3a90:	00003e06 	br	3b8c <alt_onchip_flash_erase_block+0x154>
    3a94:	e0bffc17 	ldw	r2,-16(fp)
    3a98:	10803f17 	ldw	r2,252(r2)
    3a9c:	10ffffc4 	addi	r3,r2,-1
    3aa0:	e0bfff17 	ldw	r2,-4(fp)
    3aa4:	1884703a 	and	r2,r3,r2
    3aa8:	10000226 	beq	r2,zero,3ab4 <alt_onchip_flash_erase_block+0x7c>
    3aac:	00bffa84 	movi	r2,-22
    3ab0:	00003606 	br	3b8c <alt_onchip_flash_erase_block+0x154>
    3ab4:	e13ffc17 	ldw	r4,-16(fp)
    3ab8:	00046140 	call	4614 <alt_onchip_flash_poll_for_status_to_go_idle>
    3abc:	e0bffb15 	stw	r2,-20(fp)
    3ac0:	e0bffb17 	ldw	r2,-20(fp)
    3ac4:	10000226 	beq	r2,zero,3ad0 <alt_onchip_flash_erase_block+0x98>
    3ac8:	e0bffb17 	ldw	r2,-20(fp)
    3acc:	00002f06 	br	3b8c <alt_onchip_flash_erase_block+0x154>
    3ad0:	e0bffc17 	ldw	r2,-16(fp)
    3ad4:	10802f17 	ldw	r2,188(r2)
    3ad8:	10c00104 	addi	r3,r2,4
    3adc:	e0bffc17 	ldw	r2,-16(fp)
    3ae0:	10802f17 	ldw	r2,188(r2)
    3ae4:	10800104 	addi	r2,r2,4
    3ae8:	10800037 	ldwio	r2,0(r2)
    3aec:	113c002c 	andhi	r4,r2,61440
    3af0:	00802034 	movhi	r2,128
    3af4:	10bfffc4 	addi	r2,r2,-1
    3af8:	2084b03a 	or	r2,r4,r2
    3afc:	18800035 	stwio	r2,0(r3)
    3b00:	e0bfff17 	ldw	r2,-4(fp)
    3b04:	1000010e 	bge	r2,zero,3b0c <alt_onchip_flash_erase_block+0xd4>
    3b08:	108000c4 	addi	r2,r2,3
    3b0c:	1005d0ba 	srai	r2,r2,2
    3b10:	e0bffd15 	stw	r2,-12(fp)
    3b14:	e0bffc17 	ldw	r2,-16(fp)
    3b18:	10802f17 	ldw	r2,188(r2)
    3b1c:	10800104 	addi	r2,r2,4
    3b20:	e0fffc17 	ldw	r3,-16(fp)
    3b24:	18c02f17 	ldw	r3,188(r3)
    3b28:	18c00104 	addi	r3,r3,4
    3b2c:	18c00037 	ldwio	r3,0(r3)
    3b30:	193c002c 	andhi	r4,r3,61440
    3b34:	e0fffd17 	ldw	r3,-12(fp)
    3b38:	18c01c34 	orhi	r3,r3,112
    3b3c:	20c6b03a 	or	r3,r4,r3
    3b40:	10c00035 	stwio	r3,0(r2)
    3b44:	e13ffc17 	ldw	r4,-16(fp)
    3b48:	00046140 	call	4614 <alt_onchip_flash_poll_for_status_to_go_idle>
    3b4c:	e0bffb15 	stw	r2,-20(fp)
    3b50:	e13ffc17 	ldw	r4,-16(fp)
    3b54:	00046a40 	call	46a4 <alt_onchip_flash_poll_for_status_erase_passed>
    3b58:	e0bffb15 	stw	r2,-20(fp)
    3b5c:	e0bffc17 	ldw	r2,-16(fp)
    3b60:	10802f17 	ldw	r2,188(r2)
    3b64:	10c00104 	addi	r3,r2,4
    3b68:	e0bffc17 	ldw	r2,-16(fp)
    3b6c:	10802f17 	ldw	r2,188(r2)
    3b70:	10800104 	addi	r2,r2,4
    3b74:	11000037 	ldwio	r4,0(r2)
    3b78:	00840034 	movhi	r2,4096
    3b7c:	10bfffc4 	addi	r2,r2,-1
    3b80:	2084b03a 	or	r2,r4,r2
    3b84:	18800035 	stwio	r2,0(r3)
    3b88:	e0bffb17 	ldw	r2,-20(fp)
    3b8c:	e037883a 	mov	sp,fp
    3b90:	dfc00117 	ldw	ra,4(sp)
    3b94:	df000017 	ldw	fp,0(sp)
    3b98:	dec00204 	addi	sp,sp,8
    3b9c:	f800283a 	ret

00003ba0 <alt_onchip_flash_write_block>:
    3ba0:	defff204 	addi	sp,sp,-56
    3ba4:	dfc00d15 	stw	ra,52(sp)
    3ba8:	df000c15 	stw	fp,48(sp)
    3bac:	df000c04 	addi	fp,sp,48
    3bb0:	e13ffc15 	stw	r4,-16(fp)
    3bb4:	e17ffd15 	stw	r5,-12(fp)
    3bb8:	e1bffe15 	stw	r6,-8(fp)
    3bbc:	e1ffff15 	stw	r7,-4(fp)
    3bc0:	e03ff415 	stw	zero,-48(fp)
    3bc4:	e0bffc17 	ldw	r2,-16(fp)
    3bc8:	e0bff815 	stw	r2,-32(fp)
    3bcc:	e03ff515 	stw	zero,-44(fp)
    3bd0:	e0bffe17 	ldw	r2,-8(fp)
    3bd4:	e0bff615 	stw	r2,-40(fp)
    3bd8:	e0bff817 	ldw	r2,-32(fp)
    3bdc:	10800b17 	ldw	r2,44(r2)
    3be0:	e0fffd17 	ldw	r3,-12(fp)
    3be4:	18800a0e 	bge	r3,r2,3c10 <alt_onchip_flash_write_block+0x70>
    3be8:	e0bff817 	ldw	r2,-32(fp)
    3bec:	10800b17 	ldw	r2,44(r2)
    3bf0:	e0fffe17 	ldw	r3,-8(fp)
    3bf4:	1880060e 	bge	r3,r2,3c10 <alt_onchip_flash_write_block+0x70>
    3bf8:	e0bff817 	ldw	r2,-32(fp)
    3bfc:	10c00b17 	ldw	r3,44(r2)
    3c00:	e0bffe17 	ldw	r2,-8(fp)
    3c04:	1887c83a 	sub	r3,r3,r2
    3c08:	e0800217 	ldw	r2,8(fp)
    3c0c:	1880020e 	bge	r3,r2,3c18 <alt_onchip_flash_write_block+0x78>
    3c10:	00bffc84 	movi	r2,-14
    3c14:	00008e06 	br	3e50 <alt_onchip_flash_write_block+0x2b0>
    3c18:	e0bff817 	ldw	r2,-32(fp)
    3c1c:	10802f17 	ldw	r2,188(r2)
    3c20:	10000326 	beq	r2,zero,3c30 <alt_onchip_flash_write_block+0x90>
    3c24:	e0bff817 	ldw	r2,-32(fp)
    3c28:	10802e17 	ldw	r2,184(r2)
    3c2c:	10000226 	beq	r2,zero,3c38 <alt_onchip_flash_write_block+0x98>
    3c30:	00bffb44 	movi	r2,-19
    3c34:	00008606 	br	3e50 <alt_onchip_flash_write_block+0x2b0>
    3c38:	e13ff817 	ldw	r4,-32(fp)
    3c3c:	00046140 	call	4614 <alt_onchip_flash_poll_for_status_to_go_idle>
    3c40:	e0bff415 	stw	r2,-48(fp)
    3c44:	e0bff417 	ldw	r2,-48(fp)
    3c48:	10000226 	beq	r2,zero,3c54 <alt_onchip_flash_write_block+0xb4>
    3c4c:	e0bff417 	ldw	r2,-48(fp)
    3c50:	00007f06 	br	3e50 <alt_onchip_flash_write_block+0x2b0>
    3c54:	e0bff817 	ldw	r2,-32(fp)
    3c58:	10802f17 	ldw	r2,188(r2)
    3c5c:	10c00104 	addi	r3,r2,4
    3c60:	e0bff817 	ldw	r2,-32(fp)
    3c64:	10802f17 	ldw	r2,188(r2)
    3c68:	10800104 	addi	r2,r2,4
    3c6c:	10800037 	ldwio	r2,0(r2)
    3c70:	113c002c 	andhi	r4,r2,61440
    3c74:	00802034 	movhi	r2,128
    3c78:	10bfffc4 	addi	r2,r2,-1
    3c7c:	2084b03a 	or	r2,r4,r2
    3c80:	18800035 	stwio	r2,0(r3)
    3c84:	00006406 	br	3e18 <alt_onchip_flash_write_block+0x278>
    3c88:	00bfffc4 	movi	r2,-1
    3c8c:	e0bffb15 	stw	r2,-20(fp)
    3c90:	e0bff617 	ldw	r2,-40(fp)
    3c94:	108000cc 	andi	r2,r2,3
    3c98:	10001d1e 	bne	r2,zero,3d10 <alt_onchip_flash_write_block+0x170>
    3c9c:	e0bff617 	ldw	r2,-40(fp)
    3ca0:	10c00104 	addi	r3,r2,4
    3ca4:	00bfff04 	movi	r2,-4
    3ca8:	1884703a 	and	r2,r3,r2
    3cac:	e0bff715 	stw	r2,-36(fp)
    3cb0:	e0fff717 	ldw	r3,-36(fp)
    3cb4:	e0bff617 	ldw	r2,-40(fp)
    3cb8:	1885c83a 	sub	r2,r3,r2
    3cbc:	e0c00217 	ldw	r3,8(fp)
    3cc0:	1880010e 	bge	r3,r2,3cc8 <alt_onchip_flash_write_block+0x128>
    3cc4:	1805883a 	mov	r2,r3
    3cc8:	e0bff915 	stw	r2,-28(fp)
    3ccc:	e0bff517 	ldw	r2,-44(fp)
    3cd0:	e0ffff17 	ldw	r3,-4(fp)
    3cd4:	1887883a 	add	r3,r3,r2
    3cd8:	e0bff917 	ldw	r2,-28(fp)
    3cdc:	e13ffb04 	addi	r4,fp,-20
    3ce0:	180b883a 	mov	r5,r3
    3ce4:	100d883a 	mov	r6,r2
    3ce8:	000550c0 	call	550c <memcpy>
    3cec:	e0fff517 	ldw	r3,-44(fp)
    3cf0:	e0bff917 	ldw	r2,-28(fp)
    3cf4:	1885883a 	add	r2,r3,r2
    3cf8:	e0bff515 	stw	r2,-44(fp)
    3cfc:	e0c00217 	ldw	r3,8(fp)
    3d00:	e0bff917 	ldw	r2,-28(fp)
    3d04:	1885c83a 	sub	r2,r3,r2
    3d08:	e0800215 	stw	r2,8(fp)
    3d0c:	00002e06 	br	3dc8 <alt_onchip_flash_write_block+0x228>
    3d10:	e0bff617 	ldw	r2,-40(fp)
    3d14:	108000cc 	andi	r2,r2,3
    3d18:	e0bffa15 	stw	r2,-24(fp)
    3d1c:	e0fff617 	ldw	r3,-40(fp)
    3d20:	e0bffa17 	ldw	r2,-24(fp)
    3d24:	1885c83a 	sub	r2,r3,r2
    3d28:	e0bff615 	stw	r2,-40(fp)
    3d2c:	e0bff617 	ldw	r2,-40(fp)
    3d30:	10c00104 	addi	r3,r2,4
    3d34:	00bfff04 	movi	r2,-4
    3d38:	1884703a 	and	r2,r3,r2
    3d3c:	e0bff715 	stw	r2,-36(fp)
    3d40:	e0fff717 	ldw	r3,-36(fp)
    3d44:	e0bff617 	ldw	r2,-40(fp)
    3d48:	1889c83a 	sub	r4,r3,r2
    3d4c:	e0c00217 	ldw	r3,8(fp)
    3d50:	e0bffa17 	ldw	r2,-24(fp)
    3d54:	1887883a 	add	r3,r3,r2
    3d58:	2005883a 	mov	r2,r4
    3d5c:	1880010e 	bge	r3,r2,3d64 <alt_onchip_flash_write_block+0x1c4>
    3d60:	1805883a 	mov	r2,r3
    3d64:	e0bff915 	stw	r2,-28(fp)
    3d68:	e0fffb04 	addi	r3,fp,-20
    3d6c:	e0bffa17 	ldw	r2,-24(fp)
    3d70:	1885883a 	add	r2,r3,r2
    3d74:	1009883a 	mov	r4,r2
    3d78:	e0bff517 	ldw	r2,-44(fp)
    3d7c:	e0ffff17 	ldw	r3,-4(fp)
    3d80:	188b883a 	add	r5,r3,r2
    3d84:	e0fff917 	ldw	r3,-28(fp)
    3d88:	e0bffa17 	ldw	r2,-24(fp)
    3d8c:	1885c83a 	sub	r2,r3,r2
    3d90:	100d883a 	mov	r6,r2
    3d94:	000550c0 	call	550c <memcpy>
    3d98:	e0fff917 	ldw	r3,-28(fp)
    3d9c:	e0bffa17 	ldw	r2,-24(fp)
    3da0:	1885c83a 	sub	r2,r3,r2
    3da4:	e0fff517 	ldw	r3,-44(fp)
    3da8:	1885883a 	add	r2,r3,r2
    3dac:	e0bff515 	stw	r2,-44(fp)
    3db0:	e0fffa17 	ldw	r3,-24(fp)
    3db4:	e0bff917 	ldw	r2,-28(fp)
    3db8:	1885c83a 	sub	r2,r3,r2
    3dbc:	e0c00217 	ldw	r3,8(fp)
    3dc0:	1885883a 	add	r2,r3,r2
    3dc4:	e0800215 	stw	r2,8(fp)
    3dc8:	e0bff817 	ldw	r2,-32(fp)
    3dcc:	10c00a17 	ldw	r3,40(r2)
    3dd0:	e0bff617 	ldw	r2,-40(fp)
    3dd4:	1885883a 	add	r2,r3,r2
    3dd8:	e0fffb17 	ldw	r3,-20(fp)
    3ddc:	10c00035 	stwio	r3,0(r2)
    3de0:	e13ff817 	ldw	r4,-32(fp)
    3de4:	00046140 	call	4614 <alt_onchip_flash_poll_for_status_to_go_idle>
    3de8:	e0bff415 	stw	r2,-48(fp)
    3dec:	e0bff417 	ldw	r2,-48(fp)
    3df0:	10000126 	beq	r2,zero,3df8 <alt_onchip_flash_write_block+0x258>
    3df4:	00000a06 	br	3e20 <alt_onchip_flash_write_block+0x280>
    3df8:	e13ff817 	ldw	r4,-32(fp)
    3dfc:	00047340 	call	4734 <alt_onchip_flash_poll_for_status_write_passed>
    3e00:	e0bff415 	stw	r2,-48(fp)
    3e04:	e0bff417 	ldw	r2,-48(fp)
    3e08:	10000126 	beq	r2,zero,3e10 <alt_onchip_flash_write_block+0x270>
    3e0c:	00000406 	br	3e20 <alt_onchip_flash_write_block+0x280>
    3e10:	e0bff717 	ldw	r2,-36(fp)
    3e14:	e0bff615 	stw	r2,-40(fp)
    3e18:	e0800217 	ldw	r2,8(fp)
    3e1c:	103f9a1e 	bne	r2,zero,3c88 <alt_onchip_flash_write_block+0xe8>
    3e20:	e0bff817 	ldw	r2,-32(fp)
    3e24:	10802f17 	ldw	r2,188(r2)
    3e28:	10c00104 	addi	r3,r2,4
    3e2c:	e0bff817 	ldw	r2,-32(fp)
    3e30:	10802f17 	ldw	r2,188(r2)
    3e34:	10800104 	addi	r2,r2,4
    3e38:	11000037 	ldwio	r4,0(r2)
    3e3c:	00840034 	movhi	r2,4096
    3e40:	10bfffc4 	addi	r2,r2,-1
    3e44:	2084b03a 	or	r2,r4,r2
    3e48:	18800035 	stwio	r2,0(r3)
    3e4c:	e0bff417 	ldw	r2,-48(fp)
    3e50:	e037883a 	mov	sp,fp
    3e54:	dfc00117 	ldw	ra,4(sp)
    3e58:	df000017 	ldw	fp,0(sp)
    3e5c:	dec00204 	addi	sp,sp,8
    3e60:	f800283a 	ret

00003e64 <alt_onchip_flash_write>:
    3e64:	defff104 	addi	sp,sp,-60
    3e68:	dfc00e15 	stw	ra,56(sp)
    3e6c:	df000d15 	stw	fp,52(sp)
    3e70:	df000d04 	addi	fp,sp,52
    3e74:	e13ffc15 	stw	r4,-16(fp)
    3e78:	e17ffd15 	stw	r5,-12(fp)
    3e7c:	e1bffe15 	stw	r6,-8(fp)
    3e80:	e1ffff15 	stw	r7,-4(fp)
    3e84:	e03ff415 	stw	zero,-48(fp)
    3e88:	e0bfff17 	ldw	r2,-4(fp)
    3e8c:	e0bff815 	stw	r2,-32(fp)
    3e90:	e0bffd17 	ldw	r2,-12(fp)
    3e94:	e0bff915 	stw	r2,-28(fp)
    3e98:	e0bffc17 	ldw	r2,-16(fp)
    3e9c:	e0bffa15 	stw	r2,-24(fp)
    3ea0:	e0bffa17 	ldw	r2,-24(fp)
    3ea4:	10800b17 	ldw	r2,44(r2)
    3ea8:	e0fffd17 	ldw	r3,-12(fp)
    3eac:	1880060e 	bge	r3,r2,3ec8 <alt_onchip_flash_write+0x64>
    3eb0:	e0bffa17 	ldw	r2,-24(fp)
    3eb4:	10c00b17 	ldw	r3,44(r2)
    3eb8:	e0bffd17 	ldw	r2,-12(fp)
    3ebc:	1887c83a 	sub	r3,r3,r2
    3ec0:	e0bfff17 	ldw	r2,-4(fp)
    3ec4:	1880020e 	bge	r3,r2,3ed0 <alt_onchip_flash_write+0x6c>
    3ec8:	00bffc84 	movi	r2,-14
    3ecc:	00009606 	br	4128 <alt_onchip_flash_write+0x2c4>
    3ed0:	e03ff515 	stw	zero,-44(fp)
    3ed4:	00008706 	br	40f4 <alt_onchip_flash_write+0x290>
    3ed8:	e0fffa17 	ldw	r3,-24(fp)
    3edc:	e0bff517 	ldw	r2,-44(fp)
    3ee0:	1004913a 	slli	r2,r2,4
    3ee4:	10800d04 	addi	r2,r2,52
    3ee8:	1885883a 	add	r2,r3,r2
    3eec:	10800017 	ldw	r2,0(r2)
    3ef0:	e0fffd17 	ldw	r3,-12(fp)
    3ef4:	18807c16 	blt	r3,r2,40e8 <alt_onchip_flash_write+0x284>
    3ef8:	e0fffa17 	ldw	r3,-24(fp)
    3efc:	e0bff517 	ldw	r2,-44(fp)
    3f00:	1004913a 	slli	r2,r2,4
    3f04:	10800d04 	addi	r2,r2,52
    3f08:	1885883a 	add	r2,r3,r2
    3f0c:	10c00017 	ldw	r3,0(r2)
    3f10:	e13ffa17 	ldw	r4,-24(fp)
    3f14:	e0bff517 	ldw	r2,-44(fp)
    3f18:	1004913a 	slli	r2,r2,4
    3f1c:	10800e04 	addi	r2,r2,56
    3f20:	2085883a 	add	r2,r4,r2
    3f24:	10800017 	ldw	r2,0(r2)
    3f28:	1885883a 	add	r2,r3,r2
    3f2c:	e0fffd17 	ldw	r3,-12(fp)
    3f30:	18806d0e 	bge	r3,r2,40e8 <alt_onchip_flash_write+0x284>
    3f34:	e0fffa17 	ldw	r3,-24(fp)
    3f38:	e0bff517 	ldw	r2,-44(fp)
    3f3c:	1004913a 	slli	r2,r2,4
    3f40:	10800d04 	addi	r2,r2,52
    3f44:	1885883a 	add	r2,r3,r2
    3f48:	10800017 	ldw	r2,0(r2)
    3f4c:	e0bff715 	stw	r2,-36(fp)
    3f50:	e03ff615 	stw	zero,-40(fp)
    3f54:	00005c06 	br	40c8 <alt_onchip_flash_write+0x264>
    3f58:	e0fffd17 	ldw	r3,-12(fp)
    3f5c:	e0bff717 	ldw	r2,-36(fp)
    3f60:	18804d16 	blt	r3,r2,4098 <alt_onchip_flash_write+0x234>
    3f64:	e0fffa17 	ldw	r3,-24(fp)
    3f68:	e0bff517 	ldw	r2,-44(fp)
    3f6c:	10800104 	addi	r2,r2,4
    3f70:	1004913a 	slli	r2,r2,4
    3f74:	1885883a 	add	r2,r3,r2
    3f78:	10c00017 	ldw	r3,0(r2)
    3f7c:	e0bff717 	ldw	r2,-36(fp)
    3f80:	1885883a 	add	r2,r3,r2
    3f84:	e0fffd17 	ldw	r3,-12(fp)
    3f88:	1880430e 	bge	r3,r2,4098 <alt_onchip_flash_write+0x234>
    3f8c:	e0fffa17 	ldw	r3,-24(fp)
    3f90:	e0bff517 	ldw	r2,-44(fp)
    3f94:	10800104 	addi	r2,r2,4
    3f98:	1004913a 	slli	r2,r2,4
    3f9c:	1885883a 	add	r2,r3,r2
    3fa0:	10c00017 	ldw	r3,0(r2)
    3fa4:	e0bff717 	ldw	r2,-36(fp)
    3fa8:	1887883a 	add	r3,r3,r2
    3fac:	e0bffd17 	ldw	r2,-12(fp)
    3fb0:	1885c83a 	sub	r2,r3,r2
    3fb4:	e0bffb15 	stw	r2,-20(fp)
    3fb8:	e0fffb17 	ldw	r3,-20(fp)
    3fbc:	e0bfff17 	ldw	r2,-4(fp)
    3fc0:	1880010e 	bge	r3,r2,3fc8 <alt_onchip_flash_write+0x164>
    3fc4:	1805883a 	mov	r2,r3
    3fc8:	e0bffb15 	stw	r2,-20(fp)
    3fcc:	e0bffa17 	ldw	r2,-24(fp)
    3fd0:	10c00a17 	ldw	r3,40(r2)
    3fd4:	e0bffd17 	ldw	r2,-12(fp)
    3fd8:	1887883a 	add	r3,r3,r2
    3fdc:	e0bffb17 	ldw	r2,-20(fp)
    3fe0:	e13ffe17 	ldw	r4,-8(fp)
    3fe4:	180b883a 	mov	r5,r3
    3fe8:	100d883a 	mov	r6,r2
    3fec:	00054dc0 	call	54dc <memcmp>
    3ff0:	10001326 	beq	r2,zero,4040 <alt_onchip_flash_write+0x1dc>
    3ff4:	e0bffa17 	ldw	r2,-24(fp)
    3ff8:	10800817 	ldw	r2,32(r2)
    3ffc:	e0fffa17 	ldw	r3,-24(fp)
    4000:	1809883a 	mov	r4,r3
    4004:	e17ff717 	ldw	r5,-36(fp)
    4008:	103ee83a 	callr	r2
    400c:	e0bff415 	stw	r2,-48(fp)
    4010:	e0bff417 	ldw	r2,-48(fp)
    4014:	10000a1e 	bne	r2,zero,4040 <alt_onchip_flash_write+0x1dc>
    4018:	e0bffa17 	ldw	r2,-24(fp)
    401c:	10800917 	ldw	r2,36(r2)
    4020:	e13ffa17 	ldw	r4,-24(fp)
    4024:	e0fffb17 	ldw	r3,-20(fp)
    4028:	d8c00015 	stw	r3,0(sp)
    402c:	e17ff717 	ldw	r5,-36(fp)
    4030:	e1bffd17 	ldw	r6,-12(fp)
    4034:	e1fffe17 	ldw	r7,-8(fp)
    4038:	103ee83a 	callr	r2
    403c:	e0bff415 	stw	r2,-48(fp)
    4040:	e0ffff17 	ldw	r3,-4(fp)
    4044:	e0bffb17 	ldw	r2,-20(fp)
    4048:	18802e26 	beq	r3,r2,4104 <alt_onchip_flash_write+0x2a0>
    404c:	e0bff417 	ldw	r2,-48(fp)
    4050:	10002c1e 	bne	r2,zero,4104 <alt_onchip_flash_write+0x2a0>
    4054:	e0ffff17 	ldw	r3,-4(fp)
    4058:	e0bffb17 	ldw	r2,-20(fp)
    405c:	1885c83a 	sub	r2,r3,r2
    4060:	e0bfff15 	stw	r2,-4(fp)
    4064:	e0fffa17 	ldw	r3,-24(fp)
    4068:	e0bff517 	ldw	r2,-44(fp)
    406c:	10800104 	addi	r2,r2,4
    4070:	1004913a 	slli	r2,r2,4
    4074:	1885883a 	add	r2,r3,r2
    4078:	10c00017 	ldw	r3,0(r2)
    407c:	e0bff717 	ldw	r2,-36(fp)
    4080:	1885883a 	add	r2,r3,r2
    4084:	e0bffd15 	stw	r2,-12(fp)
    4088:	e0bffb17 	ldw	r2,-20(fp)
    408c:	e0fffe17 	ldw	r3,-8(fp)
    4090:	1885883a 	add	r2,r3,r2
    4094:	e0bffe15 	stw	r2,-8(fp)
    4098:	e0fffa17 	ldw	r3,-24(fp)
    409c:	e0bff517 	ldw	r2,-44(fp)
    40a0:	10800104 	addi	r2,r2,4
    40a4:	1004913a 	slli	r2,r2,4
    40a8:	1885883a 	add	r2,r3,r2
    40ac:	10800017 	ldw	r2,0(r2)
    40b0:	e0fff717 	ldw	r3,-36(fp)
    40b4:	1885883a 	add	r2,r3,r2
    40b8:	e0bff715 	stw	r2,-36(fp)
    40bc:	e0bff617 	ldw	r2,-40(fp)
    40c0:	10800044 	addi	r2,r2,1
    40c4:	e0bff615 	stw	r2,-40(fp)
    40c8:	e0fffa17 	ldw	r3,-24(fp)
    40cc:	e0bff517 	ldw	r2,-44(fp)
    40d0:	1004913a 	slli	r2,r2,4
    40d4:	10800f04 	addi	r2,r2,60
    40d8:	1885883a 	add	r2,r3,r2
    40dc:	10800017 	ldw	r2,0(r2)
    40e0:	e0fff617 	ldw	r3,-40(fp)
    40e4:	18bf9c16 	blt	r3,r2,3f58 <alt_onchip_flash_write+0xf4>
    40e8:	e0bff517 	ldw	r2,-44(fp)
    40ec:	10800044 	addi	r2,r2,1
    40f0:	e0bff515 	stw	r2,-44(fp)
    40f4:	e0bffa17 	ldw	r2,-24(fp)
    40f8:	10800c17 	ldw	r2,48(r2)
    40fc:	e0fff517 	ldw	r3,-44(fp)
    4100:	18bf7516 	blt	r3,r2,3ed8 <alt_onchip_flash_write+0x74>
    4104:	e0bffa17 	ldw	r2,-24(fp)
    4108:	10c00a17 	ldw	r3,40(r2)
    410c:	e0bff917 	ldw	r2,-28(fp)
    4110:	1887883a 	add	r3,r3,r2
    4114:	e0bff817 	ldw	r2,-32(fp)
    4118:	1809883a 	mov	r4,r3
    411c:	100b883a 	mov	r5,r2
    4120:	0004a440 	call	4a44 <alt_dcache_flush>
    4124:	e0bff417 	ldw	r2,-48(fp)
    4128:	e037883a 	mov	sp,fp
    412c:	dfc00117 	ldw	ra,4(sp)
    4130:	df000017 	ldw	fp,0(sp)
    4134:	dec00204 	addi	sp,sp,8
    4138:	f800283a 	ret

0000413c <altera_onchip_flash_init>:
    413c:	defff504 	addi	sp,sp,-44
    4140:	dfc00a15 	stw	ra,40(sp)
    4144:	df000915 	stw	fp,36(sp)
    4148:	dc000815 	stw	r16,32(sp)
    414c:	df000904 	addi	fp,sp,36
    4150:	e13ffe15 	stw	r4,-8(fp)
    4154:	e03ff815 	stw	zero,-32(fp)
    4158:	e03ff915 	stw	zero,-28(fp)
    415c:	e03ffa15 	stw	zero,-24(fp)
    4160:	e03ffb15 	stw	zero,-20(fp)
    4164:	e03ffc15 	stw	zero,-16(fp)
    4168:	e03ff715 	stw	zero,-36(fp)
    416c:	e0bffe17 	ldw	r2,-8(fp)
    4170:	10800d04 	addi	r2,r2,52
    4174:	e0bffd15 	stw	r2,-12(fp)
    4178:	e0bffe17 	ldw	r2,-8(fp)
    417c:	10802f17 	ldw	r2,188(r2)
    4180:	10001926 	beq	r2,zero,41e8 <altera_onchip_flash_init+0xac>
    4184:	e0bffe17 	ldw	r2,-8(fp)
    4188:	10802f17 	ldw	r2,188(r2)
    418c:	10800037 	ldwio	r2,0(r2)
    4190:	1080080c 	andi	r2,r2,32
    4194:	e0bff815 	stw	r2,-32(fp)
    4198:	e0bffe17 	ldw	r2,-8(fp)
    419c:	10802f17 	ldw	r2,188(r2)
    41a0:	10800037 	ldwio	r2,0(r2)
    41a4:	1080100c 	andi	r2,r2,64
    41a8:	e0bff915 	stw	r2,-28(fp)
    41ac:	e0bffe17 	ldw	r2,-8(fp)
    41b0:	10802f17 	ldw	r2,188(r2)
    41b4:	10800037 	ldwio	r2,0(r2)
    41b8:	1080200c 	andi	r2,r2,128
    41bc:	e0bffa15 	stw	r2,-24(fp)
    41c0:	e0bffe17 	ldw	r2,-8(fp)
    41c4:	10802f17 	ldw	r2,188(r2)
    41c8:	10800037 	ldwio	r2,0(r2)
    41cc:	1080400c 	andi	r2,r2,256
    41d0:	e0bffb15 	stw	r2,-20(fp)
    41d4:	e0bffe17 	ldw	r2,-8(fp)
    41d8:	10802f17 	ldw	r2,188(r2)
    41dc:	10800037 	ldwio	r2,0(r2)
    41e0:	1080800c 	andi	r2,r2,512
    41e4:	e0bffc15 	stw	r2,-16(fp)
    41e8:	e0bffe17 	ldw	r2,-8(fp)
    41ec:	10803017 	ldw	r2,192(r2)
    41f0:	10800058 	cmpnei	r2,r2,1
    41f4:	10002f1e 	bne	r2,zero,42b4 <altera_onchip_flash_init+0x178>
    41f8:	e0bff817 	ldw	r2,-32(fp)
    41fc:	10800820 	cmpeqi	r2,r2,32
    4200:	10002c1e 	bne	r2,zero,42b4 <altera_onchip_flash_init+0x178>
    4204:	e0bff717 	ldw	r2,-36(fp)
    4208:	1004913a 	slli	r2,r2,4
    420c:	e0fffd17 	ldw	r3,-12(fp)
    4210:	1885883a 	add	r2,r3,r2
    4214:	e0fffe17 	ldw	r3,-8(fp)
    4218:	18c03117 	ldw	r3,196(r3)
    421c:	10c00015 	stw	r3,0(r2)
    4220:	e0bff717 	ldw	r2,-36(fp)
    4224:	1004913a 	slli	r2,r2,4
    4228:	e0fffd17 	ldw	r3,-12(fp)
    422c:	1885883a 	add	r2,r3,r2
    4230:	e0fffe17 	ldw	r3,-8(fp)
    4234:	19003217 	ldw	r4,200(r3)
    4238:	e0fffe17 	ldw	r3,-8(fp)
    423c:	18c03117 	ldw	r3,196(r3)
    4240:	20c7c83a 	sub	r3,r4,r3
    4244:	18c00044 	addi	r3,r3,1
    4248:	10c00115 	stw	r3,4(r2)
    424c:	e0bff717 	ldw	r2,-36(fp)
    4250:	1004913a 	slli	r2,r2,4
    4254:	e0fffd17 	ldw	r3,-12(fp)
    4258:	18a1883a 	add	r16,r3,r2
    425c:	e0fffe17 	ldw	r3,-8(fp)
    4260:	e0bff717 	ldw	r2,-36(fp)
    4264:	1004913a 	slli	r2,r2,4
    4268:	10800e04 	addi	r2,r2,56
    426c:	1885883a 	add	r2,r3,r2
    4270:	10c00017 	ldw	r3,0(r2)
    4274:	e0bffe17 	ldw	r2,-8(fp)
    4278:	10803f17 	ldw	r2,252(r2)
    427c:	1809883a 	mov	r4,r3
    4280:	100b883a 	mov	r5,r2
    4284:	0001abc0 	call	1abc <__divsi3>
    4288:	80800215 	stw	r2,8(r16)
    428c:	e0bff717 	ldw	r2,-36(fp)
    4290:	1004913a 	slli	r2,r2,4
    4294:	e0fffd17 	ldw	r3,-12(fp)
    4298:	1885883a 	add	r2,r3,r2
    429c:	e0fffe17 	ldw	r3,-8(fp)
    42a0:	18c03f17 	ldw	r3,252(r3)
    42a4:	10c00315 	stw	r3,12(r2)
    42a8:	e0bff717 	ldw	r2,-36(fp)
    42ac:	10800044 	addi	r2,r2,1
    42b0:	e0bff715 	stw	r2,-36(fp)
    42b4:	e0bffe17 	ldw	r2,-8(fp)
    42b8:	10803317 	ldw	r2,204(r2)
    42bc:	10800058 	cmpnei	r2,r2,1
    42c0:	10002f1e 	bne	r2,zero,4380 <altera_onchip_flash_init+0x244>
    42c4:	e0bff917 	ldw	r2,-28(fp)
    42c8:	10801020 	cmpeqi	r2,r2,64
    42cc:	10002c1e 	bne	r2,zero,4380 <altera_onchip_flash_init+0x244>
    42d0:	e0bff717 	ldw	r2,-36(fp)
    42d4:	1004913a 	slli	r2,r2,4
    42d8:	e0fffd17 	ldw	r3,-12(fp)
    42dc:	1885883a 	add	r2,r3,r2
    42e0:	e0fffe17 	ldw	r3,-8(fp)
    42e4:	18c03417 	ldw	r3,208(r3)
    42e8:	10c00015 	stw	r3,0(r2)
    42ec:	e0bff717 	ldw	r2,-36(fp)
    42f0:	1004913a 	slli	r2,r2,4
    42f4:	e0fffd17 	ldw	r3,-12(fp)
    42f8:	1885883a 	add	r2,r3,r2
    42fc:	e0fffe17 	ldw	r3,-8(fp)
    4300:	19003517 	ldw	r4,212(r3)
    4304:	e0fffe17 	ldw	r3,-8(fp)
    4308:	18c03417 	ldw	r3,208(r3)
    430c:	20c7c83a 	sub	r3,r4,r3
    4310:	18c00044 	addi	r3,r3,1
    4314:	10c00115 	stw	r3,4(r2)
    4318:	e0bff717 	ldw	r2,-36(fp)
    431c:	1004913a 	slli	r2,r2,4
    4320:	e0fffd17 	ldw	r3,-12(fp)
    4324:	18a1883a 	add	r16,r3,r2
    4328:	e0fffe17 	ldw	r3,-8(fp)
    432c:	e0bff717 	ldw	r2,-36(fp)
    4330:	1004913a 	slli	r2,r2,4
    4334:	10800e04 	addi	r2,r2,56
    4338:	1885883a 	add	r2,r3,r2
    433c:	10c00017 	ldw	r3,0(r2)
    4340:	e0bffe17 	ldw	r2,-8(fp)
    4344:	10803f17 	ldw	r2,252(r2)
    4348:	1809883a 	mov	r4,r3
    434c:	100b883a 	mov	r5,r2
    4350:	0001abc0 	call	1abc <__divsi3>
    4354:	80800215 	stw	r2,8(r16)
    4358:	e0bff717 	ldw	r2,-36(fp)
    435c:	1004913a 	slli	r2,r2,4
    4360:	e0fffd17 	ldw	r3,-12(fp)
    4364:	1885883a 	add	r2,r3,r2
    4368:	e0fffe17 	ldw	r3,-8(fp)
    436c:	18c03f17 	ldw	r3,252(r3)
    4370:	10c00315 	stw	r3,12(r2)
    4374:	e0bff717 	ldw	r2,-36(fp)
    4378:	10800044 	addi	r2,r2,1
    437c:	e0bff715 	stw	r2,-36(fp)
    4380:	e0bffe17 	ldw	r2,-8(fp)
    4384:	10803617 	ldw	r2,216(r2)
    4388:	10800058 	cmpnei	r2,r2,1
    438c:	10002f1e 	bne	r2,zero,444c <altera_onchip_flash_init+0x310>
    4390:	e0bffa17 	ldw	r2,-24(fp)
    4394:	10802020 	cmpeqi	r2,r2,128
    4398:	10002c1e 	bne	r2,zero,444c <altera_onchip_flash_init+0x310>
    439c:	e0bff717 	ldw	r2,-36(fp)
    43a0:	1004913a 	slli	r2,r2,4
    43a4:	e0fffd17 	ldw	r3,-12(fp)
    43a8:	1885883a 	add	r2,r3,r2
    43ac:	e0fffe17 	ldw	r3,-8(fp)
    43b0:	18c03717 	ldw	r3,220(r3)
    43b4:	10c00015 	stw	r3,0(r2)
    43b8:	e0bff717 	ldw	r2,-36(fp)
    43bc:	1004913a 	slli	r2,r2,4
    43c0:	e0fffd17 	ldw	r3,-12(fp)
    43c4:	1885883a 	add	r2,r3,r2
    43c8:	e0fffe17 	ldw	r3,-8(fp)
    43cc:	19003817 	ldw	r4,224(r3)
    43d0:	e0fffe17 	ldw	r3,-8(fp)
    43d4:	18c03717 	ldw	r3,220(r3)
    43d8:	20c7c83a 	sub	r3,r4,r3
    43dc:	18c00044 	addi	r3,r3,1
    43e0:	10c00115 	stw	r3,4(r2)
    43e4:	e0bff717 	ldw	r2,-36(fp)
    43e8:	1004913a 	slli	r2,r2,4
    43ec:	e0fffd17 	ldw	r3,-12(fp)
    43f0:	18a1883a 	add	r16,r3,r2
    43f4:	e0fffe17 	ldw	r3,-8(fp)
    43f8:	e0bff717 	ldw	r2,-36(fp)
    43fc:	1004913a 	slli	r2,r2,4
    4400:	10800e04 	addi	r2,r2,56
    4404:	1885883a 	add	r2,r3,r2
    4408:	10c00017 	ldw	r3,0(r2)
    440c:	e0bffe17 	ldw	r2,-8(fp)
    4410:	10803f17 	ldw	r2,252(r2)
    4414:	1809883a 	mov	r4,r3
    4418:	100b883a 	mov	r5,r2
    441c:	0001abc0 	call	1abc <__divsi3>
    4420:	80800215 	stw	r2,8(r16)
    4424:	e0bff717 	ldw	r2,-36(fp)
    4428:	1004913a 	slli	r2,r2,4
    442c:	e0fffd17 	ldw	r3,-12(fp)
    4430:	1885883a 	add	r2,r3,r2
    4434:	e0fffe17 	ldw	r3,-8(fp)
    4438:	18c03f17 	ldw	r3,252(r3)
    443c:	10c00315 	stw	r3,12(r2)
    4440:	e0bff717 	ldw	r2,-36(fp)
    4444:	10800044 	addi	r2,r2,1
    4448:	e0bff715 	stw	r2,-36(fp)
    444c:	e0bffe17 	ldw	r2,-8(fp)
    4450:	10803917 	ldw	r2,228(r2)
    4454:	10800058 	cmpnei	r2,r2,1
    4458:	10002f1e 	bne	r2,zero,4518 <altera_onchip_flash_init+0x3dc>
    445c:	e0bffb17 	ldw	r2,-20(fp)
    4460:	10804020 	cmpeqi	r2,r2,256
    4464:	10002c1e 	bne	r2,zero,4518 <altera_onchip_flash_init+0x3dc>
    4468:	e0bff717 	ldw	r2,-36(fp)
    446c:	1004913a 	slli	r2,r2,4
    4470:	e0fffd17 	ldw	r3,-12(fp)
    4474:	1885883a 	add	r2,r3,r2
    4478:	e0fffe17 	ldw	r3,-8(fp)
    447c:	18c03a17 	ldw	r3,232(r3)
    4480:	10c00015 	stw	r3,0(r2)
    4484:	e0bff717 	ldw	r2,-36(fp)
    4488:	1004913a 	slli	r2,r2,4
    448c:	e0fffd17 	ldw	r3,-12(fp)
    4490:	1885883a 	add	r2,r3,r2
    4494:	e0fffe17 	ldw	r3,-8(fp)
    4498:	19003b17 	ldw	r4,236(r3)
    449c:	e0fffe17 	ldw	r3,-8(fp)
    44a0:	18c03a17 	ldw	r3,232(r3)
    44a4:	20c7c83a 	sub	r3,r4,r3
    44a8:	18c00044 	addi	r3,r3,1
    44ac:	10c00115 	stw	r3,4(r2)
    44b0:	e0bff717 	ldw	r2,-36(fp)
    44b4:	1004913a 	slli	r2,r2,4
    44b8:	e0fffd17 	ldw	r3,-12(fp)
    44bc:	18a1883a 	add	r16,r3,r2
    44c0:	e0fffe17 	ldw	r3,-8(fp)
    44c4:	e0bff717 	ldw	r2,-36(fp)
    44c8:	1004913a 	slli	r2,r2,4
    44cc:	10800e04 	addi	r2,r2,56
    44d0:	1885883a 	add	r2,r3,r2
    44d4:	10c00017 	ldw	r3,0(r2)
    44d8:	e0bffe17 	ldw	r2,-8(fp)
    44dc:	10803f17 	ldw	r2,252(r2)
    44e0:	1809883a 	mov	r4,r3
    44e4:	100b883a 	mov	r5,r2
    44e8:	0001abc0 	call	1abc <__divsi3>
    44ec:	80800215 	stw	r2,8(r16)
    44f0:	e0bff717 	ldw	r2,-36(fp)
    44f4:	1004913a 	slli	r2,r2,4
    44f8:	e0fffd17 	ldw	r3,-12(fp)
    44fc:	1885883a 	add	r2,r3,r2
    4500:	e0fffe17 	ldw	r3,-8(fp)
    4504:	18c03f17 	ldw	r3,252(r3)
    4508:	10c00315 	stw	r3,12(r2)
    450c:	e0bff717 	ldw	r2,-36(fp)
    4510:	10800044 	addi	r2,r2,1
    4514:	e0bff715 	stw	r2,-36(fp)
    4518:	e0bffe17 	ldw	r2,-8(fp)
    451c:	10803c17 	ldw	r2,240(r2)
    4520:	10800058 	cmpnei	r2,r2,1
    4524:	10002f1e 	bne	r2,zero,45e4 <altera_onchip_flash_init+0x4a8>
    4528:	e0bffc17 	ldw	r2,-16(fp)
    452c:	10808020 	cmpeqi	r2,r2,512
    4530:	10002c1e 	bne	r2,zero,45e4 <altera_onchip_flash_init+0x4a8>
    4534:	e0bff717 	ldw	r2,-36(fp)
    4538:	1004913a 	slli	r2,r2,4
    453c:	e0fffd17 	ldw	r3,-12(fp)
    4540:	1885883a 	add	r2,r3,r2
    4544:	e0fffe17 	ldw	r3,-8(fp)
    4548:	18c03d17 	ldw	r3,244(r3)
    454c:	10c00015 	stw	r3,0(r2)
    4550:	e0bff717 	ldw	r2,-36(fp)
    4554:	1004913a 	slli	r2,r2,4
    4558:	e0fffd17 	ldw	r3,-12(fp)
    455c:	1885883a 	add	r2,r3,r2
    4560:	e0fffe17 	ldw	r3,-8(fp)
    4564:	19003e17 	ldw	r4,248(r3)
    4568:	e0fffe17 	ldw	r3,-8(fp)
    456c:	18c03d17 	ldw	r3,244(r3)
    4570:	20c7c83a 	sub	r3,r4,r3
    4574:	18c00044 	addi	r3,r3,1
    4578:	10c00115 	stw	r3,4(r2)
    457c:	e0bff717 	ldw	r2,-36(fp)
    4580:	1004913a 	slli	r2,r2,4
    4584:	e0fffd17 	ldw	r3,-12(fp)
    4588:	18a1883a 	add	r16,r3,r2
    458c:	e0fffe17 	ldw	r3,-8(fp)
    4590:	e0bff717 	ldw	r2,-36(fp)
    4594:	1004913a 	slli	r2,r2,4
    4598:	10800e04 	addi	r2,r2,56
    459c:	1885883a 	add	r2,r3,r2
    45a0:	10c00017 	ldw	r3,0(r2)
    45a4:	e0bffe17 	ldw	r2,-8(fp)
    45a8:	10803f17 	ldw	r2,252(r2)
    45ac:	1809883a 	mov	r4,r3
    45b0:	100b883a 	mov	r5,r2
    45b4:	0001abc0 	call	1abc <__divsi3>
    45b8:	80800215 	stw	r2,8(r16)
    45bc:	e0bff717 	ldw	r2,-36(fp)
    45c0:	1004913a 	slli	r2,r2,4
    45c4:	e0fffd17 	ldw	r3,-12(fp)
    45c8:	1885883a 	add	r2,r3,r2
    45cc:	e0fffe17 	ldw	r3,-8(fp)
    45d0:	18c03f17 	ldw	r3,252(r3)
    45d4:	10c00315 	stw	r3,12(r2)
    45d8:	e0bff717 	ldw	r2,-36(fp)
    45dc:	10800044 	addi	r2,r2,1
    45e0:	e0bff715 	stw	r2,-36(fp)
    45e4:	e0bffe17 	ldw	r2,-8(fp)
    45e8:	e0fff717 	ldw	r3,-36(fp)
    45ec:	10c00c15 	stw	r3,48(r2)
    45f0:	e0bffe17 	ldw	r2,-8(fp)
    45f4:	1009883a 	mov	r4,r2
    45f8:	00038980 	call	3898 <alt_flash_device_register>
    45fc:	e6ffff04 	addi	sp,fp,-4
    4600:	dfc00217 	ldw	ra,8(sp)
    4604:	df000117 	ldw	fp,4(sp)
    4608:	dc000017 	ldw	r16,0(sp)
    460c:	dec00304 	addi	sp,sp,12
    4610:	f800283a 	ret

00004614 <alt_onchip_flash_poll_for_status_to_go_idle>:
    4614:	defffa04 	addi	sp,sp,-24
    4618:	dfc00515 	stw	ra,20(sp)
    461c:	df000415 	stw	fp,16(sp)
    4620:	df000404 	addi	fp,sp,16
    4624:	e13fff15 	stw	r4,-4(fp)
    4628:	e03ffc15 	stw	zero,-16(fp)
    462c:	008002f4 	movhi	r2,11
    4630:	10ab9804 	addi	r2,r2,-20896
    4634:	e0bffe15 	stw	r2,-8(fp)
    4638:	008002f4 	movhi	r2,11
    463c:	10ab9804 	addi	r2,r2,-20896
    4640:	e0bffd15 	stw	r2,-12(fp)
    4644:	00000c06 	br	4678 <alt_onchip_flash_poll_for_status_to_go_idle+0x64>
    4648:	01000044 	movi	r4,1
    464c:	00047c40 	call	47c4 <alt_busy_sleep>
    4650:	e0bffe17 	ldw	r2,-8(fp)
    4654:	10000826 	beq	r2,zero,4678 <alt_onchip_flash_poll_for_status_to_go_idle+0x64>
    4658:	e0bffd17 	ldw	r2,-12(fp)
    465c:	10bfffc4 	addi	r2,r2,-1
    4660:	e0bffd15 	stw	r2,-12(fp)
    4664:	e0bffd17 	ldw	r2,-12(fp)
    4668:	1000031e 	bne	r2,zero,4678 <alt_onchip_flash_poll_for_status_to_go_idle+0x64>
    466c:	00bfe304 	movi	r2,-116
    4670:	e0bffc15 	stw	r2,-16(fp)
    4674:	00000506 	br	468c <alt_onchip_flash_poll_for_status_to_go_idle+0x78>
    4678:	e0bfff17 	ldw	r2,-4(fp)
    467c:	10802f17 	ldw	r2,188(r2)
    4680:	10800037 	ldwio	r2,0(r2)
    4684:	108000cc 	andi	r2,r2,3
    4688:	103fef1e 	bne	r2,zero,4648 <alt_onchip_flash_poll_for_status_to_go_idle+0x34>
    468c:	e0bffc17 	ldw	r2,-16(fp)
    4690:	e037883a 	mov	sp,fp
    4694:	dfc00117 	ldw	ra,4(sp)
    4698:	df000017 	ldw	fp,0(sp)
    469c:	dec00204 	addi	sp,sp,8
    46a0:	f800283a 	ret

000046a4 <alt_onchip_flash_poll_for_status_erase_passed>:
    46a4:	defffa04 	addi	sp,sp,-24
    46a8:	dfc00515 	stw	ra,20(sp)
    46ac:	df000415 	stw	fp,16(sp)
    46b0:	df000404 	addi	fp,sp,16
    46b4:	e13fff15 	stw	r4,-4(fp)
    46b8:	e03ffc15 	stw	zero,-16(fp)
    46bc:	008002f4 	movhi	r2,11
    46c0:	10ab9804 	addi	r2,r2,-20896
    46c4:	e0bffe15 	stw	r2,-8(fp)
    46c8:	008002f4 	movhi	r2,11
    46cc:	10ab9804 	addi	r2,r2,-20896
    46d0:	e0bffd15 	stw	r2,-12(fp)
    46d4:	00000c06 	br	4708 <alt_onchip_flash_poll_for_status_erase_passed+0x64>
    46d8:	01000044 	movi	r4,1
    46dc:	00047c40 	call	47c4 <alt_busy_sleep>
    46e0:	e0bffe17 	ldw	r2,-8(fp)
    46e4:	10000826 	beq	r2,zero,4708 <alt_onchip_flash_poll_for_status_erase_passed+0x64>
    46e8:	e0bffd17 	ldw	r2,-12(fp)
    46ec:	10bfffc4 	addi	r2,r2,-1
    46f0:	e0bffd15 	stw	r2,-12(fp)
    46f4:	e0bffd17 	ldw	r2,-12(fp)
    46f8:	1000031e 	bne	r2,zero,4708 <alt_onchip_flash_poll_for_status_erase_passed+0x64>
    46fc:	00bfe304 	movi	r2,-116
    4700:	e0bffc15 	stw	r2,-16(fp)
    4704:	00000506 	br	471c <alt_onchip_flash_poll_for_status_erase_passed+0x78>
    4708:	e0bfff17 	ldw	r2,-4(fp)
    470c:	10802f17 	ldw	r2,188(r2)
    4710:	10800037 	ldwio	r2,0(r2)
    4714:	1080040c 	andi	r2,r2,16
    4718:	103fef26 	beq	r2,zero,46d8 <alt_onchip_flash_poll_for_status_erase_passed+0x34>
    471c:	e0bffc17 	ldw	r2,-16(fp)
    4720:	e037883a 	mov	sp,fp
    4724:	dfc00117 	ldw	ra,4(sp)
    4728:	df000017 	ldw	fp,0(sp)
    472c:	dec00204 	addi	sp,sp,8
    4730:	f800283a 	ret

00004734 <alt_onchip_flash_poll_for_status_write_passed>:
    4734:	defffa04 	addi	sp,sp,-24
    4738:	dfc00515 	stw	ra,20(sp)
    473c:	df000415 	stw	fp,16(sp)
    4740:	df000404 	addi	fp,sp,16
    4744:	e13fff15 	stw	r4,-4(fp)
    4748:	e03ffc15 	stw	zero,-16(fp)
    474c:	008002f4 	movhi	r2,11
    4750:	10ab9804 	addi	r2,r2,-20896
    4754:	e0bffe15 	stw	r2,-8(fp)
    4758:	008002f4 	movhi	r2,11
    475c:	10ab9804 	addi	r2,r2,-20896
    4760:	e0bffd15 	stw	r2,-12(fp)
    4764:	00000c06 	br	4798 <alt_onchip_flash_poll_for_status_write_passed+0x64>
    4768:	01000044 	movi	r4,1
    476c:	00047c40 	call	47c4 <alt_busy_sleep>
    4770:	e0bffe17 	ldw	r2,-8(fp)
    4774:	10000826 	beq	r2,zero,4798 <alt_onchip_flash_poll_for_status_write_passed+0x64>
    4778:	e0bffd17 	ldw	r2,-12(fp)
    477c:	10bfffc4 	addi	r2,r2,-1
    4780:	e0bffd15 	stw	r2,-12(fp)
    4784:	e0bffd17 	ldw	r2,-12(fp)
    4788:	1000031e 	bne	r2,zero,4798 <alt_onchip_flash_poll_for_status_write_passed+0x64>
    478c:	00bfe304 	movi	r2,-116
    4790:	e0bffc15 	stw	r2,-16(fp)
    4794:	00000506 	br	47ac <alt_onchip_flash_poll_for_status_write_passed+0x78>
    4798:	e0bfff17 	ldw	r2,-4(fp)
    479c:	10802f17 	ldw	r2,188(r2)
    47a0:	10800037 	ldwio	r2,0(r2)
    47a4:	1080020c 	andi	r2,r2,8
    47a8:	103fef26 	beq	r2,zero,4768 <alt_onchip_flash_poll_for_status_write_passed+0x34>
    47ac:	e0bffc17 	ldw	r2,-16(fp)
    47b0:	e037883a 	mov	sp,fp
    47b4:	dfc00117 	ldw	ra,4(sp)
    47b8:	df000017 	ldw	fp,0(sp)
    47bc:	dec00204 	addi	sp,sp,8
    47c0:	f800283a 	ret

000047c4 <alt_busy_sleep>:
    47c4:	defffa04 	addi	sp,sp,-24
    47c8:	dfc00515 	stw	ra,20(sp)
    47cc:	df000415 	stw	fp,16(sp)
    47d0:	df000404 	addi	fp,sp,16
    47d4:	e13fff15 	stw	r4,-4(fp)
    47d8:	00800244 	movi	r2,9
    47dc:	e0bffd15 	stw	r2,-12(fp)
    47e0:	e13ffd17 	ldw	r4,-12(fp)
    47e4:	014003f4 	movhi	r5,15
    47e8:	29509004 	addi	r5,r5,16960
    47ec:	0001b7c0 	call	1b7c <__mulsi3>
    47f0:	0100bef4 	movhi	r4,763
    47f4:	213c2004 	addi	r4,r4,-3968
    47f8:	100b883a 	mov	r5,r2
    47fc:	0001b6c0 	call	1b6c <__udivsi3>
    4800:	01200034 	movhi	r4,32768
    4804:	213fffc4 	addi	r4,r4,-1
    4808:	100b883a 	mov	r5,r2
    480c:	0001b6c0 	call	1b6c <__udivsi3>
    4810:	e13fff17 	ldw	r4,-4(fp)
    4814:	100b883a 	mov	r5,r2
    4818:	0001b6c0 	call	1b6c <__udivsi3>
    481c:	e0bffe15 	stw	r2,-8(fp)
    4820:	e0bffe17 	ldw	r2,-8(fp)
    4824:	10002a26 	beq	r2,zero,48d0 <alt_busy_sleep+0x10c>
    4828:	e03ffc15 	stw	zero,-16(fp)
    482c:	00001706 	br	488c <alt_busy_sleep+0xc8>
    4830:	00a00034 	movhi	r2,32768
    4834:	10bfffc4 	addi	r2,r2,-1
    4838:	10bfffc4 	addi	r2,r2,-1
    483c:	103ffe1e 	bne	r2,zero,4838 <alt_busy_sleep+0x74>
    4840:	e13ffd17 	ldw	r4,-12(fp)
    4844:	014003f4 	movhi	r5,15
    4848:	29509004 	addi	r5,r5,16960
    484c:	0001b7c0 	call	1b7c <__mulsi3>
    4850:	0100bef4 	movhi	r4,763
    4854:	213c2004 	addi	r4,r4,-3968
    4858:	100b883a 	mov	r5,r2
    485c:	0001b6c0 	call	1b6c <__udivsi3>
    4860:	01200034 	movhi	r4,32768
    4864:	213fffc4 	addi	r4,r4,-1
    4868:	100b883a 	mov	r5,r2
    486c:	0001b6c0 	call	1b6c <__udivsi3>
    4870:	1007883a 	mov	r3,r2
    4874:	e0bfff17 	ldw	r2,-4(fp)
    4878:	10c5c83a 	sub	r2,r2,r3
    487c:	e0bfff15 	stw	r2,-4(fp)
    4880:	e0bffc17 	ldw	r2,-16(fp)
    4884:	10800044 	addi	r2,r2,1
    4888:	e0bffc15 	stw	r2,-16(fp)
    488c:	e0fffc17 	ldw	r3,-16(fp)
    4890:	e0bffe17 	ldw	r2,-8(fp)
    4894:	18bfe616 	blt	r3,r2,4830 <alt_busy_sleep+0x6c>
    4898:	e13ffd17 	ldw	r4,-12(fp)
    489c:	014003f4 	movhi	r5,15
    48a0:	29509004 	addi	r5,r5,16960
    48a4:	0001b7c0 	call	1b7c <__mulsi3>
    48a8:	0100bef4 	movhi	r4,763
    48ac:	213c2004 	addi	r4,r4,-3968
    48b0:	100b883a 	mov	r5,r2
    48b4:	0001b6c0 	call	1b6c <__udivsi3>
    48b8:	1009883a 	mov	r4,r2
    48bc:	e17fff17 	ldw	r5,-4(fp)
    48c0:	0001b7c0 	call	1b7c <__mulsi3>
    48c4:	10bfffc4 	addi	r2,r2,-1
    48c8:	103ffe1e 	bne	r2,zero,48c4 <alt_busy_sleep+0x100>
    48cc:	00000d06 	br	4904 <alt_busy_sleep+0x140>
    48d0:	e13ffd17 	ldw	r4,-12(fp)
    48d4:	014003f4 	movhi	r5,15
    48d8:	29509004 	addi	r5,r5,16960
    48dc:	0001b7c0 	call	1b7c <__mulsi3>
    48e0:	0100bef4 	movhi	r4,763
    48e4:	213c2004 	addi	r4,r4,-3968
    48e8:	100b883a 	mov	r5,r2
    48ec:	0001b6c0 	call	1b6c <__udivsi3>
    48f0:	1009883a 	mov	r4,r2
    48f4:	e17fff17 	ldw	r5,-4(fp)
    48f8:	0001b7c0 	call	1b7c <__mulsi3>
    48fc:	10bfffc4 	addi	r2,r2,-1
    4900:	00bffe16 	blt	zero,r2,48fc <alt_busy_sleep+0x138>
    4904:	0005883a 	mov	r2,zero
    4908:	e037883a 	mov	sp,fp
    490c:	dfc00117 	ldw	ra,4(sp)
    4910:	df000017 	ldw	fp,0(sp)
    4914:	dec00204 	addi	sp,sp,8
    4918:	f800283a 	ret

0000491c <alt_get_errno>:
    491c:	defffe04 	addi	sp,sp,-8
    4920:	dfc00115 	stw	ra,4(sp)
    4924:	df000015 	stw	fp,0(sp)
    4928:	d839883a 	mov	fp,sp
    492c:	00800034 	movhi	r2,0
    4930:	10986104 	addi	r2,r2,24964
    4934:	10800017 	ldw	r2,0(r2)
    4938:	10000526 	beq	r2,zero,4950 <alt_get_errno+0x34>
    493c:	00800034 	movhi	r2,0
    4940:	10986104 	addi	r2,r2,24964
    4944:	10800017 	ldw	r2,0(r2)
    4948:	103ee83a 	callr	r2
    494c:	00000206 	br	4958 <alt_get_errno+0x3c>
    4950:	00800034 	movhi	r2,0
    4954:	10986704 	addi	r2,r2,24988
    4958:	e037883a 	mov	sp,fp
    495c:	dfc00117 	ldw	ra,4(sp)
    4960:	df000017 	ldw	fp,0(sp)
    4964:	dec00204 	addi	sp,sp,8
    4968:	f800283a 	ret

0000496c <close>:
    496c:	defffb04 	addi	sp,sp,-20
    4970:	dfc00415 	stw	ra,16(sp)
    4974:	df000315 	stw	fp,12(sp)
    4978:	df000304 	addi	fp,sp,12
    497c:	e13fff15 	stw	r4,-4(fp)
    4980:	e0bfff17 	ldw	r2,-4(fp)
    4984:	10000816 	blt	r2,zero,49a8 <close+0x3c>
    4988:	e13fff17 	ldw	r4,-4(fp)
    498c:	01400304 	movi	r5,12
    4990:	0001b7c0 	call	1b7c <__mulsi3>
    4994:	1007883a 	mov	r3,r2
    4998:	00800034 	movhi	r2,0
    499c:	1097ef04 	addi	r2,r2,24508
    49a0:	1885883a 	add	r2,r3,r2
    49a4:	00000106 	br	49ac <close+0x40>
    49a8:	0005883a 	mov	r2,zero
    49ac:	e0bffd15 	stw	r2,-12(fp)
    49b0:	e0bffd17 	ldw	r2,-12(fp)
    49b4:	10001926 	beq	r2,zero,4a1c <close+0xb0>
    49b8:	e0bffd17 	ldw	r2,-12(fp)
    49bc:	10800017 	ldw	r2,0(r2)
    49c0:	10800417 	ldw	r2,16(r2)
    49c4:	10000626 	beq	r2,zero,49e0 <close+0x74>
    49c8:	e0bffd17 	ldw	r2,-12(fp)
    49cc:	10800017 	ldw	r2,0(r2)
    49d0:	10800417 	ldw	r2,16(r2)
    49d4:	e13ffd17 	ldw	r4,-12(fp)
    49d8:	103ee83a 	callr	r2
    49dc:	00000106 	br	49e4 <close+0x78>
    49e0:	0005883a 	mov	r2,zero
    49e4:	e0bffe15 	stw	r2,-8(fp)
    49e8:	e13fff17 	ldw	r4,-4(fp)
    49ec:	00051900 	call	5190 <alt_release_fd>
    49f0:	e0bffe17 	ldw	r2,-8(fp)
    49f4:	1000070e 	bge	r2,zero,4a14 <close+0xa8>
    49f8:	000491c0 	call	491c <alt_get_errno>
    49fc:	1007883a 	mov	r3,r2
    4a00:	e0bffe17 	ldw	r2,-8(fp)
    4a04:	0085c83a 	sub	r2,zero,r2
    4a08:	18800015 	stw	r2,0(r3)
    4a0c:	00bfffc4 	movi	r2,-1
    4a10:	00000706 	br	4a30 <close+0xc4>
    4a14:	0005883a 	mov	r2,zero
    4a18:	00000506 	br	4a30 <close+0xc4>
    4a1c:	000491c0 	call	491c <alt_get_errno>
    4a20:	1007883a 	mov	r3,r2
    4a24:	00801444 	movi	r2,81
    4a28:	18800015 	stw	r2,0(r3)
    4a2c:	00bfffc4 	movi	r2,-1
    4a30:	e037883a 	mov	sp,fp
    4a34:	dfc00117 	ldw	ra,4(sp)
    4a38:	df000017 	ldw	fp,0(sp)
    4a3c:	dec00204 	addi	sp,sp,8
    4a40:	f800283a 	ret

00004a44 <alt_dcache_flush>:
    4a44:	defffd04 	addi	sp,sp,-12
    4a48:	df000215 	stw	fp,8(sp)
    4a4c:	df000204 	addi	fp,sp,8
    4a50:	e13ffe15 	stw	r4,-8(fp)
    4a54:	e17fff15 	stw	r5,-4(fp)
    4a58:	e037883a 	mov	sp,fp
    4a5c:	df000017 	ldw	fp,0(sp)
    4a60:	dec00104 	addi	sp,sp,4
    4a64:	f800283a 	ret

00004a68 <alt_dev_null_write>:
    4a68:	defffc04 	addi	sp,sp,-16
    4a6c:	df000315 	stw	fp,12(sp)
    4a70:	df000304 	addi	fp,sp,12
    4a74:	e13ffd15 	stw	r4,-12(fp)
    4a78:	e17ffe15 	stw	r5,-8(fp)
    4a7c:	e1bfff15 	stw	r6,-4(fp)
    4a80:	e0bfff17 	ldw	r2,-4(fp)
    4a84:	e037883a 	mov	sp,fp
    4a88:	df000017 	ldw	fp,0(sp)
    4a8c:	dec00104 	addi	sp,sp,4
    4a90:	f800283a 	ret

00004a94 <alt_get_errno>:
    4a94:	defffe04 	addi	sp,sp,-8
    4a98:	dfc00115 	stw	ra,4(sp)
    4a9c:	df000015 	stw	fp,0(sp)
    4aa0:	d839883a 	mov	fp,sp
    4aa4:	00800034 	movhi	r2,0
    4aa8:	10986104 	addi	r2,r2,24964
    4aac:	10800017 	ldw	r2,0(r2)
    4ab0:	10000526 	beq	r2,zero,4ac8 <alt_get_errno+0x34>
    4ab4:	00800034 	movhi	r2,0
    4ab8:	10986104 	addi	r2,r2,24964
    4abc:	10800017 	ldw	r2,0(r2)
    4ac0:	103ee83a 	callr	r2
    4ac4:	00000206 	br	4ad0 <alt_get_errno+0x3c>
    4ac8:	00800034 	movhi	r2,0
    4acc:	10986704 	addi	r2,r2,24988
    4ad0:	e037883a 	mov	sp,fp
    4ad4:	dfc00117 	ldw	ra,4(sp)
    4ad8:	df000017 	ldw	fp,0(sp)
    4adc:	dec00204 	addi	sp,sp,8
    4ae0:	f800283a 	ret

00004ae4 <alt_dev_llist_insert>:
    4ae4:	defffa04 	addi	sp,sp,-24
    4ae8:	dfc00515 	stw	ra,20(sp)
    4aec:	df000415 	stw	fp,16(sp)
    4af0:	df000404 	addi	fp,sp,16
    4af4:	e13ffe15 	stw	r4,-8(fp)
    4af8:	e17fff15 	stw	r5,-4(fp)
    4afc:	e0bffe17 	ldw	r2,-8(fp)
    4b00:	10000326 	beq	r2,zero,4b10 <alt_dev_llist_insert+0x2c>
    4b04:	e0bffe17 	ldw	r2,-8(fp)
    4b08:	10800217 	ldw	r2,8(r2)
    4b0c:	1000061e 	bne	r2,zero,4b28 <alt_dev_llist_insert+0x44>
    4b10:	0004a940 	call	4a94 <alt_get_errno>
    4b14:	1007883a 	mov	r3,r2
    4b18:	00800584 	movi	r2,22
    4b1c:	18800015 	stw	r2,0(r3)
    4b20:	00bffa84 	movi	r2,-22
    4b24:	00001306 	br	4b74 <alt_dev_llist_insert+0x90>
    4b28:	e0bffe17 	ldw	r2,-8(fp)
    4b2c:	e0ffff17 	ldw	r3,-4(fp)
    4b30:	e0fffc15 	stw	r3,-16(fp)
    4b34:	e0bffd15 	stw	r2,-12(fp)
    4b38:	e0bffd17 	ldw	r2,-12(fp)
    4b3c:	e0fffc17 	ldw	r3,-16(fp)
    4b40:	10c00115 	stw	r3,4(r2)
    4b44:	e0bffc17 	ldw	r2,-16(fp)
    4b48:	10c00017 	ldw	r3,0(r2)
    4b4c:	e0bffd17 	ldw	r2,-12(fp)
    4b50:	10c00015 	stw	r3,0(r2)
    4b54:	e0bffc17 	ldw	r2,-16(fp)
    4b58:	10800017 	ldw	r2,0(r2)
    4b5c:	e0fffd17 	ldw	r3,-12(fp)
    4b60:	10c00115 	stw	r3,4(r2)
    4b64:	e0bffc17 	ldw	r2,-16(fp)
    4b68:	e0fffd17 	ldw	r3,-12(fp)
    4b6c:	10c00015 	stw	r3,0(r2)
    4b70:	0005883a 	mov	r2,zero
    4b74:	e037883a 	mov	sp,fp
    4b78:	dfc00117 	ldw	ra,4(sp)
    4b7c:	df000017 	ldw	fp,0(sp)
    4b80:	dec00204 	addi	sp,sp,8
    4b84:	f800283a 	ret

00004b88 <_do_ctors>:
    4b88:	defffd04 	addi	sp,sp,-12
    4b8c:	dfc00215 	stw	ra,8(sp)
    4b90:	df000115 	stw	fp,4(sp)
    4b94:	df000104 	addi	fp,sp,4
    4b98:	00800034 	movhi	r2,0
    4b9c:	10961404 	addi	r2,r2,22608
    4ba0:	e0bfff15 	stw	r2,-4(fp)
    4ba4:	00000606 	br	4bc0 <_do_ctors+0x38>
    4ba8:	e0bfff17 	ldw	r2,-4(fp)
    4bac:	10800017 	ldw	r2,0(r2)
    4bb0:	103ee83a 	callr	r2
    4bb4:	e0bfff17 	ldw	r2,-4(fp)
    4bb8:	10bfff04 	addi	r2,r2,-4
    4bbc:	e0bfff15 	stw	r2,-4(fp)
    4bc0:	e0ffff17 	ldw	r3,-4(fp)
    4bc4:	00800034 	movhi	r2,0
    4bc8:	10961504 	addi	r2,r2,22612
    4bcc:	18bff62e 	bgeu	r3,r2,4ba8 <_do_ctors+0x20>
    4bd0:	e037883a 	mov	sp,fp
    4bd4:	dfc00117 	ldw	ra,4(sp)
    4bd8:	df000017 	ldw	fp,0(sp)
    4bdc:	dec00204 	addi	sp,sp,8
    4be0:	f800283a 	ret

00004be4 <_do_dtors>:
    4be4:	defffd04 	addi	sp,sp,-12
    4be8:	dfc00215 	stw	ra,8(sp)
    4bec:	df000115 	stw	fp,4(sp)
    4bf0:	df000104 	addi	fp,sp,4
    4bf4:	00800034 	movhi	r2,0
    4bf8:	10961404 	addi	r2,r2,22608
    4bfc:	e0bfff15 	stw	r2,-4(fp)
    4c00:	00000606 	br	4c1c <_do_dtors+0x38>
    4c04:	e0bfff17 	ldw	r2,-4(fp)
    4c08:	10800017 	ldw	r2,0(r2)
    4c0c:	103ee83a 	callr	r2
    4c10:	e0bfff17 	ldw	r2,-4(fp)
    4c14:	10bfff04 	addi	r2,r2,-4
    4c18:	e0bfff15 	stw	r2,-4(fp)
    4c1c:	e0ffff17 	ldw	r3,-4(fp)
    4c20:	00800034 	movhi	r2,0
    4c24:	10961504 	addi	r2,r2,22612
    4c28:	18bff62e 	bgeu	r3,r2,4c04 <_do_dtors+0x20>
    4c2c:	e037883a 	mov	sp,fp
    4c30:	dfc00117 	ldw	ra,4(sp)
    4c34:	df000017 	ldw	fp,0(sp)
    4c38:	dec00204 	addi	sp,sp,8
    4c3c:	f800283a 	ret

00004c40 <alt_flash_open_dev>:
    4c40:	defffc04 	addi	sp,sp,-16
    4c44:	dfc00315 	stw	ra,12(sp)
    4c48:	df000215 	stw	fp,8(sp)
    4c4c:	df000204 	addi	fp,sp,8
    4c50:	e13fff15 	stw	r4,-4(fp)
    4c54:	e13fff17 	ldw	r4,-4(fp)
    4c58:	d1601304 	addi	r5,gp,-32692
    4c5c:	00052300 	call	5230 <alt_find_dev>
    4c60:	e0bffe15 	stw	r2,-8(fp)
    4c64:	e0bffe17 	ldw	r2,-8(fp)
    4c68:	10000926 	beq	r2,zero,4c90 <alt_flash_open_dev+0x50>
    4c6c:	e0bffe17 	ldw	r2,-8(fp)
    4c70:	10800317 	ldw	r2,12(r2)
    4c74:	10000626 	beq	r2,zero,4c90 <alt_flash_open_dev+0x50>
    4c78:	e0bffe17 	ldw	r2,-8(fp)
    4c7c:	10800317 	ldw	r2,12(r2)
    4c80:	e13ffe17 	ldw	r4,-8(fp)
    4c84:	e17fff17 	ldw	r5,-4(fp)
    4c88:	103ee83a 	callr	r2
    4c8c:	00000106 	br	4c94 <alt_flash_open_dev+0x54>
    4c90:	e0bffe17 	ldw	r2,-8(fp)
    4c94:	e037883a 	mov	sp,fp
    4c98:	dfc00117 	ldw	ra,4(sp)
    4c9c:	df000017 	ldw	fp,0(sp)
    4ca0:	dec00204 	addi	sp,sp,8
    4ca4:	f800283a 	ret

00004ca8 <alt_flash_close_dev>:
    4ca8:	defffd04 	addi	sp,sp,-12
    4cac:	dfc00215 	stw	ra,8(sp)
    4cb0:	df000115 	stw	fp,4(sp)
    4cb4:	df000104 	addi	fp,sp,4
    4cb8:	e13fff15 	stw	r4,-4(fp)
    4cbc:	e0bfff17 	ldw	r2,-4(fp)
    4cc0:	10000726 	beq	r2,zero,4ce0 <alt_flash_close_dev+0x38>
    4cc4:	e0bfff17 	ldw	r2,-4(fp)
    4cc8:	10800417 	ldw	r2,16(r2)
    4ccc:	10000426 	beq	r2,zero,4ce0 <alt_flash_close_dev+0x38>
    4cd0:	e0bfff17 	ldw	r2,-4(fp)
    4cd4:	10800417 	ldw	r2,16(r2)
    4cd8:	e13fff17 	ldw	r4,-4(fp)
    4cdc:	103ee83a 	callr	r2
    4ce0:	0001883a 	nop
    4ce4:	e037883a 	mov	sp,fp
    4ce8:	dfc00117 	ldw	ra,4(sp)
    4cec:	df000017 	ldw	fp,0(sp)
    4cf0:	dec00204 	addi	sp,sp,8
    4cf4:	f800283a 	ret

00004cf8 <alt_exception_cause_generated_bad_addr>:
    4cf8:	defffe04 	addi	sp,sp,-8
    4cfc:	df000115 	stw	fp,4(sp)
    4d00:	df000104 	addi	fp,sp,4
    4d04:	e13fff15 	stw	r4,-4(fp)
    4d08:	e0bfff17 	ldw	r2,-4(fp)
    4d0c:	10bffe84 	addi	r2,r2,-6
    4d10:	10c00428 	cmpgeui	r3,r2,16
    4d14:	18001a1e 	bne	r3,zero,4d80 <alt_exception_cause_generated_bad_addr+0x88>
    4d18:	100690ba 	slli	r3,r2,2
    4d1c:	00800034 	movhi	r2,0
    4d20:	10934c04 	addi	r2,r2,19760
    4d24:	1885883a 	add	r2,r3,r2
    4d28:	10800017 	ldw	r2,0(r2)
    4d2c:	1000683a 	jmp	r2
    4d30:	00004d70 	cmpltui	zero,zero,309
    4d34:	00004d70 	cmpltui	zero,zero,309
    4d38:	00004d80 	call	4d8 <I2C_write+0xa8>
    4d3c:	00004d80 	call	4d8 <I2C_write+0xa8>
    4d40:	00004d80 	call	4d8 <I2C_write+0xa8>
    4d44:	00004d70 	cmpltui	zero,zero,309
    4d48:	00004d78 	rdprs	zero,zero,309
    4d4c:	00004d80 	call	4d8 <I2C_write+0xa8>
    4d50:	00004d70 	cmpltui	zero,zero,309
    4d54:	00004d70 	cmpltui	zero,zero,309
    4d58:	00004d80 	call	4d8 <I2C_write+0xa8>
    4d5c:	00004d70 	cmpltui	zero,zero,309
    4d60:	00004d78 	rdprs	zero,zero,309
    4d64:	00004d80 	call	4d8 <I2C_write+0xa8>
    4d68:	00004d80 	call	4d8 <I2C_write+0xa8>
    4d6c:	00004d70 	cmpltui	zero,zero,309
    4d70:	00800044 	movi	r2,1
    4d74:	00000306 	br	4d84 <alt_exception_cause_generated_bad_addr+0x8c>
    4d78:	0005883a 	mov	r2,zero
    4d7c:	00000106 	br	4d84 <alt_exception_cause_generated_bad_addr+0x8c>
    4d80:	0005883a 	mov	r2,zero
    4d84:	e037883a 	mov	sp,fp
    4d88:	df000017 	ldw	fp,0(sp)
    4d8c:	dec00104 	addi	sp,sp,4
    4d90:	f800283a 	ret

00004d94 <alt_open_fd>:
    4d94:	defff804 	addi	sp,sp,-32
    4d98:	dfc00715 	stw	ra,28(sp)
    4d9c:	df000615 	stw	fp,24(sp)
    4da0:	dc000515 	stw	r16,20(sp)
    4da4:	df000604 	addi	fp,sp,24
    4da8:	e13ffb15 	stw	r4,-20(fp)
    4dac:	e17ffc15 	stw	r5,-16(fp)
    4db0:	e1bffd15 	stw	r6,-12(fp)
    4db4:	e1fffe15 	stw	r7,-8(fp)
    4db8:	e13ffc17 	ldw	r4,-16(fp)
    4dbc:	e17ffd17 	ldw	r5,-12(fp)
    4dc0:	e1bffe17 	ldw	r6,-8(fp)
    4dc4:	00050300 	call	5030 <open>
    4dc8:	e0bffa15 	stw	r2,-24(fp)
    4dcc:	e0bffa17 	ldw	r2,-24(fp)
    4dd0:	10002216 	blt	r2,zero,4e5c <alt_open_fd+0xc8>
    4dd4:	04000034 	movhi	r16,0
    4dd8:	8417ef04 	addi	r16,r16,24508
    4ddc:	e0bffa17 	ldw	r2,-24(fp)
    4de0:	1009883a 	mov	r4,r2
    4de4:	01400304 	movi	r5,12
    4de8:	0001b7c0 	call	1b7c <__mulsi3>
    4dec:	8085883a 	add	r2,r16,r2
    4df0:	10c00017 	ldw	r3,0(r2)
    4df4:	e0bffb17 	ldw	r2,-20(fp)
    4df8:	10c00015 	stw	r3,0(r2)
    4dfc:	04000034 	movhi	r16,0
    4e00:	8417ef04 	addi	r16,r16,24508
    4e04:	e0bffa17 	ldw	r2,-24(fp)
    4e08:	1009883a 	mov	r4,r2
    4e0c:	01400304 	movi	r5,12
    4e10:	0001b7c0 	call	1b7c <__mulsi3>
    4e14:	10800104 	addi	r2,r2,4
    4e18:	8085883a 	add	r2,r16,r2
    4e1c:	10c00017 	ldw	r3,0(r2)
    4e20:	e0bffb17 	ldw	r2,-20(fp)
    4e24:	10c00115 	stw	r3,4(r2)
    4e28:	04000034 	movhi	r16,0
    4e2c:	8417ef04 	addi	r16,r16,24508
    4e30:	e0bffa17 	ldw	r2,-24(fp)
    4e34:	1009883a 	mov	r4,r2
    4e38:	01400304 	movi	r5,12
    4e3c:	0001b7c0 	call	1b7c <__mulsi3>
    4e40:	10800204 	addi	r2,r2,8
    4e44:	8085883a 	add	r2,r16,r2
    4e48:	10c00017 	ldw	r3,0(r2)
    4e4c:	e0bffb17 	ldw	r2,-20(fp)
    4e50:	10c00215 	stw	r3,8(r2)
    4e54:	e13ffa17 	ldw	r4,-24(fp)
    4e58:	00051900 	call	5190 <alt_release_fd>
    4e5c:	e6ffff04 	addi	sp,fp,-4
    4e60:	dfc00217 	ldw	ra,8(sp)
    4e64:	df000117 	ldw	fp,4(sp)
    4e68:	dc000017 	ldw	r16,0(sp)
    4e6c:	dec00304 	addi	sp,sp,12
    4e70:	f800283a 	ret

00004e74 <alt_io_redirect>:
    4e74:	defffb04 	addi	sp,sp,-20
    4e78:	dfc00415 	stw	ra,16(sp)
    4e7c:	df000315 	stw	fp,12(sp)
    4e80:	df000304 	addi	fp,sp,12
    4e84:	e13ffd15 	stw	r4,-12(fp)
    4e88:	e17ffe15 	stw	r5,-8(fp)
    4e8c:	e1bfff15 	stw	r6,-4(fp)
    4e90:	01000034 	movhi	r4,0
    4e94:	2117f204 	addi	r4,r4,24520
    4e98:	e17ffd17 	ldw	r5,-12(fp)
    4e9c:	01800044 	movi	r6,1
    4ea0:	01c07fc4 	movi	r7,511
    4ea4:	0004d940 	call	4d94 <alt_open_fd>
    4ea8:	01000034 	movhi	r4,0
    4eac:	2117ef04 	addi	r4,r4,24508
    4eb0:	e17ffe17 	ldw	r5,-8(fp)
    4eb4:	000d883a 	mov	r6,zero
    4eb8:	01c07fc4 	movi	r7,511
    4ebc:	0004d940 	call	4d94 <alt_open_fd>
    4ec0:	01000034 	movhi	r4,0
    4ec4:	2117f504 	addi	r4,r4,24532
    4ec8:	e17fff17 	ldw	r5,-4(fp)
    4ecc:	01800044 	movi	r6,1
    4ed0:	01c07fc4 	movi	r7,511
    4ed4:	0004d940 	call	4d94 <alt_open_fd>
    4ed8:	e037883a 	mov	sp,fp
    4edc:	dfc00117 	ldw	ra,4(sp)
    4ee0:	df000017 	ldw	fp,0(sp)
    4ee4:	dec00204 	addi	sp,sp,8
    4ee8:	f800283a 	ret

00004eec <alt_get_errno>:
    4eec:	defffe04 	addi	sp,sp,-8
    4ef0:	dfc00115 	stw	ra,4(sp)
    4ef4:	df000015 	stw	fp,0(sp)
    4ef8:	d839883a 	mov	fp,sp
    4efc:	00800034 	movhi	r2,0
    4f00:	10986104 	addi	r2,r2,24964
    4f04:	10800017 	ldw	r2,0(r2)
    4f08:	10000526 	beq	r2,zero,4f20 <alt_get_errno+0x34>
    4f0c:	00800034 	movhi	r2,0
    4f10:	10986104 	addi	r2,r2,24964
    4f14:	10800017 	ldw	r2,0(r2)
    4f18:	103ee83a 	callr	r2
    4f1c:	00000206 	br	4f28 <alt_get_errno+0x3c>
    4f20:	00800034 	movhi	r2,0
    4f24:	10986704 	addi	r2,r2,24988
    4f28:	e037883a 	mov	sp,fp
    4f2c:	dfc00117 	ldw	ra,4(sp)
    4f30:	df000017 	ldw	fp,0(sp)
    4f34:	dec00204 	addi	sp,sp,8
    4f38:	f800283a 	ret

00004f3c <alt_file_locked>:
    4f3c:	defffb04 	addi	sp,sp,-20
    4f40:	dfc00415 	stw	ra,16(sp)
    4f44:	df000315 	stw	fp,12(sp)
    4f48:	dc000215 	stw	r16,8(sp)
    4f4c:	df000304 	addi	fp,sp,12
    4f50:	e13ffe15 	stw	r4,-8(fp)
    4f54:	e0bffe17 	ldw	r2,-8(fp)
    4f58:	10800217 	ldw	r2,8(r2)
    4f5c:	10d00034 	orhi	r3,r2,16384
    4f60:	e0bffe17 	ldw	r2,-8(fp)
    4f64:	10c00215 	stw	r3,8(r2)
    4f68:	e03ffd15 	stw	zero,-12(fp)
    4f6c:	00002306 	br	4ffc <alt_file_locked+0xc0>
    4f70:	04000034 	movhi	r16,0
    4f74:	8417ef04 	addi	r16,r16,24508
    4f78:	e0bffd17 	ldw	r2,-12(fp)
    4f7c:	1009883a 	mov	r4,r2
    4f80:	01400304 	movi	r5,12
    4f84:	0001b7c0 	call	1b7c <__mulsi3>
    4f88:	8085883a 	add	r2,r16,r2
    4f8c:	10c00017 	ldw	r3,0(r2)
    4f90:	e0bffe17 	ldw	r2,-8(fp)
    4f94:	10800017 	ldw	r2,0(r2)
    4f98:	1880151e 	bne	r3,r2,4ff0 <alt_file_locked+0xb4>
    4f9c:	04000034 	movhi	r16,0
    4fa0:	8417ef04 	addi	r16,r16,24508
    4fa4:	e0bffd17 	ldw	r2,-12(fp)
    4fa8:	1009883a 	mov	r4,r2
    4fac:	01400304 	movi	r5,12
    4fb0:	0001b7c0 	call	1b7c <__mulsi3>
    4fb4:	10800204 	addi	r2,r2,8
    4fb8:	8085883a 	add	r2,r16,r2
    4fbc:	10800017 	ldw	r2,0(r2)
    4fc0:	10000b0e 	bge	r2,zero,4ff0 <alt_file_locked+0xb4>
    4fc4:	e13ffd17 	ldw	r4,-12(fp)
    4fc8:	01400304 	movi	r5,12
    4fcc:	0001b7c0 	call	1b7c <__mulsi3>
    4fd0:	1007883a 	mov	r3,r2
    4fd4:	00800034 	movhi	r2,0
    4fd8:	1097ef04 	addi	r2,r2,24508
    4fdc:	1887883a 	add	r3,r3,r2
    4fe0:	e0bffe17 	ldw	r2,-8(fp)
    4fe4:	18800226 	beq	r3,r2,4ff0 <alt_file_locked+0xb4>
    4fe8:	00bffcc4 	movi	r2,-13
    4fec:	00000a06 	br	5018 <alt_file_locked+0xdc>
    4ff0:	e0bffd17 	ldw	r2,-12(fp)
    4ff4:	10800044 	addi	r2,r2,1
    4ff8:	e0bffd15 	stw	r2,-12(fp)
    4ffc:	00800034 	movhi	r2,0
    5000:	10986004 	addi	r2,r2,24960
    5004:	10800017 	ldw	r2,0(r2)
    5008:	1007883a 	mov	r3,r2
    500c:	e0bffd17 	ldw	r2,-12(fp)
    5010:	18bfd72e 	bgeu	r3,r2,4f70 <alt_file_locked+0x34>
    5014:	0005883a 	mov	r2,zero
    5018:	e6ffff04 	addi	sp,fp,-4
    501c:	dfc00217 	ldw	ra,8(sp)
    5020:	df000117 	ldw	fp,4(sp)
    5024:	dc000017 	ldw	r16,0(sp)
    5028:	dec00304 	addi	sp,sp,12
    502c:	f800283a 	ret

00005030 <open>:
    5030:	defff604 	addi	sp,sp,-40
    5034:	dfc00915 	stw	ra,36(sp)
    5038:	df000815 	stw	fp,32(sp)
    503c:	df000804 	addi	fp,sp,32
    5040:	e13ffd15 	stw	r4,-12(fp)
    5044:	e17ffe15 	stw	r5,-8(fp)
    5048:	e1bfff15 	stw	r6,-4(fp)
    504c:	00bfffc4 	movi	r2,-1
    5050:	e0bff915 	stw	r2,-28(fp)
    5054:	00bffb44 	movi	r2,-19
    5058:	e0bffa15 	stw	r2,-24(fp)
    505c:	e03ffb15 	stw	zero,-20(fp)
    5060:	e13ffd17 	ldw	r4,-12(fp)
    5064:	01400034 	movhi	r5,0
    5068:	29585e04 	addi	r5,r5,24952
    506c:	00052300 	call	5230 <alt_find_dev>
    5070:	e0bff815 	stw	r2,-32(fp)
    5074:	e0bff817 	ldw	r2,-32(fp)
    5078:	1000051e 	bne	r2,zero,5090 <open+0x60>
    507c:	e13ffd17 	ldw	r4,-12(fp)
    5080:	00052c00 	call	52c0 <alt_find_file>
    5084:	e0bff815 	stw	r2,-32(fp)
    5088:	00800044 	movi	r2,1
    508c:	e0bffb15 	stw	r2,-20(fp)
    5090:	e0bff817 	ldw	r2,-32(fp)
    5094:	10002b26 	beq	r2,zero,5144 <open+0x114>
    5098:	e13ff817 	ldw	r4,-32(fp)
    509c:	00053d40 	call	53d4 <alt_get_fd>
    50a0:	e0bff915 	stw	r2,-28(fp)
    50a4:	e0bff917 	ldw	r2,-28(fp)
    50a8:	1000030e 	bge	r2,zero,50b8 <open+0x88>
    50ac:	e0bff917 	ldw	r2,-28(fp)
    50b0:	e0bffa15 	stw	r2,-24(fp)
    50b4:	00002506 	br	514c <open+0x11c>
    50b8:	e13ff917 	ldw	r4,-28(fp)
    50bc:	01400304 	movi	r5,12
    50c0:	0001b7c0 	call	1b7c <__mulsi3>
    50c4:	1007883a 	mov	r3,r2
    50c8:	00800034 	movhi	r2,0
    50cc:	1097ef04 	addi	r2,r2,24508
    50d0:	1885883a 	add	r2,r3,r2
    50d4:	e0bffc15 	stw	r2,-16(fp)
    50d8:	e0fffe17 	ldw	r3,-8(fp)
    50dc:	00900034 	movhi	r2,16384
    50e0:	10bfffc4 	addi	r2,r2,-1
    50e4:	1886703a 	and	r3,r3,r2
    50e8:	e0bffc17 	ldw	r2,-16(fp)
    50ec:	10c00215 	stw	r3,8(r2)
    50f0:	e0bffb17 	ldw	r2,-20(fp)
    50f4:	1000051e 	bne	r2,zero,510c <open+0xdc>
    50f8:	e13ffc17 	ldw	r4,-16(fp)
    50fc:	0004f3c0 	call	4f3c <alt_file_locked>
    5100:	e0bffa15 	stw	r2,-24(fp)
    5104:	e0bffa17 	ldw	r2,-24(fp)
    5108:	10001016 	blt	r2,zero,514c <open+0x11c>
    510c:	e0bff817 	ldw	r2,-32(fp)
    5110:	10800317 	ldw	r2,12(r2)
    5114:	10000826 	beq	r2,zero,5138 <open+0x108>
    5118:	e0bff817 	ldw	r2,-32(fp)
    511c:	10800317 	ldw	r2,12(r2)
    5120:	e13ffc17 	ldw	r4,-16(fp)
    5124:	e17ffd17 	ldw	r5,-12(fp)
    5128:	e1bffe17 	ldw	r6,-8(fp)
    512c:	e1ffff17 	ldw	r7,-4(fp)
    5130:	103ee83a 	callr	r2
    5134:	00000106 	br	513c <open+0x10c>
    5138:	0005883a 	mov	r2,zero
    513c:	e0bffa15 	stw	r2,-24(fp)
    5140:	00000206 	br	514c <open+0x11c>
    5144:	00bffb44 	movi	r2,-19
    5148:	e0bffa15 	stw	r2,-24(fp)
    514c:	e0bffa17 	ldw	r2,-24(fp)
    5150:	1000090e 	bge	r2,zero,5178 <open+0x148>
    5154:	e13ff917 	ldw	r4,-28(fp)
    5158:	00051900 	call	5190 <alt_release_fd>
    515c:	0004eec0 	call	4eec <alt_get_errno>
    5160:	1007883a 	mov	r3,r2
    5164:	e0bffa17 	ldw	r2,-24(fp)
    5168:	0085c83a 	sub	r2,zero,r2
    516c:	18800015 	stw	r2,0(r3)
    5170:	00bfffc4 	movi	r2,-1
    5174:	00000106 	br	517c <open+0x14c>
    5178:	e0bff917 	ldw	r2,-28(fp)
    517c:	e037883a 	mov	sp,fp
    5180:	dfc00117 	ldw	ra,4(sp)
    5184:	df000017 	ldw	fp,0(sp)
    5188:	dec00204 	addi	sp,sp,8
    518c:	f800283a 	ret

00005190 <alt_release_fd>:
    5190:	defffc04 	addi	sp,sp,-16
    5194:	dfc00315 	stw	ra,12(sp)
    5198:	df000215 	stw	fp,8(sp)
    519c:	dc000115 	stw	r16,4(sp)
    51a0:	df000204 	addi	fp,sp,8
    51a4:	e13ffe15 	stw	r4,-8(fp)
    51a8:	e0bffe17 	ldw	r2,-8(fp)
    51ac:	108000d0 	cmplti	r2,r2,3
    51b0:	1000111e 	bne	r2,zero,51f8 <alt_release_fd+0x68>
    51b4:	04000034 	movhi	r16,0
    51b8:	8417ef04 	addi	r16,r16,24508
    51bc:	e0bffe17 	ldw	r2,-8(fp)
    51c0:	1009883a 	mov	r4,r2
    51c4:	01400304 	movi	r5,12
    51c8:	0001b7c0 	call	1b7c <__mulsi3>
    51cc:	10800204 	addi	r2,r2,8
    51d0:	8085883a 	add	r2,r16,r2
    51d4:	10000015 	stw	zero,0(r2)
    51d8:	04000034 	movhi	r16,0
    51dc:	8417ef04 	addi	r16,r16,24508
    51e0:	e0bffe17 	ldw	r2,-8(fp)
    51e4:	1009883a 	mov	r4,r2
    51e8:	01400304 	movi	r5,12
    51ec:	0001b7c0 	call	1b7c <__mulsi3>
    51f0:	8085883a 	add	r2,r16,r2
    51f4:	10000015 	stw	zero,0(r2)
    51f8:	e6ffff04 	addi	sp,fp,-4
    51fc:	dfc00217 	ldw	ra,8(sp)
    5200:	df000117 	ldw	fp,4(sp)
    5204:	dc000017 	ldw	r16,0(sp)
    5208:	dec00304 	addi	sp,sp,12
    520c:	f800283a 	ret

00005210 <altera_nios2_gen2_irq_init>:
    5210:	deffff04 	addi	sp,sp,-4
    5214:	df000015 	stw	fp,0(sp)
    5218:	d839883a 	mov	fp,sp
    521c:	000170fa 	wrctl	ienable,zero
    5220:	e037883a 	mov	sp,fp
    5224:	df000017 	ldw	fp,0(sp)
    5228:	dec00104 	addi	sp,sp,4
    522c:	f800283a 	ret

00005230 <alt_find_dev>:
    5230:	defffa04 	addi	sp,sp,-24
    5234:	dfc00515 	stw	ra,20(sp)
    5238:	df000415 	stw	fp,16(sp)
    523c:	df000404 	addi	fp,sp,16
    5240:	e13ffe15 	stw	r4,-8(fp)
    5244:	e17fff15 	stw	r5,-4(fp)
    5248:	e0bfff17 	ldw	r2,-4(fp)
    524c:	10800017 	ldw	r2,0(r2)
    5250:	e0bffc15 	stw	r2,-16(fp)
    5254:	e13ffe17 	ldw	r4,-8(fp)
    5258:	0001cf80 	call	1cf8 <strlen>
    525c:	10800044 	addi	r2,r2,1
    5260:	e0bffd15 	stw	r2,-12(fp)
    5264:	00000d06 	br	529c <alt_find_dev+0x6c>
    5268:	e0bffc17 	ldw	r2,-16(fp)
    526c:	10c00217 	ldw	r3,8(r2)
    5270:	e0bffd17 	ldw	r2,-12(fp)
    5274:	1809883a 	mov	r4,r3
    5278:	e17ffe17 	ldw	r5,-8(fp)
    527c:	100d883a 	mov	r6,r2
    5280:	00054dc0 	call	54dc <memcmp>
    5284:	1000021e 	bne	r2,zero,5290 <alt_find_dev+0x60>
    5288:	e0bffc17 	ldw	r2,-16(fp)
    528c:	00000706 	br	52ac <alt_find_dev+0x7c>
    5290:	e0bffc17 	ldw	r2,-16(fp)
    5294:	10800017 	ldw	r2,0(r2)
    5298:	e0bffc15 	stw	r2,-16(fp)
    529c:	e0fffc17 	ldw	r3,-16(fp)
    52a0:	e0bfff17 	ldw	r2,-4(fp)
    52a4:	18bff01e 	bne	r3,r2,5268 <alt_find_dev+0x38>
    52a8:	0005883a 	mov	r2,zero
    52ac:	e037883a 	mov	sp,fp
    52b0:	dfc00117 	ldw	ra,4(sp)
    52b4:	df000017 	ldw	fp,0(sp)
    52b8:	dec00204 	addi	sp,sp,8
    52bc:	f800283a 	ret

000052c0 <alt_find_file>:
    52c0:	defffb04 	addi	sp,sp,-20
    52c4:	dfc00415 	stw	ra,16(sp)
    52c8:	df000315 	stw	fp,12(sp)
    52cc:	df000304 	addi	fp,sp,12
    52d0:	e13fff15 	stw	r4,-4(fp)
    52d4:	00800034 	movhi	r2,0
    52d8:	10985c04 	addi	r2,r2,24944
    52dc:	10800017 	ldw	r2,0(r2)
    52e0:	e0bffd15 	stw	r2,-12(fp)
    52e4:	00003106 	br	53ac <alt_find_file+0xec>
    52e8:	e0bffd17 	ldw	r2,-12(fp)
    52ec:	10800217 	ldw	r2,8(r2)
    52f0:	1009883a 	mov	r4,r2
    52f4:	0001cf80 	call	1cf8 <strlen>
    52f8:	e0bffe15 	stw	r2,-8(fp)
    52fc:	e0bffd17 	ldw	r2,-12(fp)
    5300:	10c00217 	ldw	r3,8(r2)
    5304:	e0bffe17 	ldw	r2,-8(fp)
    5308:	10bfffc4 	addi	r2,r2,-1
    530c:	1885883a 	add	r2,r3,r2
    5310:	10800003 	ldbu	r2,0(r2)
    5314:	10803fcc 	andi	r2,r2,255
    5318:	1080201c 	xori	r2,r2,128
    531c:	10bfe004 	addi	r2,r2,-128
    5320:	10800bd8 	cmpnei	r2,r2,47
    5324:	1000031e 	bne	r2,zero,5334 <alt_find_file+0x74>
    5328:	e0bffe17 	ldw	r2,-8(fp)
    532c:	10bfffc4 	addi	r2,r2,-1
    5330:	e0bffe15 	stw	r2,-8(fp)
    5334:	e0bffe17 	ldw	r2,-8(fp)
    5338:	e0ffff17 	ldw	r3,-4(fp)
    533c:	1885883a 	add	r2,r3,r2
    5340:	10800003 	ldbu	r2,0(r2)
    5344:	10803fcc 	andi	r2,r2,255
    5348:	1080201c 	xori	r2,r2,128
    534c:	10bfe004 	addi	r2,r2,-128
    5350:	10800be0 	cmpeqi	r2,r2,47
    5354:	1000081e 	bne	r2,zero,5378 <alt_find_file+0xb8>
    5358:	e0bffe17 	ldw	r2,-8(fp)
    535c:	e0ffff17 	ldw	r3,-4(fp)
    5360:	1885883a 	add	r2,r3,r2
    5364:	10800003 	ldbu	r2,0(r2)
    5368:	10803fcc 	andi	r2,r2,255
    536c:	1080201c 	xori	r2,r2,128
    5370:	10bfe004 	addi	r2,r2,-128
    5374:	10000a1e 	bne	r2,zero,53a0 <alt_find_file+0xe0>
    5378:	e0bffd17 	ldw	r2,-12(fp)
    537c:	10c00217 	ldw	r3,8(r2)
    5380:	e0bffe17 	ldw	r2,-8(fp)
    5384:	1809883a 	mov	r4,r3
    5388:	e17fff17 	ldw	r5,-4(fp)
    538c:	100d883a 	mov	r6,r2
    5390:	00054dc0 	call	54dc <memcmp>
    5394:	1000021e 	bne	r2,zero,53a0 <alt_find_file+0xe0>
    5398:	e0bffd17 	ldw	r2,-12(fp)
    539c:	00000806 	br	53c0 <alt_find_file+0x100>
    53a0:	e0bffd17 	ldw	r2,-12(fp)
    53a4:	10800017 	ldw	r2,0(r2)
    53a8:	e0bffd15 	stw	r2,-12(fp)
    53ac:	e0fffd17 	ldw	r3,-12(fp)
    53b0:	00800034 	movhi	r2,0
    53b4:	10985c04 	addi	r2,r2,24944
    53b8:	18bfcb1e 	bne	r3,r2,52e8 <alt_find_file+0x28>
    53bc:	0005883a 	mov	r2,zero
    53c0:	e037883a 	mov	sp,fp
    53c4:	dfc00117 	ldw	ra,4(sp)
    53c8:	df000017 	ldw	fp,0(sp)
    53cc:	dec00204 	addi	sp,sp,8
    53d0:	f800283a 	ret

000053d4 <alt_get_fd>:
    53d4:	defffa04 	addi	sp,sp,-24
    53d8:	dfc00515 	stw	ra,20(sp)
    53dc:	df000415 	stw	fp,16(sp)
    53e0:	dc000315 	stw	r16,12(sp)
    53e4:	df000404 	addi	fp,sp,16
    53e8:	e13ffe15 	stw	r4,-8(fp)
    53ec:	00bffa04 	movi	r2,-24
    53f0:	e0bffd15 	stw	r2,-12(fp)
    53f4:	e03ffc15 	stw	zero,-16(fp)
    53f8:	00002106 	br	5480 <alt_get_fd+0xac>
    53fc:	04000034 	movhi	r16,0
    5400:	8417ef04 	addi	r16,r16,24508
    5404:	e0bffc17 	ldw	r2,-16(fp)
    5408:	1009883a 	mov	r4,r2
    540c:	01400304 	movi	r5,12
    5410:	0001b7c0 	call	1b7c <__mulsi3>
    5414:	8085883a 	add	r2,r16,r2
    5418:	10800017 	ldw	r2,0(r2)
    541c:	1000151e 	bne	r2,zero,5474 <alt_get_fd+0xa0>
    5420:	04000034 	movhi	r16,0
    5424:	8417ef04 	addi	r16,r16,24508
    5428:	e0bffc17 	ldw	r2,-16(fp)
    542c:	1009883a 	mov	r4,r2
    5430:	01400304 	movi	r5,12
    5434:	0001b7c0 	call	1b7c <__mulsi3>
    5438:	8085883a 	add	r2,r16,r2
    543c:	e0fffe17 	ldw	r3,-8(fp)
    5440:	10c00015 	stw	r3,0(r2)
    5444:	00800034 	movhi	r2,0
    5448:	10986004 	addi	r2,r2,24960
    544c:	10c00017 	ldw	r3,0(r2)
    5450:	e0bffc17 	ldw	r2,-16(fp)
    5454:	1880040e 	bge	r3,r2,5468 <alt_get_fd+0x94>
    5458:	00800034 	movhi	r2,0
    545c:	10986004 	addi	r2,r2,24960
    5460:	e0fffc17 	ldw	r3,-16(fp)
    5464:	10c00015 	stw	r3,0(r2)
    5468:	e0bffc17 	ldw	r2,-16(fp)
    546c:	e0bffd15 	stw	r2,-12(fp)
    5470:	00000606 	br	548c <alt_get_fd+0xb8>
    5474:	e0bffc17 	ldw	r2,-16(fp)
    5478:	10800044 	addi	r2,r2,1
    547c:	e0bffc15 	stw	r2,-16(fp)
    5480:	e0bffc17 	ldw	r2,-16(fp)
    5484:	10800810 	cmplti	r2,r2,32
    5488:	103fdc1e 	bne	r2,zero,53fc <alt_get_fd+0x28>
    548c:	e0bffd17 	ldw	r2,-12(fp)
    5490:	e6ffff04 	addi	sp,fp,-4
    5494:	dfc00217 	ldw	ra,8(sp)
    5498:	df000117 	ldw	fp,4(sp)
    549c:	dc000017 	ldw	r16,0(sp)
    54a0:	dec00304 	addi	sp,sp,12
    54a4:	f800283a 	ret

000054a8 <atexit>:
    54a8:	200b883a 	mov	r5,r4
    54ac:	000d883a 	mov	r6,zero
    54b0:	0009883a 	mov	r4,zero
    54b4:	000f883a 	mov	r7,zero
    54b8:	00055341 	jmpi	5534 <__register_exitproc>

000054bc <exit>:
    54bc:	defffe04 	addi	sp,sp,-8
    54c0:	000b883a 	mov	r5,zero
    54c4:	dc000015 	stw	r16,0(sp)
    54c8:	dfc00115 	stw	ra,4(sp)
    54cc:	2021883a 	mov	r16,r4
    54d0:	00056840 	call	5684 <__call_exitprocs>
    54d4:	8009883a 	mov	r4,r16
    54d8:	00058200 	call	5820 <_exit>

000054dc <memcmp>:
    54dc:	218d883a 	add	r6,r4,r6
    54e0:	21800826 	beq	r4,r6,5504 <memcmp+0x28>
    54e4:	20800003 	ldbu	r2,0(r4)
    54e8:	28c00003 	ldbu	r3,0(r5)
    54ec:	10c00226 	beq	r2,r3,54f8 <memcmp+0x1c>
    54f0:	10c5c83a 	sub	r2,r2,r3
    54f4:	f800283a 	ret
    54f8:	21000044 	addi	r4,r4,1
    54fc:	29400044 	addi	r5,r5,1
    5500:	003ff706 	br	54e0 <memcmp+0x4>
    5504:	0005883a 	mov	r2,zero
    5508:	f800283a 	ret

0000550c <memcpy>:
    550c:	2005883a 	mov	r2,r4
    5510:	0007883a 	mov	r3,zero
    5514:	19800626 	beq	r3,r6,5530 <memcpy+0x24>
    5518:	28c9883a 	add	r4,r5,r3
    551c:	21c00003 	ldbu	r7,0(r4)
    5520:	10c9883a 	add	r4,r2,r3
    5524:	18c00044 	addi	r3,r3,1
    5528:	21c00005 	stb	r7,0(r4)
    552c:	003ff906 	br	5514 <memcpy+0x8>
    5530:	f800283a 	ret

00005534 <__register_exitproc>:
    5534:	00800034 	movhi	r2,0
    5538:	defff904 	addi	sp,sp,-28
    553c:	10985604 	addi	r2,r2,24920
    5540:	dcc00315 	stw	r19,12(sp)
    5544:	14c00017 	ldw	r19,0(r2)
    5548:	dc000015 	stw	r16,0(sp)
    554c:	dd400515 	stw	r21,20(sp)
    5550:	9c000c17 	ldw	r16,48(r19)
    5554:	dd000415 	stw	r20,16(sp)
    5558:	dc800215 	stw	r18,8(sp)
    555c:	dc400115 	stw	r17,4(sp)
    5560:	dfc00615 	stw	ra,24(sp)
    5564:	202b883a 	mov	r21,r4
    5568:	2823883a 	mov	r17,r5
    556c:	3029883a 	mov	r20,r6
    5570:	3825883a 	mov	r18,r7
    5574:	8000021e 	bne	r16,zero,5580 <__register_exitproc+0x4c>
    5578:	9c000d04 	addi	r16,r19,52
    557c:	9c000c15 	stw	r16,48(r19)
    5580:	80800117 	ldw	r2,4(r16)
    5584:	00c007c4 	movi	r3,31
    5588:	1880100e 	bge	r3,r2,55cc <__register_exitproc+0x98>
    558c:	00800034 	movhi	r2,0
    5590:	1089da04 	addi	r2,r2,10088
    5594:	1000021e 	bne	r2,zero,55a0 <__register_exitproc+0x6c>
    5598:	00bfffc4 	movi	r2,-1
    559c:	00003006 	br	5660 <__register_exitproc+0x12c>
    55a0:	01002304 	movi	r4,140
    55a4:	00027680 	call	2768 <malloc>
    55a8:	1021883a 	mov	r16,r2
    55ac:	103ffa26 	beq	r2,zero,5598 <__register_exitproc+0x64>
    55b0:	10000115 	stw	zero,4(r2)
    55b4:	98800c17 	ldw	r2,48(r19)
    55b8:	80800015 	stw	r2,0(r16)
    55bc:	9c000c15 	stw	r16,48(r19)
    55c0:	80002215 	stw	zero,136(r16)
    55c4:	a800071e 	bne	r21,zero,55e4 <__register_exitproc+0xb0>
    55c8:	00001c06 	br	563c <__register_exitproc+0x108>
    55cc:	a8001b26 	beq	r21,zero,563c <__register_exitproc+0x108>
    55d0:	80802217 	ldw	r2,136(r16)
    55d4:	1000091e 	bne	r2,zero,55fc <__register_exitproc+0xc8>
    55d8:	00800034 	movhi	r2,0
    55dc:	1089da04 	addi	r2,r2,10088
    55e0:	103fed26 	beq	r2,zero,5598 <__register_exitproc+0x64>
    55e4:	01004204 	movi	r4,264
    55e8:	00027680 	call	2768 <malloc>
    55ec:	103fea26 	beq	r2,zero,5598 <__register_exitproc+0x64>
    55f0:	10004015 	stw	zero,256(r2)
    55f4:	10004115 	stw	zero,260(r2)
    55f8:	80802215 	stw	r2,136(r16)
    55fc:	81000117 	ldw	r4,4(r16)
    5600:	01400044 	movi	r5,1
    5604:	2107883a 	add	r3,r4,r4
    5608:	18c7883a 	add	r3,r3,r3
    560c:	10c7883a 	add	r3,r2,r3
    5610:	1d000015 	stw	r20,0(r3)
    5614:	290a983a 	sll	r5,r5,r4
    5618:	11004017 	ldw	r4,256(r2)
    561c:	2148b03a 	or	r4,r4,r5
    5620:	11004015 	stw	r4,256(r2)
    5624:	1c802015 	stw	r18,128(r3)
    5628:	00c00084 	movi	r3,2
    562c:	a8c0031e 	bne	r21,r3,563c <__register_exitproc+0x108>
    5630:	10c04117 	ldw	r3,260(r2)
    5634:	194ab03a 	or	r5,r3,r5
    5638:	11404115 	stw	r5,260(r2)
    563c:	80800117 	ldw	r2,4(r16)
    5640:	10c00044 	addi	r3,r2,1
    5644:	10800084 	addi	r2,r2,2
    5648:	1085883a 	add	r2,r2,r2
    564c:	1085883a 	add	r2,r2,r2
    5650:	80c00115 	stw	r3,4(r16)
    5654:	80a1883a 	add	r16,r16,r2
    5658:	84400015 	stw	r17,0(r16)
    565c:	0005883a 	mov	r2,zero
    5660:	dfc00617 	ldw	ra,24(sp)
    5664:	dd400517 	ldw	r21,20(sp)
    5668:	dd000417 	ldw	r20,16(sp)
    566c:	dcc00317 	ldw	r19,12(sp)
    5670:	dc800217 	ldw	r18,8(sp)
    5674:	dc400117 	ldw	r17,4(sp)
    5678:	dc000017 	ldw	r16,0(sp)
    567c:	dec00704 	addi	sp,sp,28
    5680:	f800283a 	ret

00005684 <__call_exitprocs>:
    5684:	00800034 	movhi	r2,0
    5688:	10985604 	addi	r2,r2,24920
    568c:	10800017 	ldw	r2,0(r2)
    5690:	defff304 	addi	sp,sp,-52
    5694:	ddc00a15 	stw	r23,40(sp)
    5698:	d8800015 	stw	r2,0(sp)
    569c:	05c00034 	movhi	r23,0
    56a0:	10800c04 	addi	r2,r2,48
    56a4:	dc800515 	stw	r18,20(sp)
    56a8:	dfc00c15 	stw	ra,48(sp)
    56ac:	df000b15 	stw	fp,44(sp)
    56b0:	dd800915 	stw	r22,36(sp)
    56b4:	dd400815 	stw	r21,32(sp)
    56b8:	dd000715 	stw	r20,28(sp)
    56bc:	dcc00615 	stw	r19,24(sp)
    56c0:	dc400415 	stw	r17,16(sp)
    56c4:	dc000315 	stw	r16,12(sp)
    56c8:	d9000115 	stw	r4,4(sp)
    56cc:	2825883a 	mov	r18,r5
    56d0:	d8800215 	stw	r2,8(sp)
    56d4:	bdc9df04 	addi	r23,r23,10108
    56d8:	d8800017 	ldw	r2,0(sp)
    56dc:	dc400217 	ldw	r17,8(sp)
    56e0:	14c00c17 	ldw	r19,48(r2)
    56e4:	98004226 	beq	r19,zero,57f0 <__call_exitprocs+0x16c>
    56e8:	9c000117 	ldw	r16,4(r19)
    56ec:	00900034 	movhi	r2,16384
    56f0:	10bfffc4 	addi	r2,r2,-1
    56f4:	9d002217 	ldw	r20,136(r19)
    56f8:	857fffc4 	addi	r21,r16,-1
    56fc:	80a1883a 	add	r16,r16,r2
    5700:	8421883a 	add	r16,r16,r16
    5704:	8421883a 	add	r16,r16,r16
    5708:	a42d883a 	add	r22,r20,r16
    570c:	84000204 	addi	r16,r16,8
    5710:	9c21883a 	add	r16,r19,r16
    5714:	a8002616 	blt	r21,zero,57b0 <__call_exitprocs+0x12c>
    5718:	90000326 	beq	r18,zero,5728 <__call_exitprocs+0xa4>
    571c:	a0002026 	beq	r20,zero,57a0 <__call_exitprocs+0x11c>
    5720:	b1002017 	ldw	r4,128(r22)
    5724:	24801e1e 	bne	r4,r18,57a0 <__call_exitprocs+0x11c>
    5728:	99000117 	ldw	r4,4(r19)
    572c:	82000017 	ldw	r8,0(r16)
    5730:	213fffc4 	addi	r4,r4,-1
    5734:	a900021e 	bne	r21,r4,5740 <__call_exitprocs+0xbc>
    5738:	9d400115 	stw	r21,4(r19)
    573c:	00000106 	br	5744 <__call_exitprocs+0xc0>
    5740:	80000015 	stw	zero,0(r16)
    5744:	40001626 	beq	r8,zero,57a0 <__call_exitprocs+0x11c>
    5748:	9f000117 	ldw	fp,4(r19)
    574c:	a0000526 	beq	r20,zero,5764 <__call_exitprocs+0xe0>
    5750:	00800044 	movi	r2,1
    5754:	1552983a 	sll	r9,r2,r21
    5758:	a1404017 	ldw	r5,256(r20)
    575c:	494a703a 	and	r5,r9,r5
    5760:	2800021e 	bne	r5,zero,576c <__call_exitprocs+0xe8>
    5764:	403ee83a 	callr	r8
    5768:	00000906 	br	5790 <__call_exitprocs+0x10c>
    576c:	a1004117 	ldw	r4,260(r20)
    5770:	4908703a 	and	r4,r9,r4
    5774:	2000041e 	bne	r4,zero,5788 <__call_exitprocs+0x104>
    5778:	d9000117 	ldw	r4,4(sp)
    577c:	b1400017 	ldw	r5,0(r22)
    5780:	403ee83a 	callr	r8
    5784:	00000206 	br	5790 <__call_exitprocs+0x10c>
    5788:	b1000017 	ldw	r4,0(r22)
    578c:	403ee83a 	callr	r8
    5790:	99000117 	ldw	r4,4(r19)
    5794:	e13fd01e 	bne	fp,r4,56d8 <__call_exitprocs+0x54>
    5798:	89000017 	ldw	r4,0(r17)
    579c:	24ffce1e 	bne	r4,r19,56d8 <__call_exitprocs+0x54>
    57a0:	ad7fffc4 	addi	r21,r21,-1
    57a4:	b5bfff04 	addi	r22,r22,-4
    57a8:	843fff04 	addi	r16,r16,-4
    57ac:	003fd906 	br	5714 <__call_exitprocs+0x90>
    57b0:	b8000f26 	beq	r23,zero,57f0 <__call_exitprocs+0x16c>
    57b4:	99400117 	ldw	r5,4(r19)
    57b8:	99000017 	ldw	r4,0(r19)
    57bc:	2800091e 	bne	r5,zero,57e4 <__call_exitprocs+0x160>
    57c0:	20000826 	beq	r4,zero,57e4 <__call_exitprocs+0x160>
    57c4:	89000015 	stw	r4,0(r17)
    57c8:	a0000226 	beq	r20,zero,57d4 <__call_exitprocs+0x150>
    57cc:	a009883a 	mov	r4,r20
    57d0:	000277c0 	call	277c <free>
    57d4:	9809883a 	mov	r4,r19
    57d8:	000277c0 	call	277c <free>
    57dc:	8cc00017 	ldw	r19,0(r17)
    57e0:	003fc006 	br	56e4 <__call_exitprocs+0x60>
    57e4:	9823883a 	mov	r17,r19
    57e8:	2027883a 	mov	r19,r4
    57ec:	003fbd06 	br	56e4 <__call_exitprocs+0x60>
    57f0:	dfc00c17 	ldw	ra,48(sp)
    57f4:	df000b17 	ldw	fp,44(sp)
    57f8:	ddc00a17 	ldw	r23,40(sp)
    57fc:	dd800917 	ldw	r22,36(sp)
    5800:	dd400817 	ldw	r21,32(sp)
    5804:	dd000717 	ldw	r20,28(sp)
    5808:	dcc00617 	ldw	r19,24(sp)
    580c:	dc800517 	ldw	r18,20(sp)
    5810:	dc400417 	ldw	r17,16(sp)
    5814:	dc000317 	ldw	r16,12(sp)
    5818:	dec00d04 	addi	sp,sp,52
    581c:	f800283a 	ret

00005820 <_exit>:
    5820:	defffd04 	addi	sp,sp,-12
    5824:	df000215 	stw	fp,8(sp)
    5828:	df000204 	addi	fp,sp,8
    582c:	e13fff15 	stw	r4,-4(fp)
    5830:	0001883a 	nop
    5834:	e0bfff17 	ldw	r2,-4(fp)
    5838:	e0bffe15 	stw	r2,-8(fp)
    583c:	e0bffe17 	ldw	r2,-8(fp)
    5840:	10000226 	beq	r2,zero,584c <_exit+0x2c>
    5844:	002af070 	cmpltui	zero,zero,43969
    5848:	00000106 	br	5850 <_exit+0x30>
    584c:	002af0b0 	cmpltui	zero,zero,43970
    5850:	003fff06 	br	5850 <_exit+0x30>
